(lp0
F0.00780798338375377
aF0.004011782563717794
aF0.0018851505512441798
aF-0.0016145598370738284
aF-0.0033974932897418613
aF0.00025671273346717163
aF-0.002770122192357261
aF-0.005539318189964564
aF-0.004811940045917064
aF-0.004247789413285676
aF-0.0024393219406802598
aF0.0021116247133679926
aF0.003122365743262959
aF0.0010074668741657797
aF-0.010696174154356745
aF0.007831521899018045
aF-0.00651157351366867
aF-0.006309490754857777
aF0.00019996766772826646
aF-0.00820559123647205
aF0.0037845921553431713
aF-0.004608453536184031
aF-0.0012426435152596961
aF-0.001779895575724302
aF-0.018719845506960864
aF-0.01639310792018564
aF0.005316646731376314
aF0.004894548375892771
aF0.004069883163915611
aF-0.011531478912233268
aF-0.013911013021763084
aF-0.003182676670360458
aF-0.00911996141763149
aF-0.013153318845625222
aF0.003820683007885072
aF0.0076685283818854685
aF0.006153879610692796
aF0.0014543239089071913
aF-0.013378303880196233
aF0.010213321999482165
aF-0.00016350743811563645
aF-0.001267342732514016
aF-0.0006198279855217627
aF0.0006725549713214357
aF0.0035554460561792317
aF-0.008557363007115033
aF0.003313690672766276
aF-0.0012884034525342562
aF0.0026074026398379816
aF-0.0028017126597613727
aF-0.009211267648659649
aF0.0026110816430729867
aF-0.0029808568306430136
aF-0.00580712419424156
aF0.004218980691830425
aF0.0026154683081958474
aF0.0022423462903154528
aF-0.0032202109059382995
aF-0.005367885929238091
aF-0.005243610339111274
aF0.0008594158607440262
aF-0.012752680517382597
aF-0.0042686873636324715
aF0.007884001208690764
aF0.002695162279817375
aF0.005402683266325876
aF-0.0002259213527946452
aF-0.0024214312918537546
aF0.0033103301987762327
aF0.0017324543565041214
aF-0.012389405727862146
aF0.011116560771637484
aF0.0016884885523286276
aF0.0002652235873758127
aF-0.0031192456780100132
aF-0.0013346578672383924
aF-0.0008163812468894246
aF0.0015511009985472214
aF0.004024014721570055
aF-0.007004758154266516
aF-0.006294321329643684
aF0.002315524773647282
aF0.002782456088896489
aF0.006623247169036694
aF-0.014449337198569194
aF-0.010708313649004679
aF0.006754495790998344
aF-0.0026486828939478162
aF-0.005923514382987383
aF-0.0059831018990283875
aF0.005948696938320851
aF-0.011202876802744304
aF6.239700990110777e-05
aF-0.009338494640584002
aF-0.0019063430651266933
aF0.006829778454377171
aF-0.008266650938660098
aF-0.008441026015328057
aF-0.017851945466105808
aF-0.004831685111607653
aF0.004725066431295726
aF-0.0006624409884083617
aF0.003550793348491358
aF-0.010028176090671907
aF0.0008161985684228244
aF-0.004476245048585686
aF-0.011102464885669022
aF0.0015651687492497035
aF-0.0064156184328478146
aF0.006960263447732186
aF0.0016158248602988201
aF-0.009644085101345543
aF0.0036281587014467317
aF-0.0012607870927147746
aF0.004547588347952496
aF-0.008662449671424266
aF-0.0037835460398188293
aF-0.0001992148569314766
aF0.005283907366023834
aF-0.0013584153095881632
aF-0.002129989605291174
aF-0.012860324505593147
aF0.0001111607082863379
aF-0.009116853580846993
aF9.817507021956068e-05
aF0.0007173643532404461
aF0.006803523989011017
aF0.0003153072669731035
aF0.004748759460190437
aF-0.002429829803168401
aF0.005444359269871562
aF-0.004831130187942316
aF-0.008706327012482787
aF-0.003100967086110262
aF-0.011554609766372938
aF-0.010197071706357298
aF-0.016367779302312542
aF-0.004691199576815202
aF-0.0027511621113990997
aF-0.006698416553748953
aF-0.012231686832774756
aF-0.0036114422808686186
aF-0.011262223087752519
aF-0.010028757719422425
aF-0.006506999879010177
aF0.0025241229262556366
aF0.0012080195643127418
aF0.0005809947459821953
aF0.0011140089215425644
aF-0.0031941954634637244
aF-0.003134885776218094
aF0.0017513541853799396
aF-0.011409666715929308
aF-0.006076654214999052
aF-0.002667931416789739
aF0.00486936938541739
aF0.000705767196665072
aF-0.0028766614369018584
aF-0.008784829362967346
aF-0.009514556811816652
aF0.002139678446727247
aF-0.004469461305835808
aF-0.013787324479022386
aF0.0032821067643032257
aF-0.007695510416903061
aF0.0031295228245761496
aF0.005571956415412464
aF0.007018062121096649
aF0.0005186443963735149
aF0.002790294499357456
aF-0.0152040366919794
aF-0.00911064340664176
aF-0.017049230763007062
aF-0.00867299950645976
aF-0.007363147136689295
aF-0.0022044215768972693
aF0.000770209583910154
aF0.0001935331281389494
aF-0.011745102803378852
aF0.0006663588639176763
aF-0.006227836381398233
aF-0.010093087740330443
aF0.001473251304929849
aF0.009803484982937316
aF0.0009111411100019779
aF-0.0037906061582197526
aF-0.0032822017536172955
aF0.0033425203507457804
aF0.008242694661486492
aF-0.0004189060622154118
aF-0.01212035246437996
aF0.005754238505154392
aF-0.006066908356168044
aF-0.0030005175181726054
aF-0.005308872031024708
aF-0.011461336202158227
aF-0.008608195482749116
aF-0.005318081507248059
aF0.003335913289411724
aF-0.008166899981371612
aF-0.004241908341832545
aF-0.012369725034109073
aF-0.009931843664146251
aF-0.007831266335410049
aF-0.008142132611095572
aF0.0046301637483056705
aF0.004932010405268588
aF-0.01569418264662813
aF-0.0047491163793994245
aF-0.010377480953134524
aF-0.008631428872529547
aF0.005203256795118156
aF-0.010618878822779657
aF-0.012949986851678365
aF-0.0047560689126364825
aF-0.014446189563599022
aF-0.0039044700405547724
aF-0.0011199278818124095
aF-0.0036578022550655177
aF0.0030053769304620543
aF-4.382683330089992e-05
aF-0.008092119470139747
aF-0.0038851950186683734
aF-0.006898880722470432
aF-0.005680090394225717
aF0.012315826881341724
aF0.0016075717997393257
aF-0.011290282897946261
aF0.006521317793156638
aF-0.003408802917594429
aF-0.009815298204029066
aF-0.005450256653894628
aF0.005228443797335006
aF-0.012400954196074064
aF-0.011594189911028589
aF-0.007863342784517465
aF-0.0035787498650190278
aF-0.006805209569197793
aF-0.008018285782037988
aF-0.0042005276705115455
aF-0.0026482852143614784
aF-3.822886450326234e-06
aF-0.006824574918104889
aF-0.00878983506311883
aF-0.006444613088651679
aF-0.0028756354186340468
aF-0.006753795106986291
aF0.003445307427070339
aF-0.012189505328944498
aF-0.0016788086055237877
aF-0.004367018597409543
aF-0.01494125866654293
aF0.003427854235928743
aF-0.004654669731082228
aF-0.0127450190808369
aF-0.0032847524092629683
aF-0.007234707448805852
aF0.005597837716195504
aF-0.002670587912534844
aF0.000991482527429112
aF-0.0031968327027330325
aF-0.0005182387639757684
aF-0.0055433207025433456
aF0.007196274513937863
aF-0.0005087966615398813
aF-0.000811430141146713
aF-0.010588662456913417
aF0.002974600569854431
aF0.0015706868795829613
aF0.0017226487880802666
aF-0.00997802669049614
aF-0.01075455244850726
aF-0.005826055549491167
aF-0.014885173740320161
aF0.009015035061973988
aF-0.007067392144263492
aF-0.004688888682515013
aF-0.009618084452482342
aF-0.0013871891187326045
aF-0.004455301193216921
aF-0.00898898413966075
aF-0.015588142924017773
aF-0.0053047174600532945
aF-0.00439760176540929
aF-0.0014217343320462267
aF-0.0128171789500331
aF-0.0014433558612534862
aF-0.00722515902152082
aF-0.002720165925910181
aF-0.008807164792804793
aF0.004125299217561226
aF-0.002115723481752675
aF0.0037498453676874577
aF-0.006042910421923952
aF0.01146628590708899
aF0.008054430808050942
aF-0.003827258700989422
aF-0.005033008621851517
aF-0.008578859949260012
aF0.00022880601001744978
aF-0.001993557493895408
aF-0.0007124125044014463
aF-0.005864483885148027
aF-0.01214317573393192
aF-0.009825163825447883
aF0.0023882525119774635
aF-0.007117572769113771
aF-0.008938675168554278
aF-0.0072756299850005686
aF0.005568406429868779
aF-0.002548129755587979
aF0.0020564234990139603
aF-0.012803908643586836
aF-0.010815789869015976
aF-0.008816659783117088
aF-0.002640204651243373
aF0.00834808152550951
aF-0.011817998673091032
aF0.000644414238875972
aF-0.009787834806353757
aF-0.017136331572681178
aF0.002111605796305432
aF-0.001840270638577243
aF-0.006694434733124874
aF-0.01130871693447377
aF-0.005637502175569727
aF-0.0009803370007115285
aF-0.004796232055697446
aF-0.0016277587971553482
aF0.0023503901057868393
aF0.006793549739907459
aF0.014700648202119693
aF0.0014041150931890212
aF0.006569423122063008
aF-0.0017461722965197567
aF-0.00010289753321577298
aF0.00639812592669251
aF0.007184676398964809
aF0.0018006138066694664
aF0.005425332190016235
aF0.006171806448314125
aF-0.008152028763534715
aF0.006290216599017666
aF-0.0013643077466292067
aF-0.00859731001966056
aF-0.006409177898198123
aF-0.002853336003402372
aF-0.014660041765386279
aF0.00929207575207871
aF-0.009941451208929303
aF0.006242131907595828
aF-0.006772781594543253
aF-0.0020833399083594675
aF0.0018344776706637623
aF-0.009489819160952512
aF-0.0056375224714477964
aF-0.00981253071128131
aF-0.0012941718297654428
aF-0.01150300364323545
aF-0.0015463128304423056
aF-0.008069828963656529
aF-0.001491014876489701
aF-0.0002958570063093227
aF-0.004494519536984175
aF0.00017536690250832257
aF3.875684129449981e-05
aF-0.0047379157814371724
aF0.0018466883959538237
aF0.0019910172631254436
aF-0.001207374861514845
aF-0.00951740705630129
aF-0.0006790314467461892
aF0.007276761270962797
aF0.0012446487820759857
aF0.0070767914756560465
aF-0.006440134604301661
aF0.009435689690260247
aF-0.001163421768055814
aF-0.010467569665838554
aF0.00848489878050643
aF0.0034336466186179297
aF-0.0032098080506558642
aF0.004453930403832181
aF0.0005408065952768252
aF-0.006865363080485191
aF0.0036113778343228476
aF-0.011636981669736101
aF0.0027982123418632985
aF-0.004633784733765085
aF0.004180825063112912
aF-0.010853468245853135
aF0.0036161501608119144
aF-0.009717139852596878
aF-0.0019148432952645939
aF-0.007077323716184839
aF0.0001137926772889577
aF0.00860344125438903
aF-0.00980771537578172
aF-0.012174389858708003
aF-0.0028844349749091508
aF-0.011899253177354723
aF-0.0005079199367771924
aF-0.012715923370392809
aF-0.0013226053615381255
aF0.008550626134304084
aF-0.0018609317945029403
aF0.00605512338217681
aF0.008328078485223479
aF0.0005377750691100019
aF-0.0024133991865481117
aF0.007570810510297771
aF-0.005483536881113157
aF-0.007986777783844679
aF-0.0026684812389133348
aF-0.008662090954627373
aF0.0009061556732705997
aF-4.671665222785509e-05
aF0.004924785154392165
aF-0.011843146162445634
aF-0.0054858867819615595
aF0.004917753751541195
aF-0.0003716619729692266
aF0.0011415323794067187
aF-0.012883988521806163
aF-0.004375462083341745
aF0.004375462976804768
aF-0.0018692892283312277
aF-0.009669952604392941
aF-0.004853637907504567
aF-0.013761667316822754
aF-0.012391231754089347
aF-0.016677597520967348
aF-0.010614935810361608
aF-0.005048625147149102
aF-0.0036057358758283956
aF-0.005408100756721774
aF-0.014734339499309941
aF-0.006447033940261688
aF-0.0002188239367309202
aF0.0009882931659725743
aF-0.008517768403778204
aF-0.005355092526181044
aF0.014269199442310723
aF-0.0060155452240383996
aF-0.000391117654165798
aF-0.011373917540838892
aF0.008617569270379773
aF0.007586722446169154
aF0.006832640006353415
aF-0.006797105236634529
aF-0.0070351366150500395
aF0.005023311497149564
aF-0.0037577477693795077
aF-0.005854532694754897
aF0.0023052372794589602
aF-0.009079978899607176
aF-0.004735732254856388
aF-0.008943067776436478
aF-0.0038012324539776115
aF-0.0026658510487928225
aF-0.007878883961243211
aF-0.00981862393106759
aF-0.00450913540187387
aF-0.00897411642294032
aF0.005882235205951564
aF0.00478575381723375
aF-0.007381282824484933
aF-0.015263966592407072
aF-0.015466367933304748
aF-0.0060671216406125465
aF-0.005142615640158591
aF-0.007179618578942035
aF-0.00688918518376838
aF-0.011312857803477428
aF0.003168363521131345
aF-0.0008475365364481527
aF-0.002090788900550883
aF-0.0013449330556366105
aF-0.007822027372098602
aF0.0063589092557427875
aF0.006251493616208035
aF-0.0007651079534450394
aF0.0013213995473361415
aF-0.006024810578104417
aF-0.0018717189429703276
aF-0.0017980526164370402
aF0.0022036343365159842
aF-0.0032075472278997267
aF-0.006629074899460586
aF-0.008394302365078429
aF-0.0075732041819562505
aF-0.00789623120519886
aF0.0017859875630661783
aF-0.008633725180065492
aF0.0025155651933294375
aF-0.007838202282968929
aF-0.007119589021554924
aF-0.007361027177470699
aF0.004474330347839107
aF-0.005603237546348623
aF0.00739682276519661
aF-0.009336337918756618
aF0.0008294990240798651
aF-0.012596883094875484
aF-0.004143314816229004
aF-0.008674899988161199
aF-0.015967972534693297
aF-0.008617554773629275
aF-0.013266309096044142
aF-0.011292357443442477
aF-0.005661140748624996
aF-0.004742329460229481
aF0.00503335105942993
aF0.0013667156961932817
aF-0.0103802455476584
aF0.007760974240756316
aF0.012022197264018996
aF-0.0025783692437699357
aF-0.011149458128325981
aF-0.008115676454676146
aF0.001446464835514896
aF0.005513652038747593
aF0.004739227896445733
aF0.0002763489638341768
aF0.002602971527205316
aF0.00029330778850532595
aF-0.0040412540172247565
aF-0.01006148118119263
aF0.003751141922685341
aF-0.0018993360257338024
aF-0.00034142126849177055
aF0.001963649797704161
aF-0.010122458134981489
aF-0.00015590993288861865
aF0.0018776707542443574
aF-0.0022658496256637477
aF-0.009719230995439001
aF-0.006754488528905367
aF-0.007664606228082669
aF0.0009261120546657567
aF0.002407472231127186
aF-0.011700710939777295
aF-0.01230494563536202
aF-0.013607555587768112
aF-0.005192440198899766
aF-0.0019520634535600836
aF-0.007623910954882435
aF-0.005498097044568316
aF-0.005264265497725393
aF0.001140958736319774
aF-0.007508380350400721
aF-0.0030515302762286547
aF-0.003280638285915346
aF0.007108413947290074
aF-0.010249953341456959
aF0.004561194688552448
aF-0.011422930728317324
aF-0.0012413700497218543
aF0.007909368636963258
aF0.0004766435245796099
aF-0.0002243797438367997
aF-0.0024769274830527726
aF-0.006644627978000505
aF0.0003179682077834821
aF0.0032582403363362903
aF-0.005382172491185791
aF-0.011196419614543157
aF0.0032923555220534285
aF0.005662933278008756
aF-0.009164969015818644
aF-0.009012153607419943
aF0.0033407957715881516
aF0.005507704663813758
aF-0.010329238197813227
aF-0.008921177798698277
aF0.003285652086522081
aF-0.009432847820380673
aF-0.006701020707882025
aF-0.014378165172166555
aF-0.0183986305496109
aF-0.014678475108884648
aF-0.006618303700652559
aF0.00537143964181979
aF0.004269744826589436
aF-0.0010696225781319873
aF0.0028860410620859386
aF-0.01115917136985744
aF-0.003783024525764214
aF0.0034585665384247273
aF-0.0027752859147407065
aF0.0008669974351212669
aF-0.009249711443728362
aF0.007123321750558351
aF-0.014815891997001682
aF0.004896532426230226
aF0.00022643785748236063
aF-0.00835569487305042
aF-0.009873664300577558
aF0.006004531843820028
aF-0.004080434575468853
aF-0.0045981933138988604
aF-0.00539597926434851
aF-0.005039328093339049
aF-0.015084972497838932
aF0.0005450080763390831
aF0.0032553893176448497
aF-0.009663509195212597
aF0.0047981600348277875
aF0.0013806830714166646
aF-0.0023180373180403044
aF-0.012605823227622872
aF-0.004822915186875562
aF0.006171215663850217
aF0.005327893564472806
aF-0.008366267270298966
aF-0.006262307137465775
aF-0.010835993782900519
aF0.0009253773019503315
aF-0.0025551261892083786
aF-0.002544346172271339
aF0.0036205244527685483
aF0.0020459647681196546
aF-0.0026815092961124114
aF0.0033807969735879803
aF-0.005883290497413019
aF0.0028170435691449824
aF0.004170078403478123
aF0.015464190130382336
aF0.003629619407972476
aF-0.0015168119807227813
aF0.0004797160948870928
aF-0.009603836099733714
aF0.013251612287568134
aF0.006375124709768041
aF-0.002516900956720668
aF-0.005356366635650451
aF0.006572544411296863
aF0.006067749421961332
aF0.007970598851176366
aF-0.005214263164074121
aF-0.00010575428979408218
aF0.006733598297651222
aF0.004115311149821713
aF0.0031096809966088
aF-0.009156540698452209
aF-0.005874171277482012
aF0.005615701992846699
aF-0.011759281025442228
aF-0.0031123383662805945
aF-0.0009805301653853858
aF0.00665091954463354
aF-0.007431588285478645
aF-0.006701446825884568
aF-0.014381850717656665
aF0.0018509098251641588
aF-0.0030526336732620094
aF4.3116817563461536e-05
aF0.005021547918139258
aF-0.00019737592905753952
aF-0.015105871313196994
aF-0.012961967902868708
aF-0.010244557984100632
aF0.0009864480317238072
aF0.0012768133898975326
aF0.0017682219003939377
aF-0.003418791728893525
aF-0.0036828407122926426
aF-0.005750616062127654
aF-0.00942761470594939
aF0.0066880381606641455
aF0.0067963767324775316
aF-0.01037284671012599
aF0.0014572970478660494
aF-0.009055629659552235
aF-0.010570339466024993
aF-0.006599651211736382
aF0.0025219728365016886
aF-0.006756051526363948
aF-0.011969121828954394
aF-0.013036879670231113
aF-0.00019828614369632913
aF-0.0006403277913751731
aF0.002606778397153201
aF-0.012319643507130025
aF-0.010543153567110823
aF0.008097230419338554
aF-0.006454142992028461
aF-0.009246871264386456
aF-0.00785524539706173
aF-0.01186816479525983
aF-0.009103680662047503
aF-0.015043814075261905
aF-0.005322085044401454
aF-0.0020574619683382325
aF0.005365017186105174
aF-0.00468020838376863
aF0.0030951200510053764
aF0.000900333069381781
aF-0.009142717361981594
aF0.004378251149781866
aF0.008345241068689956
aF0.010521646412940696
aF-0.001041084725855156
aF-0.004426474918427523
aF0.003202887650480954
aF-0.010148517597789732
aF0.012394097171776095
aF-0.004578892866264053
aF-9.69062647416828e-05
aF0.005154540056548527
aF-0.011887894609849929
aF-0.003867358247267483
aF-0.006017077719124967
aF0.0007066940836116727
aF-0.008906127209240668
aF-0.0046664317155178225
aF0.004150843960179491
aF-0.01525920303799268
aF6.963132300411663e-05
aF-0.0027551263045666272
aF0.005529034046872569
aF-0.00123788867249101
aF0.0020374747704177323
aF-0.01094043481497165
aF0.00014082450474947887
aF-0.01375695622499769
aF0.002073673128411409
aF-0.008050260468121153
aF-0.00015518584025909273
aF0.0059209363684848484
aF0.005084537371025995
aF-0.0012913275642136963
aF0.0020240192589190257
aF-0.006308207049226992
aF-0.006228058856014034
aF0.003207406384538189
aF-0.002284043243351896
aF-0.0005576061998762726
aF0.014733621930178523
aF-0.0010991290920407204
aF-0.007563435746672419
aF0.005107901977439303
aF0.004317391581119606
aF0.003294284566231823
aF-0.006622105453149462
aF0.002993482074971813
aF-0.005721408180359265
aF-0.00047714664300508897
aF0.0035088886564805916
aF-0.008631647773607663
aF-0.004083655056540097
aF-0.016167804425730146
aF-0.006825274556152713
aF0.006673297922002929
aF-0.005358350395229068
aF0.005988738875496736
aF0.005924769602491758
aF-0.011670699527350874
aF-0.00886347073274853
aF0.006155896423319892
aF-0.004790567052652634
aF0.005643953043513351
aF-0.010224513985425296
aF0.0028211864572388378
aF-0.0035036107481745448
aF-0.0034120258229576247
aF-0.008825441033435901
aF-0.01144896383227468
aF-0.012049717652280934
aF-0.007654868780669429
aF-0.007798318361995668
aF-0.005539129927072208
aF-0.00409282285558327
aF0.00420748368523053
aF0.005937744144211906
aF0.00535139277546002
aF0.006069340085574786
aF-0.0008368201343472445
aF-0.010326116894227053
aF-0.007027386923334064
aF-0.00447335788368501
aF0.0007336679458283155
aF-0.010663166748927222
aF0.004844659395224051
aF-0.010890860405640653
aF0.003289770912630843
aF0.004644256773883353
aF0.003998556786628482
aF-0.016458331554722164
aF-0.010532661477788896
aF-0.01226183220017922
aF-0.00880026684638433
aF0.0008331999055901582
aF-0.006426677750187196
aF0.005671942222803759
aF-0.0064424455371424535
aF-0.009567667884937866
aF-0.009162277359306943
aF-0.007213946037253376
aF-0.004565452932412999
aF0.003807559644986589
aF-0.015937894926145956
aF0.0024949782489213767
aF-0.006928875097372231
aF-0.012285644485245892
aF-0.011715265756379573
aF0.0025721320326584306
aF0.002755342376460993
aF0.00020960903631756715
aF0.0033472936751380456
aF0.0008806424132193031
aF-4.126431647259732e-05
aF0.004232634784704773
aF0.007122568602643582
aF0.003792176735340791
aF-0.012753775829246767
aF-0.004235347382288527
aF0.008509984709008123
aF-0.0026576134803128924
aF-0.0022389873249327626
aF-0.009753819534690353
aF0.0026362085021609436
aF0.006088495457367407
aF0.0004330766759310283
aF-0.0013366685834409855
aF-0.014757581492624034
aF-0.007218244463170672
aF-0.002875842346433824
aF-0.012307727355181364
aF0.008549351009464651
aF-0.0058571858269233674
aF0.00047938234295160005
aF0.002121463950858297
aF-0.003598956897704294
aF-0.004216215955377826
aF-0.0012662817106660648
aF-0.0020758339598341974
aF-0.013818752873175258
aF-0.01986443122269605
aF-0.0068903678913424405
aF0.0072666187338410945
aF0.0030135069494376175
aF-0.007134334364543814
aF-0.013526936016783576
aF-0.012659626311570481
aF-0.012333208073754556
aF-0.003596377599911542
aF-0.003116578608606169
aF-0.0048215440887453415
aF0.009500436216256966
aF-0.0040984484216738375
aF-0.008645973414061758
aF-0.00561121538642429
aF-0.009057538814793365
aF0.011830463917530181
aF0.006861424867820745
aF0.004132885422454557
aF2.3880127990459372e-05
aF-0.002049953398282953
aF-0.012056327454084225
aF-0.008365306168122486
aF-0.0014044931351422933
aF-0.011194620040978332
aF0.0021122696811688635
aF-0.013226597212568475
aF-0.003656408224486393
aF-0.0021893478191492444
aF-0.012868294797946413
aF-0.005377242108882518
aF-0.0008786947804945831
aF-0.006430996147984282
aF0.0008876997482421373
aF-0.0013004475219166767
aF-0.0061729105133229685
aF-0.0044192787676988286
aF-0.006752737709926675
aF-0.004183968951246121
aF-0.0006768856016717256
aF0.0015331677400212088
aF-0.0029498077783598137
aF0.0013877868347410385
aF-0.009201647676521586
aF-0.001850183416485878
aF-0.011133478249162729
aF0.0051286104988174566
aF0.0015954834231838926
aF0.003455176842266192
aF-0.007636044536912212
aF-0.00027637293622944444
aF-0.009767795521719778
aF0.00805332169541261
aF-0.0024384248303905287
aF0.0050713063865665325
aF-0.0018968766783238262
aF-0.0059274825757019145
aF-0.005827432771075678
aF0.005532232076131173
aF-0.0022768124896840594
aF0.004489178975306996
aF-0.014045515345131284
aF-0.008113478464791136
aF-0.0023897442172730863
aF0.004633181425259247
aF-0.007867610981317563
aF0.004531455970134251
aF-0.004498190782016239
aF-0.001572986067589784
aF0.006971645331999096
aF0.004353671335673734
aF0.006744252106583698
aF0.002327744913703708
aF-0.010460871068120539
aF-0.016849331341875363
aF-0.013432292392876247
aF-0.011973039330606386
aF0.0035333245454479923
aF0.0025659038699107385
aF2.2891429280052838e-05
aF-0.010320144313933466
aF-0.0026739054792900923
aF0.003196355882515659
aF-0.012233470500551912
aF-0.005428608355974665
aF0.010588282437347912
aF-0.0007942646192328048
aF-0.1963451450323996
aF0.007562811502476735
aF-0.21127492428416142
aF-0.20852595140149438
aF-0.19484687423763686
aF-0.1962806616731829
aF-0.18868344461858916
aF-0.1944928987767949
aF-0.18693111766631618
aF-0.19288594595319772
aF-0.19908398521366327
aF-0.21109659806558373
aF-0.20318405516102075
aF-0.19386236444499652
aF-0.19514225819125414
aF-0.19632370039693617
aF-0.19444507127062746
aF-0.20028628595702216
aF-0.20447760683466887
aF-0.1979785758961796
aF-0.1916994626301948
aF-0.2014419595128703
aF-0.1893821178978359
aF-0.1976928603766766
aF-0.19773620817307686
aF-0.19738190810153214
aF0.04800987439826093
aF0.002926612467746937
aF0.03554573026205344
aF0.03569909493277112
aF0.04872599153282661
aF0.0380177670746576
aF0.03539169664492977
aF0.04227597145483903
aF0.038110752996933006
aF0.035421060567521756
aF0.03836895861708116
aF0.04397830654885975
aF0.04191913410618084
aF0.03590903775060598
aF0.04776054980911176
aF0.036207494459951056
aF0.04496448850696424
aF0.039033187572608
aF0.03857898264642042
aF0.04577599948217723
aF0.03551023447613699
aF0.03741349886813194
aF0.04201208969123461
aF0.036408363330469234
aF0.038135381105377814
aF0.05047754296371018
a.