(lp0
F0.010405028872195611
aF0.004363181959748651
aF0.007260354663438208
aF0.00789454255292337
aF-0.0030634025278306184
aF0.010260436805501053
aF-0.010379758413665221
aF-0.0020399924212047863
aF-0.007874970412506396
aF-0.007179908520952416
aF0.010554856249604325
aF-0.005952400523750223
aF-0.007725656538893118
aF0.0045703343306702435
aF0.002073223954048934
aF0.004622637373249163
aF0.005226826060038502
aF-0.00984748042747365
aF0.00832941011098605
aF-0.007023210884490215
aF0.0014707557293725999
aF0.008340529347557255
aF0.004716964977583012
aF-0.009874071888339792
aF-0.00601120358095005
aF-0.003520094232470468
aF-0.005165640593654129
aF0.0036449504323885344
aF0.007596194716391187
aF-0.0026508438727348956
aF0.0026131958703584026
aF0.007002125184740218
aF-0.004737928629069245
aF-0.006485908308573126
aF-0.007632135131202557
aF-0.008071848354827904
aF-0.007411579818336387
aF-0.001176969068937478
aF0.005127424752502598
aF0.008059148682858945
aF0.0005509003188895237
aF0.005697297802853464
aF0.00026715990497419193
aF-0.0050619920827232
aF-0.005840577572794405
aF-0.005045319513612936
aF-0.006685926524405177
aF-0.0044658229125991225
aF-0.007589109524435888
aF0.0040442984128456795
aF0.01040486099608406
aF0.00164969675342627
aF0.008964458343323262
aF0.0014012173241555047
aF-0.007515307829045018
aF-0.008475968028767234
aF0.004204308010698147
aF0.0007286248336360406
aF0.003868604213629289
aF-0.0012838859385867088
aF-0.005089734143026429
aF0.003825466426960994
aF0.008997645602334292
aF-0.0045823783833730146
aF0.007308686208606697
aF0.004368926209182005
aF0.0011649565168442943
aF-0.00475022594355039
aF-0.002073738798597102
aF-0.002113576401512441
aF-0.006502287771746749
aF0.0012098337773103086
aF-0.007597241648967045
aF0.0075013143289639145
aF-0.004112588234943707
aF-0.0071630719331129055
aF-0.004613073633473334
aF0.0020817192291073513
aF-1.0668345883424902e-05
aF-0.007825079368540268
aF-0.005982342838007349
aF-0.005552844357327959
aF-0.0017122103590260704
aF0.005968290998367374
aF0.0020665601844766786
aF0.0038044511803484228
aF0.0053803736907707626
aF0.004352074146221008
aF-0.008858663372364434
aF0.0034624049206344806
aF-0.00892588895084178
aF0.005985222418290549
aF0.0016732398097693089
aF-0.002031136282465232
aF-0.007494624880224851
aF-0.008035866115758747
aF0.010729038494326729
aF0.0029927113284358943
aF0.006262129560969557
aF0.004328648793470273
aF0.004979646780914569
aF0.00023759268871363106
aF0.005269221162589172
aF0.0015766655329002663
aF-0.0007084942814460897
aF-0.004120428952735964
aF-0.008178421115047917
aF-0.0006511638619347351
aF0.0033134369920336656
aF-0.006043883253866648
aF-0.006542274548205734
aF-0.0037221298870232285
aF0.004557304711606472
aF-0.004430398857973782
aF0.005059758883400326
aF0.0060537035761451755
aF0.008127372143227916
aF0.005674063131516102
aF0.0037331216212510283
aF0.011045749349146265
aF0.0005905674782358068
aF0.008806322794175769
aF0.0018260131514304283
aF0.0013979498216146078
aF0.0028542610271274824
aF-0.004604797705502248
aF0.0022182431401457105
aF5.846042233816095e-05
aF-0.0026015856115850365
aF-0.007641346837040463
aF0.009425397026506601
aF-0.0037297300629898947
aF0.009709452273914588
aF-0.00626232584072943
aF0.0017469991263243906
aF-0.007798903876832295
aF-0.008320343949531033
aF-0.00843349096404133
aF0.0033203045903381118
aF-0.0027895688396032117
aF-0.0027980139850425057
aF-0.0034088677334401505
aF0.003860338710626063
aF-0.007496180970896297
aF0.006809677427618078
aF0.0005296748086859584
aF-0.005517700283005888
aF0.003456187976868152
aF-0.006601134189223565
aF0.005580510462096472
aF0.0059291966852478
aF-0.004621764188415778
aF0.0028134591416891933
aF0.005429135348497006
aF0.005545362016560228
aF-0.00891980178104913
aF-0.006479924742669801
aF-0.003998439493701878
aF-0.0032581553177108945
aF0.006733174768482943
aF0.0073580389786019025
aF0.004264418701184407
aF-0.0036391647440963465
aF-0.00210756717659718
aF-0.007902353977631704
aF-0.00714907102695274
aF0.0038634963120596534
aF-0.00556021472697278
aF-0.000735496083703029
aF0.008306799292809953
aF0.009999864309534486
aF0.005485071041334089
aF0.0058695312119738914
aF-0.00430632568155863
aF0.00115154381358616
aF0.0033826335444179243
aF0.003671914111915353
aF-0.0014867375434958903
aF-0.0004673461586158493
aF0.005552737539566909
aF0.008778527486917676
aF0.002153268116994461
aF0.0018075265401331466
aF-0.0019803375661031413
aF0.008033198761979743
aF0.002004000055017611
aF-0.0004990564550952836
aF0.010829323461581839
aF-0.0068612397567268
aF-0.004279322978388801
aF0.0009270192402404194
aF-0.011135197254475484
aF-0.004834741806578182
aF0.008607913577933524
aF0.0011169156924316856
aF-0.003446820586186167
aF0.0026417673053663188
aF0.004165254163679742
aF-0.007884460635328947
aF-0.007257935454235882
aF-0.004980887458779993
aF-0.002816311386844561
aF0.002660502623846748
aF-0.007247678435802518
aF-0.007481616890904435
aF-0.0076831842748511636
aF-0.0035999289354816657
aF0.004449132193904786
aF-0.002722265603647554
aF0.007142307952215087
aF-0.007240026852859366
aF-0.0050039359261156435
aF-0.005209861471187234
aF-0.008310683174244046
aF0.003957646347179545
aF-0.008121671266453336
aF0.001065959632892191
aF0.0006632560589037678
aF0.006586013938798102
aF-0.004056300566986646
aF0.0050911901883505415
aF-0.005333031707035513
aF-0.004539253332075229
aF0.008381584317729073
aF0.008073713506111654
aF0.009242004081678945
aF0.006763763621204489
aF0.0006103284284183306
aF-0.004973576101962959
aF-0.004780631527306945
aF0.00988968400991301
aF0.009698038462559115
aF0.00397722477069663
aF0.004751459094628935
aF0.009650368015214317
aF0.004244161323754096
aF-0.007490424271236444
aF0.006667913980750566
aF0.005564141099780334
aF-0.0066021208996883355
aF-0.00767980469702638
aF0.0031765237602139657
aF0.005689649768052446
aF0.0007206724874673202
aF0.00655061102280671
aF0.0026595361562263115
aF0.008082354939702212
aF0.004107574413189961
aF0.0005965615829866636
aF-0.008497899012965602
aF-0.003016485840871431
aF-0.006309881584219818
aF0.0031095112501327645
aF0.00846423269362919
aF-0.0003196157824564178
aF0.0027185189188689753
aF0.004709372641905948
aF0.00015704940285043924
aF0.007637875044973565
aF-0.00024167981921141037
aF0.006718388471780964
aF0.009873765308134563
aF0.0003591986318160021
aF-0.00467785616776749
aF-0.008852298512967677
aF0.001291961528646452
aF0.005633394408391074
aF0.0005253557767633935
aF-0.002611725584891845
aF0.003749297279613596
aF0.0058601897536509255
aF0.007829490071459678
aF-0.0005089085120216171
aF0.009225104228872398
aF-0.009141198603503781
aF-0.006872094264391252
aF0.006764386214514078
aF-0.007380872063489419
aF-0.0030234052034420257
aF0.0009506184082166526
aF-0.005417077630229174
aF0.008637355931168142
aF-0.003294126963145544
aF0.005297321538599759
aF-0.0031597477720174435
aF0.0037196786615645867
aF0.005210453119980554
aF0.005311750691099005
aF-0.009012673418667485
aF0.009459688930297045
aF0.006874455400611078
aF0.007335794603394674
aF-0.009050636673912496
aF0.004380561519454111
aF0.0067668341727795955
aF0.003491104954226865
aF-0.007054722469449371
aF0.006139800163897206
aF-0.0018357220354740474
aF-0.008537502542594342
aF0.0005719954126565568
aF0.006976561743356373
aF-0.0010365221090597198
aF0.009971618914410646
aF0.008713909087109077
aF-0.007176331802762629
aF-0.003195154709183724
aF0.006222342247913894
aF-5.109631667427316e-05
aF-0.0014543227615870175
aF-0.0032520408545390184
aF-0.005849283486792864
aF0.0019954006401175714
aF-0.0012420911767346819
aF0.004316172113257815
aF0.0013029312312464487
aF-0.008180866451654004
aF0.00654193063614318
aF0.005613152619575906
aF-0.00599231624739799
aF0.00673348178290519
aF-0.006238657886515789
aF0.009639851317569361
aF-0.002364830627640103
aF2.7216268659942646e-05
aF-0.009266776726966951
aF-0.009114142468381336
aF-0.0014345929205567113
aF0.0038229190817277996
aF-0.0026259623987831947
aF-0.003865145682583527
aF-0.0030140579802660277
aF-0.008195557868752368
aF-0.00026678361479340145
aF0.002517482764839727
aF0.004197977329064465
aF0.0030889489663310987
aF0.0010616001245135104
aF0.005489263137044802
aF-0.005182790921674098
aF-0.0007973574252128424
aF0.008129282864676176
aF-0.006388333739015383
aF-0.00052383410000605
aF0.010169544337712336
aF0.009734460905652435
aF0.010135287988498227
aF-0.0038074073277530166
aF0.008511508070672132
aF0.01057611978997516
aF0.0009417350012093139
aF0.008109425987238595
aF-0.006039623771026624
aF0.007467646317881685
aF0.0015655410689694562
aF-0.002431142655838527
aF0.004093609380657708
aF0.00030528754464285285
aF0.007518333325466229
aF0.005912991327599225
aF0.00402606133253805
aF-0.0031864933715137103
aF-0.000367039897829715
aF-3.6473333986563315e-05
aF-0.006995306381813469
aF-0.006562317781556174
aF0.006401759522113812
aF0.0037516551822375584
aF-0.00839784862592718
aF0.009923450163144063
aF0.00905311715811948
aF0.005136733778054378
aF-0.009160497599361392
aF-0.00992946451353884
aF0.0025855475579491154
aF0.000987846772396079
aF-0.002709084011010636
aF-0.004783217139091243
aF-0.004099532950310932
aF0.0005644139705338931
aF-0.009333886976141582
aF0.0050230058323165756
aF0.003027509808411831
aF0.0007925499272576562
aF-0.008694197669116598
aF-0.005594960490335214
aF0.0008726860678041788
aF-0.005049394318977795
aF-0.006171512181240635
aF0.0007735524718772304
aF0.00909454284878856
aF-0.008245481182800232
aF0.002047993864023565
aF-0.004484434425878732
aF0.004138640700126297
aF0.0065570310047886465
aF0.00020256361758902626
aF0.010612370459566103
aF0.004775856152989306
aF-0.0026785885878526164
aF-0.003155631526441395
aF0.007439012380033772
aF0.008913493491204905
aF-0.0014382627272838747
aF-0.0071921706837703055
aF-0.0049495941396129825
aF0.002588871118859419
aF-0.0037134309149232238
aF0.0018952252227042022
aF0.00744377117523236
aF0.0019090635597248961
aF0.004082388454566266
aF0.003122282619591278
aF-0.007343215586107203
aF0.0040879723339371215
aF0.00848857135923957
aF0.003459612979607377
aF0.007550713170676541
aF0.010182735774389775
aF0.002250304537402599
aF-0.005025123424552685
aF0.0008939458957382479
aF0.008423846847522438
aF0.009884017738563507
aF9.195941101442562e-05
aF0.0073389865004574156
aF-0.005142549168696117
aF-0.005365798918850233
aF0.0024370109635451524
aF-0.0038679450725770553
aF-0.009188983770994181
aF-0.00630999905853993
aF0.010775317150653602
aF-6.444190202685549e-05
aF0.005097101391165123
aF0.009675202718207902
aF-0.008514472556901286
aF-0.005834583194218534
aF0.01069520491089471
aF-0.0076457325126965394
aF-0.0071036470363212215
aF0.005726157977941988
aF0.0058995484283273225
aF-0.002738857598124524
aF-0.007274526164779001
aF0.0027717421469349137
aF-0.004407325226963803
aF0.00622240286025654
aF0.009474537407416283
aF0.0037801455646659533
aF-0.006893585176910219
aF-0.009437886052366196
aF-0.0015706419096090224
aF0.008838655165424023
aF0.0025886268383556042
aF0.00208883482744716
aF0.003162935786874967
aF0.006874227980890071
aF0.003852737569752453
aF-0.0017019263763487914
aF0.004777967847990905
aF0.009083129961410225
aF-0.009543120545524152
aF0.0033870677468865514
aF-0.00444190165109878
aF-0.009765999893603616
aF-0.0016375336177346397
aF-0.004617297802969184
aF0.004657274065798934
aF0.0025493285064115607
aF-0.000978577778823182
aF0.006780443633238568
aF0.007602475676353026
aF-0.008665698155660467
aF-0.0010126561762693444
aF0.012031368296506306
aF0.004375007762606591
aF0.0005130147059023305
aF-0.006004542830505651
aF-0.0010829421760013998
aF0.002327909662285286
aF0.0009198382643908264
aF0.010400948843558511
aF-0.0010417586608433135
aF0.003734666058693023
aF0.0068779179868036135
aF0.0008610364986608291
aF-0.011398142818430306
aF-0.0028130474782501204
aF0.010231656618840446
aF-0.0011188503229265382
aF-0.0005182217669057822
aF0.007017448518823184
aF0.004064041501382816
aF0.0014580330170231677
aF0.00012045122514117474
aF-0.0002293153004246293
aF0.002697710977920621
aF-0.00426827468387228
aF0.005246492564312375
aF-0.0037329309639480652
aF-0.0042032446070846925
aF0.004026151119877747
aF0.006258448837762689
aF-0.003186831115563441
aF-0.005645118489127726
aF0.00796820415826157
aF0.0015095540017253392
aF0.00856574993196546
aF-0.009537949853733022
aF-0.0056911066151205105
aF-0.0036449782621537363
aF-0.004016956781942834
aF0.001967924813572332
aF-0.0006655499046903171
aF0.00931043815752939
aF-0.0022229866096968895
aF-0.003360279393389657
aF-0.009174166112000547
aF-0.001576764354449525
aF0.010614416014592638
aF0.0043075188429598284
aF-0.0006899513468068259
aF-0.0002589287607575272
aF-0.0028903706865019124
aF0.001077899041248707
aF0.005026942817799058
aF0.0024260801136994758
aF-0.0038060279440579603
aF0.0010587004015357527
aF0.010794025085261979
aF-0.0018023591863848287
aF-0.002091508750712567
aF0.006424525369953998
aF-0.004455724550239902
aF0.0002575052024394642
aF-0.0019898937811507564
aF-0.004280598726958868
aF-0.006407049278855182
aF0.0029869107269378387
aF0.0008715211811867621
aF-0.0037540868458356682
aF0.007974425167815763
aF0.004977630256153886
aF-0.004664244726171815
aF-0.005378850988041737
aF0.00286184245238952
aF-0.0004835136886453288
aF0.004089634004430711
aF0.0007479065377696702
aF0.0032695551641810996
aF-0.008725760428055609
aF-0.005918875743287857
aF0.004600640820877407
aF-0.004186091439763154
aF0.00662373093442941
aF0.00775844497303122
aF-0.0033498288204376666
aF-0.0031544818773827335
aF0.00455052486459959
aF0.009575985029428287
aF0.0008991375878087296
aF-0.0033909333563889527
aF0.010342259441303006
aF0.007518678085116437
aF-0.0006427381105487096
aF0.007483589136286103
aF0.0007160396337738736
aF0.008811237291820246
aF0.009272241786219227
aF-0.00033215680212807567
aF-0.0035289901455526976
aF0.006698383712608965
aF0.003779157513723359
aF0.007812399990490685
aF0.007002674739692444
aF-0.007624568535424699
aF0.0012254406515731378
aF0.001996108777489587
aF-0.003979545139328309
aF0.006050253658713714
aF0.009028287389677809
aF0.008139358632997093
aF-0.0040387038076847796
aF0.002698451223476421
aF0.0034249359681182306
aF0.001318185351969692
aF-0.0063970100989556074
aF-0.009046402694605379
aF-0.00624688256339845
aF-0.005278647370431857
aF-0.007333357352268457
aF0.008884827859441065
aF0.002132648536699053
aF-0.0015710205160269772
aF0.00937416990937348
aF-0.004632759997134774
aF-0.006732426147618455
aF-0.010805680926929202
aF-0.0005356590291747184
aF0.001711776235293998
aF-0.006085902653222242
aF-0.0025085285248763987
aF0.0024805102479022053
aF0.0018891439625000766
aF-0.0038953643341426377
aF-0.004384945393367594
aF0.0005722917529197976
aF0.0007909463046110069
aF0.005241637369186135
aF-0.0011662250257122135
aF7.108072715694545e-05
aF-0.005363110022467584
aF0.002953187893665372
aF0.0046258547771367425
aF-0.004726269093303351
aF-0.0015985992896948562
aF-0.007141042285251016
aF-0.005442305769939327
aF0.003506855830630948
aF0.009844536899894948
aF0.006367282417612726
aF-0.0014910039186456843
aF0.001247219969855484
aF0.0033104315724869597
aF-0.0015190978009289816
aF0.004855149473099236
aF-0.006751853138144128
aF0.00271197349628527
aF0.00979788172347735
aF0.005883635131702666
aF-0.006885439605258911
aF-0.0008675692462734734
aF-0.001266561325287813
aF-0.004388155636172767
aF0.001490715387431612
aF0.007830329889962195
aF0.004585132396618813
aF0.004270503319804577
aF-0.006952166175113081
aF0.003174057720201613
aF0.007753492849705001
aF0.00851409313863072
aF0.0005407682342800983
aF-0.0006726154506369791
aF0.0011752605899807843
aF-0.002690240773997307
aF0.007384076926137363
aF-0.007239876501501492
aF0.008551546434921528
aF-0.0019710280847331637
aF0.008202055083550928
aF0.0036982568861996046
aF0.00025252491139409557
aF-0.003354816141365243
aF-0.0032597099128033745
aF-0.007825588285544279
aF-0.001771512615480472
aF-0.008365161593513986
aF0.008729265589739509
aF0.0011076879405922063
aF-0.0016001659093551426
aF-0.0013298633184657196
aF0.0019777155722544414
aF0.005639488112829882
aF0.006274064001758317
aF7.17624730683813e-05
aF-0.00013406692779782247
aF0.00894429506067826
aF-0.006069262985177588
aF-0.004635157268257314
aF-0.007598874182711024
aF-0.005279325987701299
aF-0.006833217229240565
aF-0.007857064570848822
aF-0.0068201590628651915
aF-0.005961028873920398
aF-0.004334894428019596
aF0.009191632351830839
aF0.006995247020671616
aF0.005209907570572133
aF0.002844076976306345
aF-0.0063917458604012345
aF-0.008475597358182818
aF0.0036184711926452624
aF0.005446822081938268
aF0.0021057844048551766
aF-0.005928379608232105
aF0.004598335008875028
aF0.007155380296206098
aF0.004184625571071785
aF0.005778921051139874
aF0.00867405827184051
aF-0.008000671615532378
aF0.005623706415273896
aF-0.007015088184489749
aF0.003267273591740924
aF0.008004831730842113
aF-0.0025447143379708995
aF0.0014888753915263692
aF0.006338536277006582
aF0.006083613439558017
aF-0.006116765151519456
aF0.0016253201706471362
aF-0.008661701063653134
aF0.010592906970237568
aF-0.009174440526065706
aF-0.007416054751022893
aF-0.003625597999011237
aF0.007931691444066916
aF-0.0009986964121759339
aF-0.001594203359482127
aF0.0019029841712683853
aF0.004302205647024306
aF0.006236329903219061
aF-0.0010129917599097243
aF0.0055080555122703784
aF0.008417218136285057
aF0.0062026284685494665
aF-0.0002169673482360601
aF0.009028395508360291
aF-0.006469256783460684
aF-0.004818057338452206
aF-0.003593254674087105
aF0.008150136631923368
aF-0.006031184658174802
aF-0.0009506880649219041
aF0.006020767324721437
aF-0.0001716951996371674
aF0.006060821004793892
aF-0.00829332852083265
aF0.0054358276349508895
aF-0.0034307707686667757
aF-0.007159044537504688
aF0.005639831210582795
aF-0.006275790114221065
aF0.000966463975619232
aF-0.003867303609445012
aF-0.007148690624824778
aF-0.0033607629009196915
aF0.010119209805053814
aF-0.008883541447707095
aF-0.006989305776893944
aF-0.005778491305609426
aF-0.0016110864556372249
aF-0.005193824862766686
aF-0.009519629797151218
aF-0.006044832926198204
aF0.007589811217756057
aF-5.0194678523079236e-05
aF0.002050057705553318
aF0.0060001741449721155
aF-0.005999556824874505
aF0.005205567670370851
aF-0.003159603755483845
aF0.007195220109345312
aF-0.00851513509519328
aF-0.00913029550968292
aF-0.0003696203160439993
aF-0.004711617466375258
aF0.0016634818500633514
aF0.00597780126811135
aF0.009261632827144426
aF-0.005523176827201138
aF0.00039780809329926364
aF-0.0015105412566701211
aF0.006719669370996154
aF0.009657643681391822
aF0.005207362042727266
aF-0.0009558261372228835
aF-0.005770028048438373
aF0.01223457899363917
aF0.0007893313199415688
aF0.009466230294327799
aF-0.00544329477178636
aF0.009513955377725264
aF0.0005770832749427122
aF0.0037491886998300508
aF-0.0022905683808879065
aF0.00723539557276798
aF-0.002913554415732139
aF0.0014413889875981236
aF-0.00258993276337537
aF-0.0004883593418482608
aF-0.003367761910970781
aF-0.004600724670543271
aF0.01008668952709933
aF-0.006564633800165311
aF-0.005195681350853317
aF0.002526156264779874
aF0.0034395046017162974
aF-0.001938194414438202
aF0.003137661382458442
aF-0.00467673520452864
aF-0.0017348874265779154
aF-0.007241439128798058
aF-0.005095058619958386
aF0.004759444493820502
aF0.004831670428019261
aF0.004868636632891249
aF-0.008021104422449478
aF-0.0039875015068505095
aF-0.0009942986414137544
aF-0.006102941003035439
aF0.0003247240393128212
aF0.008472630426444376
aF-0.008377472665640403
aF0.009986495804584824
aF-0.0029417312433693706
aF0.0005076844723508261
aF-0.009735314538366102
aF0.0020906294170318076
aF-0.0026009754643181154
aF-0.0043134921468935186
aF-0.0060298426729739505
aF-0.0036145957966658504
aF0.008513578993462287
aF-0.0023666101654496834
aF-0.005617508552188719
aF-0.007775468085879949
aF-0.0017971221312758706
aF-0.006969764310718333
aF0.0044956891323379156
aF0.008554171265660408
aF0.0007214455811548261
aF0.008803343425958085
aF-0.004621576056410458
aF-0.0032377856373094023
aF0.004321733919011765
aF-0.004758828878972461
aF0.004272224946813775
aF0.005870731222456998
aF-0.0026898704943019757
aF0.010184877405695465
aF0.002150866787951465
aF-0.0017280660632861852
aF-0.0017391160560034553
aF-0.006699679791426826
aF-0.0021113113584996686
aF0.006989125796645315
aF0.0010004338715997895
aF-0.00033323404165526904
aF-0.006212086606095656
aF0.007975596809624806
aF-0.008813383230076452
aF0.008504809195179899
aF-0.008550493881368394
aF-0.007372143291266016
aF-0.006158590485907065
aF0.008727886288017867
aF0.0028004646401925794
aF-0.008560048508764288
aF-0.004760933822122964
aF0.00759910206373903
aF-0.004381976879728008
aF-0.006046913214545119
aF0.0060076452497326354
aF-0.002699988815012599
aF-0.004111386257389196
aF0.0015789806844371912
aF-0.008410476648872896
aF-0.00016704157859371
aF0.0021629558636938207
aF0.009664647382872446
aF0.0004603369460138095
aF-0.009151859963912002
aF-0.006820373581150617
aF0.0041541028788219725
aF-0.007324125584094706
aF0.00467666770743105
aF-0.0006250544993578916
aF0.0038875592822251097
aF0.00250275009469364
aF-0.002401556875643485
aF-0.0001411579848483276
aF0.004519861919491059
aF-0.003426145607926617
aF0.002693837278232363
aF0.0007919789649289078
aF-0.005286888093720859
aF0.0029988015479856544
aF-0.0010166912603030418
aF-0.007486606027867253
aF-0.0005573988747413384
aF0.008458760253305166
aF0.006764568424434154
aF0.005254363101000656
aF-0.007379346673640411
aF-0.0044011795381808235
aF-0.0005890613183415366
aF0.007789408333958543
aF-0.003390775267385758
aF0.007805647839990285
aF0.004208009096002214
aF-0.002512460474816764
aF-0.0018952986690113213
aF-0.003114243420736332
aF-0.004564420664101065
aF0.0005264676606498753
aF-0.0024508424899112096
aF0.00028914777042815363
aF0.0044294221115462
aF-0.005313361279191702
aF-0.006062095827931789
aF0.0011468086661955757
aF0.005022091877307519
aF0.006366782824401304
aF-0.0022815722159993525
aF-0.0011795456527621123
aF0.005284424516655855
aF-0.0030309808812313183
aF0.0009603494349494758
aF-0.0015487587439705686
aF0.003432246930961966
aF0.0030835487806844778
aF-0.007107223956922155
aF-0.004677305385317416
aF-0.005249482605704327
aF-0.006198538514266228
aF0.010019548738104596
aF0.0024014163124942037
aF-0.008316700946013156
aF-0.002085777901703135
aF0.007735618800940176
aF0.006765863155940277
aF0.002209857623919194
aF-0.004764111614083677
aF0.003513391013101427
aF-0.0019994561721149036
aF0.009901977191832757
aF-0.00654489356470166
aF0.0023175675270422674
aF0.0026567289371953024
aF-9.31264603420761e-06
aF0.005362036537094608
aF0.008354842346007607
aF0.006122909372227466
aF0.00246567693648757
aF0.0009912717518279004
aF0.0034011679054442062
aF-0.0037144030577604304
aF0.007481856308418534
aF0.009673279716183118
aF-0.005975622306638085
aF0.0008678549804084136
aF0.0029219657657963594
aF0.00926430059014534
aF0.008593292599749381
aF-8.55472923394447e-05
aF-0.0061453972102484605
aF0.007818265258130147
aF-0.002956017577294227
aF-0.006964155744523823
aF-0.008928095659003705
aF-0.001436845970773243
aF0.00568804882761171
aF0.0050610246458123965
aF-0.003621462134312632
aF-0.00896522958062938
aF0.0073141838154795556
aF-0.006887001688948766
aF-0.004744638875087204
aF0.003542543644694111
aF0.0040905627038510944
aF0.005281558486090574
aF-0.008162619281902303
aF-0.0051557917645268046
aF0.008012751894756809
aF-0.009083975420529567
aF0.0014516595936011076
aF-0.003587370700631287
aF-0.003659390630012602
aF-0.0008628911903141459
aF0.002574070476685606
aF-0.00046211213164654196
aF-0.008859871879630235
aF-0.009728449908264335
aF0.0018025826497207404
aF0.010525879498226674
aF-0.006735210872526819
aF-0.0007449400995519547
aF-0.004585685399148608
aF-0.0033017805261234745
aF-0.0030627283984488033
aF0.00274976445083121
aF-0.003921302292194992
aF0.0010482063187606868
aF-0.008745462903012449
aF-0.006571406757837021
aF0.008462101805249356
aF0.004582816026169611
aF0.0040547361869049895
aF0.010433374417778165
aF0.008948271311103838
aF0.0026705799156784378
aF0.007995131173576172
aF-0.0021890543766559887
aF-0.0026657617503068353
aF0.007611029402058304
aF0.006697235883954858
aF0.0029103038333773575
aF0.009459171368677468
aF-0.009564312397130764
aF0.0016520031407263997
aF0.008846142511703656
aF0.005548781663227938
aF0.0030500919973671194
aF0.006021079410770811
aF0.0015990920765257036
aF0.009995672095158436
aF0.007939813823080458
aF0.010076554748785462
aF0.0041752308156393905
aF0.00935639693332902
aF0.009665927860612137
aF-0.00909492040404365
aF-4.22904631600822e-05
aF0.0063252077521685785
aF0.006925810037786002
aF0.01009951371205977
aF-0.0067685804181029
aF-0.0035215100652369277
aF0.009185582894802138
aF-0.01066532180688659
aF-0.007179227120717688
aF-0.006151176278295446
aF0.002385807584986233
aF0.0010093214057410706
aF0.006567367589966343
aF0.003225793665049078
aF0.012507878220714062
aF0.010023022993190729
aF0.006253740951535506
aF0.011413165071563165
aF-0.004865005581338909
aF0.007962813701231891
aF-0.008539057843687872
aF0.0015928108550012595
aF0.00202269423291752
aF-0.006868051729774509
aF-0.003130886416520339
aF0.008721896165191536
aF-0.010181266535779337
aF0.004229188008502574
aF-0.006991268827926429
aF-0.0006409409785813688
aF-0.0020579408042390316
aF0.007464094309068243
aF0.0030601864416007116
aF0.009580760736106005
aF0.004901946481418489
aF-0.004480830980947535
aF-0.006625874719256765
aF0.006817383697124333
aF0.004025078173481156
aF-0.0031483385603116513
aF-0.006273236602844213
aF0.004835282634286874
aF0.005329163178764909
aF0.0015959708005426764
aF-0.002802585853777614
aF-0.0025959962709235424
aF-0.004079262836682443
aF-0.006101569002878653
aF-0.004372490482525894
aF0.009176339771166801
aF-0.003765930232919379
aF0.0006501209557520456
aF-0.00808709176536449
aF0.004366652592877501
aF0.0010402355926895312
aF-0.0005562757419249929
aF0.00044264952154799276
aF-0.0013135672815683488
aF0.0031321673297933996
aF0.004211089176836184
aF-0.005998485150642558
aF0.007330110748984721
aF-0.0064859816837374564
aF0.0048696124414897715
aF0.0034862188460756008
aF0.007855148961486192
aF0.011078524752607954
aF-0.006661941276408592
aF-0.007439344398979013
aF0.00708835923617509
aF-0.004637301116505446
aF0.002802003341615932
aF0.0030470852823816503
aF0.01006511184488499
aF0.007484732718697413
aF-0.0019469417978049373
aF0.004686507477292958
aF0.0015935862639832883
aF-0.002495548221161059
aF0.0017937102809117427
aF-0.009426198872886713
aF0.008295574603784972
aF-0.0014024703180918396
aF-0.0065578932231664805
aF-0.006519601523424059
aF-0.007663631226128473
aF-0.008104276108328623
aF0.0024969344915615928
aF-0.007366844347044121
aF-0.0022621862150107113
aF0.00860840928395491
aF0.011665679503788209
aF-0.0060653600804432516
aF-0.00852557572707742
aF0.010054511212648921
aF-0.009207059545396676
aF0.01739025557830757
aF0.02072848056686403
aF0.008837182588215135
aF0.01755133517785687
aF0.009171926419056613
aF0.002175267896210746
aF0.012294001842050886
aF0.002436123373570215
aF0.00296736514065387
aF0.014035307016679904
aF0.006897616138055354
aF0.006776915947315686
aF0.01784032247649537
aF0.01097351274681134
aF0.007407693053760239
aF0.006289396375322456
aF0.021850093397428015
aF0.01005411442888516
aF0.016057143695963637
aF0.008716091857410846
aF0.008040351439394751
aF0.021351246695649008
aF0.013165065133453592
aF0.005018655349638336
aF0.01455340838500422
aF0.013926446163407338
aF0.018785416011884597
aF0.015506234563478258
aF0.0037729050173618203
aF-0.10371632006375708
aF0.00821419218722236
aF-0.09953350684851575
aF-0.09436137801562325
aF-0.10859622446699606
aF-0.09179166373636181
aF-0.10616321317609319
aF-0.11082729189699805
aF-0.09488543507453992
aF-0.09628666119555984
aF-0.10443383396516175
aF-0.09538920474097128
aF-0.10205146134294893
aF-0.10795504529052002
aF-0.09141828799872227
aF-0.09146261139126655
aF-0.09721457196977992
aF-0.09943013398894582
aF-0.10333228368295067
aF-0.097649159178015
aF-0.09907615010648363
aF-0.10086820873465373
aF-0.10743818158989125
aF-0.09254199222220344
aF-0.09352487823174918
aF-0.10837317922899842
aF-0.10926723372311785
aF-0.1001863760268651
aF-0.10270991319883861
aF-0.1047932775940526
aF-0.10845638863429155
a.