(lp0
F0.010014469552130565
aF0.014791898102052514
aF0.015060301423135556
aF0.009312126495055752
aF0.0005247313117998434
aF0.007790263108582364
aF0.013668002785292375
aF0.028779579748691057
aF0.00933260954114424
aF0.0061243480926671335
aF0.004580965997658619
aF0.019135581411099074
aF0.02046327413612708
aF0.020850962455754685
aF0.026783962788495957
aF0.016182691828092278
aF0.015403665659080343
aF0.009403103425342368
aF-0.0060842687419651814
aF0.008382978278023
aF-0.0034070616054335395
aF0.0061853342328192056
aF0.016870239789059726
aF0.00624954480065279
aF0.01020145289315949
aF-0.0036710153753568824
aF0.01909495724401392
aF0.007703220073997433
aF0.014146693792892743
aF0.003276038320975814
aF0.013414938160590459
aF0.015694124957672237
aF0.003362543166692083
aF0.0029245919913526404
aF0.011337053865967506
aF0.015229230332697675
aF0.007422791043666254
aF0.01432481809655306
aF0.0059040797337349
aF0.011089171931036212
aF0.016430384374433206
aF-0.0031499336747833617
aF0.006215937699800058
aF0.003804155483843482
aF0.0241932977459959
aF0.013566963376681673
aF0.016609342122120417
aF0.007324021308064379
aF0.004869132431109533
aF0.01134532718445878
aF0.019232867346581497
aF0.02327509643173483
aF0.024960665843388387
aF0.021022972861100615
aF0.0009405055686065884
aF0.003749926795710222
aF0.005896603355178469
aF0.0035464383545246673
aF-0.0070858126429931756
aF0.014929950852563746
aF0.01599370436061181
aF0.007738371133935914
aF-0.0102838217935732
aF0.006038083201659762
aF0.0011061984054065409
aF0.0019664034135151503
aF-0.00426962490503308
aF0.01730475203038528
aF0.019150641579253676
aF0.009714727122260744
aF0.006101020162987291
aF0.008393599076888067
aF0.010719470606052682
aF0.006455465232792249
aF0.006023114723610876
aF0.020642330232794298
aF0.011081862346483964
aF0.016792548800715283
aF0.00784896692623825
aF0.011944051480708377
aF0.021507172298781137
aF0.028286818646423052
aF0.015571500744650722
aF0.013157064268470787
aF-0.00291812690931073
aF0.008960970526825278
aF0.017645836766086585
aF0.02234636081860783
aF0.026450541937270262
aF0.024931083675171772
aF0.015164483658105556
aF-0.0005604147763879838
aF0.0024554812094566285
aF0.0058424549856338215
aF-0.007953045907174727
aF0.005213847702564223
aF0.027776221221897823
aF0.01822897457550679
aF-0.0038749706976064363
aF-0.001031638403752315
aF0.004124913804315476
aF0.0026719099196885615
aF0.006575391363197035
aF-0.009138250763392365
aF0.007974694134724776
aF0.013218517692198749
aF0.013572933248259249
aF-0.0002255378247760509
aF0.008738056126025462
aF0.004679646891025951
aF0.005368791984092068
aF0.0025349043028459646
aF0.004577082600648541
aF0.016694845225944988
aF0.016341198666479404
aF0.011507770707620402
aF0.007213352098301136
aF0.011800782412927185
aF0.02299798526083627
aF0.008882647183127085
aF0.0166301196256598
aF-2.9343644054198245e-05
aF0.009750702432950729
aF0.024073711104420872
aF0.007210013834953358
aF0.026703132438315125
aF0.030090818110646646
aF0.013105016764047774
aF0.011550939526379748
aF-0.0027198497949950766
aF0.016938607537068155
aF-0.004244147297536234
aF0.001989347137582084
aF0.016044095165543486
aF0.018920168297950776
aF-0.004848057131132776
aF-0.006827101374426369
aF0.0028923376030582475
aF0.018028937821165117
aF0.00903756838020055
aF-0.009398523823493495
aF0.018036008750973984
aF0.006954143648474313
aF0.009153226941797002
aF-0.002678820668016956
aF0.004905983204174366
aF0.011073338849842698
aF-0.004606669035313146
aF0.00021614479627905542
aF0.022255963434738943
aF0.018244521556525645
aF0.023524620569158675
aF0.0001607945692125648
aF0.0020595468881704055
aF0.012298202972537017
aF0.010117401050471177
aF0.014685463802340582
aF-0.0005193054233541194
aF-0.0016361119224077769
aF0.001981607740279533
aF0.015154120136748914
aF0.021151293094934222
aF0.013883564632648015
aF0.02104650083949512
aF0.0196290465353276
aF0.006719066740014837
aF0.005160418397609576
aF0.007997462204394627
aF-0.010877696786310714
aF-0.007257015335629195
aF0.01994002541182177
aF0.016745472262585947
aF0.002101588105347844
aF0.004121154425217793
aF0.0008660712319557657
aF0.01555871116919129
aF0.010174912256469337
aF-0.005657531084327886
aF0.006050498695580481
aF0.015449031290313593
aF0.014551711302471477
aF-0.004129490783901756
aF-0.005719842313070627
aF0.00947649573180693
aF-0.002875596570338885
aF-0.21450207532966392
aF-0.0065230635726915304
aF-0.21067237532410898
aF-0.2077936452386008
aF-0.20687435008545035
aF-0.20328904934863767
aF0.20842018556798755
aF0.008552824357308987
aF0.20463957819863599
aF0.20900248745684272
aF0.21283738133664878
aF0.20662921983671298
a.