(lp0
F0.011435079686032197
aF0.00480164837623465
aF0.009475107242729226
aF-0.004603474044538548
aF0.0010000017297457668
aF0.0054835987364851915
aF0.005655456348925791
aF0.007400183597689543
aF0.004912950244363449
aF0.012665082108059144
aF0.00037615102939463334
aF0.004636611082110061
aF0.006750056792740912
aF0.011943690669667436
aF0.0020079279268665684
aF0.007868872443176043
aF-0.0015403501464736403
aF0.00520936127244805
aF0.002707415902148988
aF0.0041808039838004876
aF0.010138918665685247
aF0.0014828813177740312
aF-0.0032242313257867254
aF-0.004014075881996178
aF0.0035682922242888594
aF0.007775523920159855
aF0.009393693965780698
aF0.011220836712820466
aF0.012420759597188203
aF0.005481648351842406
aF-0.007314727743617305
aF0.008058864477864061
aF0.010175042305147331
aF0.0009593202815790808
aF0.01142924546606532
aF0.008627245860067098
aF-0.00877287054427697
aF0.012044784766169016
aF0.005849504450406049
aF0.004430644716998316
aF0.0014322485207074326
aF-0.0009475568263585922
aF-0.005500253507905126
aF0.01049528290088459
aF0.008820239902471154
aF-0.006435094117934279
aF0.002188814979147277
aF-0.0007556727427463993
aF-0.004249640407995929
aF-0.005355822658157526
aF0.009619989079032793
aF0.0034159234972673275
aF0.012375844942618718
aF0.004430428403809438
aF-0.002330059228117148
aF0.007275884971831599
aF0.01073783311312598
aF-0.00350226526506604
aF0.002194835577659446
aF0.0062889193006292355
aF0.003123997060839984
aF0.0054499191499693365
aF0.010480777776832791
aF-0.0025388386994536624
aF0.006030473811649731
aF0.004116669129022894
aF0.003678215323225975
aF0.006344052687043579
aF0.004234353912305378
aF0.0031308962619842323
aF-0.001721658646782056
aF0.0013320775250266082
aF0.007011578381355302
aF-0.008982997738494397
aF0.011105004183077097
aF0.00857334316195952
aF0.005339434428195412
aF-0.006337995781120757
aF0.004988151742334719
aF0.005888453660971297
aF0.0076412414015883225
aF0.013816281994863056
aF0.009206743863687934
aF0.0068939541311098
aF0.008044874078247128
aF0.008925896707765097
aF0.013711160787387117
aF0.00381028319383183
aF-7.369583192803485e-05
aF0.004993869856051782
aF0.005552492139005365
aF-0.004511648390982321
aF-0.004078729436393448
aF0.009770147540997316
aF0.008380185056162922
aF-0.00300442162801114
aF0.010621174083544847
aF0.007787731510615274
aF-0.004749272907908013
aF-0.0005736145126804687
aF-0.0016089419754908203
aF0.00730719172344574
aF0.005748031675394905
aF0.013245792380437663
aF-0.0009166907272419267
aF-0.0034177840822549165
aF0.00023390764709467463
aF-0.0068880296460262615
aF0.0035702676232540866
aF-0.004482593746682908
aF0.007734393150663045
aF0.013261001657329288
aF0.008950812687802706
aF0.0023044840210276825
aF-0.00754845415190299
aF0.002872957642286352
aF0.011056481133575505
aF-0.004030088548751888
aF-0.0008505514311766447
aF0.011497167204538484
aF0.004980997583590544
aF0.0004080585934413789
aF-0.004307922902539299
aF-0.00513131139444121
aF0.006613069297625636
aF-0.001047911163968054
aF0.008166719552210712
aF0.006592447208718153
aF-0.0055239238163439335
aF-0.007920561796293649
aF0.0036931284218564026
aF0.009059882309017853
aF-0.001962660022042876
aF0.0005690832761746729
aF-0.0060782520509269095
aF-0.004337869676842486
aF0.004331172040056545
aF-0.0013057346897506186
aF-0.004886424283281579
aF-0.00201517710606114
aF0.01216867514635717
aF-0.004938072841883528
aF-0.008296182271630247
aF0.007240560118639618
aF-0.008231008508601603
aF0.004702308937022422
aF0.009826470426604627
aF-0.010876300567789501
aF0.0003261009291854462
aF0.009873359228959752
aF-0.006133327260216913
aF0.004514891245757525
aF0.00629070418909921
aF0.009181809700409733
aF0.00454755167075286
aF-0.004363616079242129
aF0.00849248165202931
aF0.005882410484667398
aF-0.007097183377087488
aF0.00324445686085759
aF-0.0005981876202711236
aF-0.006434459359349692
aF0.007634321971652877
aF0.008679887806505875
aF-0.0011769134467858335
aF0.001601141340287849
aF0.009882334074000616
aF0.006842551043285957
aF0.008520780522841845
aF-0.005313125529177664
aF-0.0005443398138966857
aF-0.006980924270368213
aF-0.004938687751201595
aF0.0007014197867068541
aF-0.001128093378403556
aF0.008286882314460689
aF0.01245087628130186
aF0.004590155444492524
aF-0.009638609917149897
aF-0.005443965193884174
aF0.007604113106880024
aF-0.0034784794768903593
aF-0.006486313240989048
aF0.008277287112525
aF-0.007222912103203464
aF-0.004601293326284627
aF0.000799653903484463
aF-0.004809939544583451
aF0.000594830360845127
aF-0.003143773931003316
aF-0.0047008422200986505
aF-0.0015725895542259484
aF0.013921126907984022
aF0.011779034992320058
aF-0.002041191984526072
aF0.0025406763255035273
aF0.002062222497806461
aF0.012865708130134587
aF-0.0035941939888753183
aF0.001769408544148395
aF0.012267649802129386
aF-0.0005756334185174734
aF-0.010904844553467389
aF0.010292745363375475
aF0.009888137280387906
aF-0.004431207803718751
aF0.008664104896715544
aF-0.002829544395269245
aF-0.002241065711809438
aF0.008927831884165967
aF-0.0017627741867683865
aF0.005725798135210097
aF0.004905266375645317
aF0.011478078336361764
aF-0.0004780994657843671
aF0.003705176862152649
aF-0.0031243410002176767
aF0.007634810202722579
aF0.00459191845021833
aF0.001745495276833229
aF0.00925339909555476
aF0.002401435372583507
aF0.005607206659478211
aF0.01383985219125295
aF-0.003987721457300661
aF0.009518410898767983
aF0.012024703987901432
aF-0.0015425722418131178
aF0.004167149805363208
aF0.003390688228801916
aF-0.006079427908942683
aF0.00021803837371891415
aF-0.00018675302110319884
aF-0.0006811076210152878
aF0.01166507415239426
aF-0.0011912390557715904
aF0.006263334940048695
aF0.0031358768255960495
aF-0.0037850728648779145
aF0.0025960043399882327
aF-0.0012658078180801528
aF-0.0061168082562333415
aF0.005008133156544407
aF-0.005023167660243176
aF0.01161886432944797
aF0.007989350686402103
aF-0.0024364762517363097
aF-0.002608874492354466
aF0.008727669284669845
aF-0.001811532718125657
aF0.00019617343954247838
aF-0.0035973703819792207
aF-0.006012081961217
aF-0.003534453450410714
aF-0.00319891196648039
aF0.00938500586559307
aF0.0062170133933251515
aF-0.005831469419769151
aF-0.0008955530836494721
aF0.00819144438363709
aF0.002176963184098963
aF0.008302233698610042
aF-0.001755671574709908
aF0.001351733367978047
aF0.005831808128176541
aF-0.0031921794179825703
aF0.006852457767691479
aF0.006262530136384788
aF0.01065813766250964
aF0.004160353356375941
aF0.006624567047069369
aF3.8701364909055807e-05
aF0.006917197100847625
aF0.0014664265023115652
aF-0.0038033809202755037
aF-0.003399340046931293
aF0.0028033720337809027
aF0.006306002554538562
aF-0.00115108005094021
aF-0.006181881980279837
aF0.008077453517854556
aF-0.0021900007434448314
aF0.007423550247537281
aF0.0021320965766221276
aF-0.005077262235691949
aF-0.005261765071609235
aF-0.0015596278043865206
aF0.001304710535527254
aF0.002841572211412375
aF-0.005428275870351495
aF-0.010306718813196215
aF-1.5900496793541045e-05
aF0.008350338441293572
aF0.004237209705874987
aF-0.005888228752640991
aF-0.007885142245267106
aF0.002982957851446368
aF-0.001130945577528246
aF-0.0003739844190441999
aF0.003947257251235273
aF0.011604952540161046
aF0.004673920014570255
aF0.010833598268771224
aF0.0054914220672667245
aF0.0036575692064131364
aF0.014985376386546638
aF0.009885582963498306
aF0.008113491176839582
aF0.01012352956063788
aF-0.004468208434259562
aF0.012788451907835192
aF0.010360254044766934
aF0.004902314471728958
aF-0.004682655179430211
aF0.005198652092900772
aF-0.002938809507756925
aF0.004260159577496848
aF-0.0010130274112910714
aF-0.0005225622397257114
aF0.007495303802185627
aF0.0064480476586569364
aF0.0010746859396441807
aF-0.0028915200445255875
aF-0.0034853719906435435
aF0.001013128146414034
aF0.012134019280441694
aF0.0019155180523326557
aF0.008586905932695552
aF-0.001476813566644933
aF0.008946039166149862
aF0.012776333105660025
aF0.002202352518496634
aF-0.0007460451729771403
aF0.008214813627110563
aF0.007842668858243234
aF-0.0024273527390879512
aF0.0053628475688494055
aF0.001999360023856799
aF-3.9973342096366864e-06
aF-0.0024344425128197383
aF-0.002844947434691228
aF0.005532556878583556
aF0.012769393928458918
aF0.008678060819419667
aF-0.004918464279379842
aF0.006558961360660201
aF0.0038060192504271837
aF0.00483951023072643
aF0.007168744625238263
aF0.000373736384521854
aF0.002061805754597262
aF-0.008924219714751588
aF-0.002507003581690711
aF-0.005313839060098759
aF0.00499984518881417
aF-0.00047883172650305464
aF0.009141740111527664
aF-0.01072698823833082
aF-0.0010407832229894728
aF0.011885452578089657
aF-0.006163554115536101
aF-0.0034567837406685245
aF-0.001792481384383978
aF-0.002234758883588516
aF0.0005200936730383788
aF-0.002066765656604987
aF0.004020962039299239
aF0.011422907245741454
aF0.002107544489852021
aF0.00676164426898801
aF0.009483903925657703
aF-0.0022067247816118666
aF0.008168278436586811
aF0.01233358720828449
aF0.000499264273480246
aF0.006375866755984995
aF-0.004045356040054908
aF0.010264198316249582
aF-0.0019004718997993172
aF0.012972185439651686
aF0.004171498088118674
aF0.011953092138350942
aF0.0076757237477612875
aF0.008018817893296677
aF-0.002584267202597781
aF0.010892713933965929
aF-0.00033368102234001954
aF-0.0024949441196277827
aF-0.0032468886173994413
aF0.005809375685449084
aF0.008172301840193474
aF0.007083623292194242
aF0.013423887541790329
aF-0.006865431362746853
aF0.0004230187901239058
aF0.01274091344939527
aF0.00983399616653038
aF-0.001694804045095172
aF-0.0011301949110528967
aF0.0076008215158658325
aF0.003254657507703877
aF0.000581334089992554
aF0.009575110119249788
aF0.004078834879075906
aF0.003827614503737714
aF0.0021430198682616305
aF0.0032755979970023586
aF0.012897045581358147
aF0.0023259215867465054
aF-0.0029461689670742574
aF0.008393811299492569
aF0.0013646453578509844
aF-0.00434348919936006
aF0.010337634186772969
aF0.008935728694743019
aF0.008094484740010508
aF0.013563644792628452
aF-0.002846201376888388
aF-0.00044215082485568754
aF0.009433833070305042
aF-0.003431683785150695
aF0.003058684384049458
aF-0.002820101461701083
aF-0.004592561318140694
aF0.001094053490031081
aF-0.007064458678964175
aF0.01052835935136294
aF0.004203834180830636
aF0.0090421436182326
aF0.0013524790871946371
aF0.006659885171410527
aF0.0023086727775814327
aF-0.0014895359756868863
aF-0.0009896898775143884
aF0.006970730754892902
aF-0.003274268885117248
aF0.011915912001384163
aF0.007542941620422721
aF0.006667894646868762
aF-0.00903558854356712
aF0.006076430327198899
aF0.011742240633388405
aF-0.008776427990292017
aF0.003223873097834901
aF0.0041415937877493855
aF-0.0017376639786315009
aF-0.0006109872838564604
aF-0.002987234475012917
aF0.01124598680081319
aF-0.004480686626284136
aF0.007369596909168568
aF0.010625964858329333
aF-0.004963367488955243
aF0.004965416442465913
aF-0.007750706468360739
aF-0.0022410258679531614
aF0.0070646019505664626
aF-0.005524553971536593
aF0.01420878081566364
aF0.011938661568337639
aF0.005322086898049562
aF-0.0075399055701783225
aF-0.0029587108249245243
aF-0.00523580967329062
aF-0.0016596391834415524
aF0.0025561529556041972
aF0.00018283816426756748
aF0.010373136637012715
aF0.007614249911683755
aF6.0939348204503514e-05
aF0.006666859132374339
aF0.0022447543973112666
aF0.00042732942104999733
aF0.005098198319424891
aF0.00890167573685789
aF0.005143192640250507
aF0.0031658160126549267
aF-0.002711296772223897
aF-0.006433794841180777
aF-0.004329342269205439
aF-0.001696139605602954
aF0.007064753909689691
aF0.002862599679124669
aF0.004195919282024976
aF0.007499191036455715
aF0.01270984712465496
aF-0.006534646064755698
aF-0.0036222961707015012
aF0.005854888279817102
aF0.009771712417265764
aF0.001573248884118673
aF0.0046838056084045135
aF0.0011770905960696138
aF0.010793525533919079
aF0.011546590334587025
aF-0.001205535137364388
aF0.009636516450278241
aF-0.00805335284715553
aF-0.0073117571450592835
aF-0.008557326391132948
aF0.0028791341944041276
aF0.005190415439373476
aF-0.005035138888753447
aF-0.0032752690868350304
aF-0.0041994968141616205
aF-0.010008447988466512
aF0.00924697561632503
aF0.009270984420851272
aF0.007625246001912081
aF0.0058256752450179
aF-0.004017680553698004
aF-0.008509004363694075
aF-0.003567898477121498
aF0.004741904964774088
aF0.006720788176709161
aF0.009793012938326729
aF0.0014802841257266475
aF0.0015261982139318031
aF0.007251645100263578
aF-0.003369984244771739
aF0.01192733864777691
aF-0.007815205138191365
aF0.007091247783101874
aF0.012231455247642324
aF-0.002414316556546419
aF-0.003061500347855842
aF0.000940642423525821
aF0.00834319140951235
aF-0.008896601802661455
aF-0.00014490255463000265
aF0.007188606277215659
aF0.004270359585008131
aF-0.00420844583393485
aF0.0024683542732546263
aF-0.00043496199957611024
aF0.0021550469703873107
aF0.003605605498607417
aF-0.0015668340120987133
aF-0.002465829139999435
aF0.006286711314181758
aF0.006097842309134157
aF0.0004817642328191334
aF-0.007998148069116327
aF-0.005778740530887038
aF-0.004167399155201266
aF0.011743017045578246
aF-0.003935267932937912
aF0.010059631966639056
aF-0.0046554727016142015
aF-0.004657327108388228
aF0.008537481283077679
aF0.008325572241754385
aF0.008096334664778163
aF-0.002752335030996174
aF-0.0023129348649013615
aF-0.17455468923322426
aF0.007346303932544559
aF-0.1689163445273461
aF-0.18168404788854908
aF-0.16195267160690469
aF-0.1654452197117004
aF-0.1776366327873571
aF-0.16572742861118617
aF-0.17453169500100651
aF-0.1803851220095213
aF-0.16516615347395058
aF-0.1832396653982164
aF-0.16596922745501677
aF-0.16774755423305035
aF-0.1726964556785145
aF-0.162192950701578
aF-0.0859023124630149
aF-0.004656861027629695
aF-0.09253669650909027
aF-0.09766209188311249
aF-0.10107399462782272
aF-0.09245500555034046
aF-0.1017905883673248
aF-0.09835656374255247
aF-0.10053885012384606
aF-0.09816163824498603
aF-0.09364351317071291
aF-0.10018253418414852
aF-0.09209631645520795
aF-0.09920732968479279
aF-0.09213099414449391
aF-0.08525749168293559
a.