(lp0
F0.008227910333811615
aF-0.0077831302926182995
aF-0.0029557314518163878
aF0.000814955253476686
aF-0.007726454225513082
aF0.0063172494903259305
aF-0.0006210396022525992
aF0.01043629310176334
aF-0.005585747141154399
aF0.0077081519880844275
aF-0.0035349068279275685
aF0.0018719042139573505
aF0.0015193127890300356
aF0.010421238024736185
aF-0.008200785458195869
aF0.007443929856853239
aF-0.0033691866537193735
aF0.00801512411278227
aF0.0019903906472760234
aF-0.005775978499912292
aF-0.008807392813704249
aF0.008783283505217536
aF0.0096169829376945
aF-0.0026899582392172013
aF0.0024581284103413134
aF0.0003858148551612045
aF-0.002841220860810902
aF-0.0016638715540324759
aF0.009486114501295708
aF0.005230947313613504
aF0.0008313092572727868
aF0.003544580353823862
aF0.0034790017876383294
aF-0.004481676578916374
aF0.010033501720385281
aF-0.005984081663003269
aF0.006879173791519595
aF-0.00844293244567812
aF-0.006562214442594722
aF-0.0030378723418123476
aF-0.007302784100442151
aF-0.0013046831410551173
aF-0.009339968860607105
aF-0.001970997665160393
aF-0.0015985327971073542
aF-0.00723926284089213
aF-0.006904659455606943
aF0.0019278859240521814
aF0.0030785489139412317
aF0.006741480581344495
aF-0.006622959839220109
aF0.0011338969852328403
aF-0.0026418870129427813
aF-0.0015548004846254447
aF-0.003278699785702566
aF0.006154860106714449
aF-0.0042198522598851035
aF-0.004747693149244937
aF0.0025015549449644257
aF-0.005063404333083899
aF-0.005978729516511177
aF4.768142450801364e-05
aF-0.008660034534262746
aF-0.0007026754455169995
aF0.007279796574878271
aF-0.0058380408726911
aF-0.003377564880252439
aF-0.00045648922632488735
aF-0.004749301794607827
aF0.007854262274126122
aF0.007512163953035974
aF0.005713936286937708
aF0.009902906081786568
aF0.007535997362165406
aF0.006283865336306203
aF-0.0035144667427096537
aF-0.0033787158592328767
aF0.008054924943322498
aF0.006117819389268729
aF0.008723951707779119
aF0.0055392732090347035
aF0.009486053152686668
aF-0.00556447846970381
aF0.008706102559774387
aF0.010278939036295917
aF0.005235316258860553
aF0.010159457904551182
aF-0.006013635171709132
aF0.005963292576878446
aF-0.0011296551534570442
aF0.007890633390150994
aF-0.0010931867385568506
aF-0.004596386532904497
aF0.003045249821397692
aF0.007409392620006482
aF-0.007420941951848319
aF-0.006126018965559315
aF0.0074701599649156765
aF0.006294114610602769
aF0.007159617391009118
aF0.0106995585186667
aF0.003810212152416321
aF-0.004103616511526911
aF-0.007761509701444469
aF-0.0073344606995611
aF-0.006279068693783775
aF0.0020406709482826556
aF-0.007739942548468628
aF-0.00023455506988828104
aF-0.0022768106988733886
aF0.0074186872927051424
aF-0.0023501966825516577
aF-0.00831631526966784
aF0.003088810925239519
aF-0.008113297782467842
aF-0.00035920549026984374
aF0.000666255990153606
aF-0.007317354227732579
aF-0.00036203797389212087
aF0.0014891924942864918
aF-0.007362605613117754
aF0.00619128404159927
aF0.00345513028141799
aF-0.007497375385240153
aF-0.00878716230304593
aF0.00569807189895645
aF0.0011688204374228415
aF-0.007980773548481493
aF0.003304974122059115
aF-0.0032010866022600653
aF0.00989730931559262
aF-0.0074791897107760845
aF0.0007899768819921958
aF0.00929225365703629
aF-0.008169085471460169
aF-0.005467169893696098
aF0.005067558484255502
aF0.004757664625932453
aF-0.007814121832611532
aF0.0024550582421131012
aF-0.001693843646346308
aF0.003725775861431591
aF0.005714243824889154
aF-0.004611333944691631
aF-0.002646717886868306
aF-0.0038155026921426445
aF0.0017090752858108255
aF0.009303256597674748
aF0.0009320491180672527
aF0.0036940914122884348
aF0.004865972161356079
aF-0.002763270626513776
aF-0.004819732217603305
aF0.005516869979515203
aF0.004212215679684365
aF-0.0018258085286828817
aF0.0018234040320674908
aF0.0032768066558550744
aF-0.005504237161885067
aF0.00046207610027678564
aF-0.0012506012181541693
aF0.0026057533158246812
aF-0.006058559407538203
aF0.010503487026651768
aF-0.006743591298721329
aF-0.007993765828106401
aF0.005724022832138087
aF-0.0009665776907995812
aF0.006971859776719959
aF-0.0013763345859472212
aF0.005200312369834807
aF-0.0010049424790784624
aF-0.006328911109609442
aF-0.001652833050606104
aF-0.000548992710350359
aF-0.00927761496310045
aF-0.005740186963406959
aF0.006971152989964697
aF-0.007920242405293005
aF0.004540959283535941
aF0.0011684081218691156
aF-0.007057270864001848
aF0.008673661804542682
aF0.0035466054717457115
aF0.0008176775311321856
aF-0.004185283190519513
aF-0.0006671343408380914
aF-0.0061194492082044085
aF-0.0028281008685133715
aF-0.006733036417005438
aF0.005834760823926068
aF-0.00043866696532109573
aF-0.0036960296918780084
aF0.0006997337357900323
aF0.010233410760703531
aF-0.005213208772889409
aF0.0031467662380708175
aF0.010050095066786472
aF0.0073066235819153145
aF-0.00866890385559313
aF0.002205833517727289
aF0.0004907519848790609
aF0.009385085511586498
aF0.0032527981568517632
aF0.000496441277806535
aF-0.004713474061915523
aF-0.006394907853491285
aF-0.004531125589878211
aF0.001921299036122808
aF0.008082651837059045
aF-0.003721926582986599
aF-0.005338202539935849
aF-0.0062685376556836335
aF-0.0041039782224754524
aF0.006023952062248263
aF0.004783687894779616
aF0.0013846312681135464
aF-0.006319622723804949
aF-0.005078740682594083
aF0.009172328999592475
aF0.006520621172483197
aF0.005796183473002427
aF0.0008568502597086692
aF0.010398096607374256
aF-0.008409007050175957
aF0.007096866780485509
aF-0.004373649876905347
aF0.00941477995130817
aF-0.0034201458996511755
aF0.004470193944747809
aF-0.0003972216005281816
aF0.010429425757345193
aF-0.007314671821768042
aF-0.00031183120845531805
aF-0.00729860197543746
aF0.003537909680924249
aF-0.004739657251988878
aF0.009177121996503862
aF-0.009472924921158914
aF0.004022838438728622
aF0.005237090701537062
aF-0.0003141608473799603
aF-0.007477520599678404
aF-0.004349772937627343
aF0.009997080634624785
aF0.00915340757184609
aF0.0021914922331777945
aF0.008077370042905332
aF-0.0070277859591107925
aF0.00486656419828476
aF0.009543997671353905
aF0.0058079068406411355
aF-0.0015883017990665086
aF0.00729029333799483
aF0.010427077594074411
aF-0.00392761682098635
aF0.0009131088988564566
aF-0.003887130450120046
aF-0.005380631863449805
aF0.0027737529501583743
aF-0.0019835055057897152
aF0.0022792917200902462
aF0.005264117416888084
aF-0.0066580823762282075
aF-0.0025714471093443952
aF0.007730762687111561
aF-0.004230795356522452
aF0.004164045488636878
aF-0.005857623955640617
aF-0.005394255031794875
aF0.005347768004227761
aF0.0011087947024591214
aF0.004849815968901537
aF-0.0032812980602435022
aF0.007901042546666223
aF0.008920958058061682
aF0.00807176048939959
aF-0.002796742344623988
aF0.007547344933594703
aF-0.0088083550887358
aF-0.00010622010491916772
aF0.0030277162311262264
aF-0.006601647806170523
aF-0.0013334758815983724
aF-0.004503428022200536
aF0.008535440653304648
aF0.004813737950361484
aF-0.0011779761387143315
aF0.010783946443172501
aF0.008017082363009955
aF0.00915323081812517
aF0.0031489092200558313
aF-0.009304013733583858
aF0.0018576838492017252
aF0.00354817067080407
aF-0.0013542893448140415
aF0.00544609558911981
aF-0.0059610538294420715
aF-0.0023841888552519988
aF0.005535475206795224
aF0.004494614791083827
aF0.009812801795226202
aF-0.009861211034857197
aF0.005691609445781031
aF0.0027331330061584106
aF0.009389837093321543
aF0.0036973920085089916
aF0.010357300300473812
aF-0.00782401281220284
aF0.0066950747864205915
aF-0.006531840514757845
aF-0.0030571956804975294
aF-0.0031617792145362204
aF0.00438116246843975
aF0.005560077468387203
aF0.007929321284762104
aF0.0011809385180501421
aF0.0033479666829890568
aF-0.007104834003556331
aF0.0044009457068479
aF-0.006258331476545073
aF-0.001252192744278437
aF-0.00022275609902719818
aF-0.006378501324633236
aF0.0023687209971076342
aF0.011087679035548845
aF0.0019058652425168066
aF-0.008168383433666328
aF-0.002619427120624883
aF0.0033125740982549775
aF0.010489954568229903
aF0.00825507167606415
aF-0.004247510086392318
aF0.0033447553275687235
aF-0.00324623517800656
aF0.004026846813465613
aF0.0030269131982746653
aF0.010335829756814054
aF-0.0037001157988310867
aF-0.007951460935639016
aF-0.007557351056849003
aF-0.005117637387332198
aF-0.004054058355791292
aF0.0028023594681512894
aF0.006603535200055009
aF-0.0030288788067502443
aF0.009083525407413758
aF-0.003301520578817906
aF0.0020516247550235473
aF-0.0007819985769475018
aF-0.006425609567795981
aF-0.00884900078894982
aF-0.00235817312194842
aF-0.0017075469539159327
aF-0.008485262151250514
aF-0.007870169763247874
aF0.00798233854097284
aF0.009052914738941237
aF-0.0032715031629795372
aF0.008783068780112386
aF0.0012446611214661652
aF0.005824696521209609
aF-0.00133599155324234
aF0.008356879883914566
aF-0.00171942681271235
aF0.005796265881539225
aF2.3134787530982442e-06
aF-0.001433527080272728
aF0.004878549091747231
aF-0.009641852911925236
aF-0.007580834590173971
aF-0.006166248761393067
aF-0.0030911342788267787
aF-0.00497178908662491
aF0.009045146138959455
aF-0.008438525451062181
aF0.0025829987159787754
aF-0.00022829578481255955
aF0.005275265137299142
aF-0.008761519378091321
aF0.0038043458686654523
aF0.010604951506655087
aF0.009698729926174206
aF-0.005865697862201469
aF-0.0007812668582825555
aF0.005178701330886794
aF0.00817530997485733
aF-0.0012004549262876994
aF-0.005999708661492042
aF0.0011198321121327558
aF-0.0100334851085489
aF-0.006402069679202007
aF0.007616701621443926
aF0.001118858860329918
aF-0.0016714200793650495
aF-0.006175965063148737
aF0.006706325763827103
aF0.007101208198553245
aF-0.006946133118096322
aF0.00809585594429757
aF-0.0063973660752524595
aF0.008083270309366184
aF-0.0059722660074401045
aF-0.00864572179564721
aF0.0035260109502389773
aF-0.0012354805493085767
aF-0.0045513656927636025
aF-0.008022249541114
aF0.0036806037006096837
aF0.0012730587335106445
aF0.0013154832085929089
aF-0.004101896391907243
aF0.0010595530498914735
aF0.0074237574381499395
aF-0.004722939973696388
aF0.0030578101368434517
aF0.009286726665133048
aF0.0061373694979004224
aF0.0055168904094282
aF-0.00522652731190999
aF0.0025614023876828467
aF-0.009712234676208985
aF0.0040011742733566755
aF-0.0087919964478667
aF0.003048871669250792
aF-0.0009708630186826065
aF0.005703685937695309
aF0.002590196929671557
aF0.0030670422020328773
aF0.00931614406939547
aF0.002307066130938197
aF-0.005951040633752237
aF0.004831943671331213
aF-0.008651359126519554
aF-0.002058380581686586
aF0.00346486321668235
aF-0.001667169367725646
aF0.007235671260548002
aF-0.0078075390139083324
aF-0.000721267409087419
aF0.002841641358470575
aF0.0020565922873829264
aF-0.0003670975296855474
aF-0.004134267398965469
aF0.0058627709974300194
aF-0.0002464416587104113
aF0.0031460667309447673
aF0.0005184376140710369
aF0.006562983422632105
aF0.0062285566266564495
aF0.008514550142351446
aF0.00922989510822284
aF-0.00022242589624523287
aF-0.004743578625873571
aF-0.007043526188304258
aF-0.00047931399318625295
aF0.011285911457010162
aF0.007046603794358178
aF0.008999059261732174
aF0.01057295211443769
aF0.0063127045291205665
aF-0.0010286855870228415
aF0.004318991382365742
aF0.0030809183120667953
aF0.004289372181996525
aF-0.007604634059133102
aF-0.0030881438830535563
aF-0.0029510504964517957
aF-0.004847696105196679
aF0.002460114661668009
aF-0.0007022401070622558
aF0.0010655548536707233
aF-0.008562330399119909
aF0.004553713814338375
aF-0.0024744507722151733
aF-0.004196236459722447
aF-0.008074690354659443
aF-0.001980791209459638
aF-0.0025688887076323165
aF-0.00038612691326107493
aF0.00025764527805394725
aF-0.006608639758109812
aF0.004893321829868475
aF0.008572166822323639
aF0.010848233239919909
aF-0.0027415043152468344
aF0.006030284815468955
aF-0.008476777160122954
aF0.006149236434098348
aF-0.008778019747264674
aF0.00048344327361875186
aF0.007793001557110184
aF0.005139497281006872
aF-0.0027311847227466787
aF0.009135563265720978
aF-0.004928154135199667
aF-0.005761741857936028
aF0.002103244834762943
aF0.00161330854602414
aF0.000692940679005968
aF0.0007780409995471521
aF0.0016235663898998979
aF-0.00261705021792209
aF0.0033701903548675302
aF-0.006442721948082676
aF0.006785191291959994
aF-0.005631265467367602
aF0.008489117039461671
aF0.003960854698644776
aF-0.00022597669859289883
aF0.010923348335977348
aF-0.002456237365515328
aF0.0046816059145694585
aF-0.008492307709631743
aF-0.0025385906561542475
aF0.004121845946070464
aF-0.0070807604736628955
aF0.006519383572834288
aF-0.0028648154926950477
aF-0.007908792243749423
aF0.006835974486054339
aF-0.003842606694185279
aF0.008768991784897241
aF-0.007909220223164837
aF-0.0064950388600494655
aF-0.006772191103997895
aF-0.0006152964438260396
aF-0.003657177903306821
aF-0.003751028466090018
aF0.00386386388453461
aF0.005951163521894815
aF-0.003413652752969735
aF0.009048185869048202
aF0.0028023883106477127
aF-0.0002833457185595317
aF-0.0032733722020325115
aF-0.008723740286236252
aF-0.00871971557286863
aF-0.0035648279114076
aF0.0003796961165709583
aF-0.007525087848667666
aF-0.007815637094029838
aF0.006363352909682273
aF0.0010816770420682862
aF0.006271934264185176
aF0.005379012450641316
aF0.0002954417964813147
aF-0.007050352520099594
aF0.010679110123493341
aF0.01043852661806083
aF0.009021555962939852
aF0.008708989834302945
aF0.0010180985699168683
aF0.0030846427213730987
aF0.005377455962207747
aF0.006976391277666522
aF-0.003236836777741974
aF0.0037864470358756294
aF-0.007239383128989852
aF-0.008441738352873146
aF-0.004056002062618809
aF0.0003522380486714057
aF-0.007010904285721116
aF0.006093793057664568
aF0.0042129810265134834
aF0.0013323906723309844
aF-0.008174015402499816
aF-0.00021167824924322293
aF0.005821468120671032
aF-0.005160143867594215
aF0.003960934267287954
aF-0.0004065339860198511
aF-0.00853818813424195
aF0.0077939342004112785
aF-0.005253146435496743
aF-0.00037769834426474214
aF-0.009274357890980115
aF0.009853435143591585
aF0.008679058507649402
aF-0.007375170381269705
aF0.0053765094633298595
aF-0.00016566180992893468
aF0.009733652556617208
aF0.005766094555618415
aF-0.004942452180357051
aF-0.006899244533172294
aF-0.0004070722415517575
aF0.005871376764777154
aF-0.005764798731210697
aF-0.0044941229298558006
aF-0.00454663547377897
aF0.00928769310060804
aF0.0007256493483033843
aF-0.002824658147980345
aF-0.0023538653858262973
aF-0.00634627697770476
aF0.008930291363901612
aF-0.006610161113357293
aF0.003943597099054475
aF-0.0006580857440977124
aF0.003723753738933561
aF0.007188488282652601
aF0.008257160528912486
aF-0.0015507498484095177
aF-0.00010548685769376856
aF0.004820530083966666
aF0.001201072607908734
aF0.00812792322724187
aF0.007933596573002874
aF-0.009818926553394206
aF-0.007894419378646062
aF0.004848940396821671
aF0.003014457154284442
aF0.007863085455418807
aF0.00738891683822389
aF0.007404309449889886
aF0.0020004117430683773
aF-0.00547690485630015
aF-0.003006378998752039
aF-0.0064913614346876055
aF-0.006825945947865193
aF0.00454253302700942
aF9.312770624462976e-05
aF-0.0011657220014141788
aF0.008103299091338915
aF-0.0037536801731201464
aF-0.004959148312669822
aF-0.008019896156449205
aF0.005604709893965095
aF0.006853601673964058
aF0.007149893271210665
aF0.008243624659236079
aF0.005754306480678194
aF0.011030812472100858
aF0.0053736886462225015
aF0.009342297063580085
aF0.0038375275091042426
aF-0.008442857848116773
aF0.0020127428288034665
aF0.004988938297023337
aF0.005156330697291748
aF-0.007903064224507688
aF0.005972891997085706
aF0.0046319541607611125
aF0.00526242992861856
aF0.007081300866084776
aF0.005636914559135056
aF-0.003282189566138648
aF-0.0016918133690679749
aF0.008138603285384929
aF0.009189361445374423
aF0.00536915825684876
aF0.00036043413688612686
aF-0.0001514170561417108
aF0.0063280720390250554
aF0.003242588085746521
aF-8.333541893431045e-05
aF0.005552605019688124
aF0.002464057247628768
aF0.0020390155705159356
aF0.008217553183818003
aF0.004442257900063708
aF-0.005393402282677175
aF0.009764691387336736
aF-0.008241378944705637
aF0.009139894437140427
aF0.010385313421003534
aF-0.007301067251401839
aF-0.005220812269286062
aF0.009202238352436998
aF0.008841148953076756
aF-0.010302547345481106
aF0.007096925565911
aF0.010346448294678864
aF0.005419905460297092
aF-0.0025989977210357927
aF0.003637893163916708
aF0.007810974665280829
aF0.004049421305255741
aF-0.0007517963202273945
aF0.005499170335838592
aF0.007806339302956427
aF0.0023211802564856625
aF0.007587507865468036
aF0.004995918057074035
aF-0.0029579189010451377
aF0.009414376022467249
aF0.0010725677341397889
aF-0.008290447791782089
aF0.009689569545130151
aF-0.00043815074204376427
aF0.0015994571916335802
aF-0.0007163118872036363
aF-0.007021775246965797
aF-0.0021522073723936165
aF-0.007651265300846287
aF-0.0076943969331065626
aF-0.0028256190677759287
aF-0.0019157700788331187
aF0.002268905043289972
aF0.0075733522389533755
aF-0.006201142958814345
aF-0.006710375069470487
aF0.004081750262855514
aF0.00870533017676326
aF0.004911239423890768
aF-0.0012603567037546607
aF0.0012834298660128226
aF0.0016332059517659874
aF0.0015672733692915102
aF-0.007180495491117191
aF-0.005546237808600262
aF0.002093101926497567
aF0.007432747559355444
aF0.0022860382203099983
aF-0.007645482724309212
aF-0.005654623403191688
aF-0.008684666243679275
aF-0.004904626343654897
aF0.008661074930136542
aF-0.0013468105115198442
aF0.007862815677747815
aF0.008370085452753901
aF-0.006051848684555837
aF-0.003619725691010387
aF0.007415679316595909
aF-0.001412813441633484
aF0.002619366754101673
aF0.005868033691578928
aF-0.0007758415361089758
aF0.006590793849540463
aF-0.0032295023939935114
aF0.01063660705558541
aF0.001291685215156697
aF-0.005266384168929364
aF-0.005834428495223563
aF0.005834861213950949
aF0.0009775324151878905
aF0.00012102141888540446
aF0.0037080859256009855
aF-0.040761029170605215
aF0.008209787099474635
aF-0.046039285383860595
aF-0.04580101855431085
aF-0.027622516889326137
aF-0.02989712846778975
aF-0.03896109528805931
aF-0.04627191299171819
aF-0.04568285358505776
aF-0.04344264499530867
aF-0.03286948585254172
aF-0.02904024925600807
aF-0.02948988094317961
aF-0.0464548925578994
aF-0.03248115867630408
aF-0.03488273796514917
aF-0.038857427578155204
aF-0.04192851514116771
aF-0.04611591496531023
aF-0.046428557137983356
aF-0.030415693080591253
aF-0.10549692612844545
aF-0.009708995110567555
aF-0.09983267255914438
aF-0.10873704123906941
aF-0.09988777626254278
aF-0.11260891236924782
aF-0.0993485487197602
aF-0.11374246387415182
aF-0.1143548778595751
aF-0.11407344683228342
aF-0.11476050030839201
aF-0.10038367985618926
aF-0.11685431552553008
aF-0.10550018384295841
aF-0.11827092105687542
aF-0.10239586716259459
aF-0.09873353044550566
aF-0.10598196819764072
aF-0.11194290321631276
aF-0.09985778450532333
aF-0.10874216922343923
a.