(lp0
F-0.04902593498789643
aF-0.06234825138356984
aF-0.06623984807535059
aF-0.025644581144912595
aF-0.04328240907579013
aF-0.010899025306125205
aF-0.04109709578952901
aF-0.04815421069611279
aF-0.04706685600130893
aF-0.05757554240961972
aF-0.023056305243848194
aF-0.04299213342512397
aF-0.035040690609188976
aF-0.061355512932599686
aF-0.03868529019064494
aF-0.022681337431424694
aF-0.060972460106984844
aF-0.0037547418780613066
aF-0.03231927374839482
aF-0.0634667659666609
aF-0.045953567591902104
aF-0.017478133294472578
aF-0.07921516181295148
aF-0.02852568069495219
aF-0.024008672781049782
aF-0.004211248597611435
aF-0.023417250297396275
aF-0.04754745723992247
aF-0.054769840961016024
aF-0.0318284879007649
aF0.00323850433960457
aF-0.0750451681054784
aF2.806563525746162e-05
aF-0.014713968280063529
aF-0.060841809860596716
aF-0.03447167992624117
aF-0.012240509452004963
aF-0.03924378863342855
aF-0.07034013202142848
aF-0.07590471679414167
aF-0.018624632755132757
aF-0.034884126661659284
aF0.001438538791221286
aF-0.03698983294409392
aF-0.040879822457393085
aF-0.05866712371816822
aF-0.05298511335318134
aF-0.01678490214578925
aF-0.03405754625910005
aF-0.04016454487876103
aF-0.04759958422505017
aF-0.03540272970983053
aF-0.018955738046935046
aF-0.08192324510100345
aF-0.004209615062251561
aF-0.027040579895282628
aF-0.06310986458279562
aF-0.037736808376682265
aF-0.027594884783100227
aF-0.07287925285634819
aF-0.0273037647291674
aF-0.004881849334021785
aF-0.0027161444053403205
aF-0.03564001181511811
aF-0.032404169994543784
aF-0.03704441964728038
aF-0.021774199433200598
aF0.004237772807873098
aF-0.07276711911793875
aF0.0108572679969193
aF-0.0038550756070708757
aF-0.06975482991751165
aF-0.03263380646413143
aF-0.022512708928827833
aF-0.048687836507844466
aF-0.06440817671174298
aF-0.07375864089001773
aF-0.023730196603023324
aF-0.04701842056388722
aF-0.015164793640738515
aF-0.046033199736638795
aF-0.041542429404310785
aF-0.056651408434195055
aF-0.055928639152123615
aF-0.014185217042548996
aF-0.03246623472136867
aF-0.03537944147352853
aF-0.06459940973253682
aF-0.05267946765958792
aF-0.012447991059479179
aF-0.07043843451919621
aF0.008227241860850297
aF-0.026721521606123542
aF-0.060556891548124596
aF-0.035169688298572234
aF-0.02258147754440533
aF-0.08334883166593726
aF-0.02103784158683457
aF-0.018243782312115996
aF-0.015751878058988197
aF-0.03203900870735115
aF-0.03591068326532758
aF-0.0432563921534519
aF-0.021262744268197062
aF-0.01614153323447031
aF-0.07661658543533852
aF-0.0029967676141882085
aF-0.009182098924275845
aF-0.061360133891973166
aF-0.024313267153890993
aF-0.022196314110219297
aF-0.03788977408921408
aF-0.06299143323995929
aF-0.05806716070494622
aF-0.016680705134708786
aF-0.03988539038201784
aF-0.004313631628221388
aF-0.03556286202863729
aF-0.04672238744504181
aF-0.05001402883104879
aF-0.052332863479254255
aF-0.011050513722025073
aF-0.043791368454436624
aF-0.054262811485186746
aF-0.057644309793347656
aF-0.050377425272426016
aF-0.014386180885298356
aF-0.06851728338160591
aF0.0008878801413527155
aF-0.017197290346254262
aF-0.061562473347015444
aF-0.04861630679760823
aF-0.020476127268527943
aF-0.08563953463337919
aF-0.027905080838924255
aF-0.01175387497033637
aF-0.006387996634437967
aF-0.03653389146979785
aF-0.045098014327919045
aF-0.05513017824047796
aF-0.024143310935687196
aF-0.008603114361798003
aF-0.064214530533944
aF0.004134561519013508
aF-0.009945329693031756
aF-0.06026111553376898
aF-0.031052721920988884
aF-0.010479356832350713
aF-0.03807193184487916
aF-0.061219409637415484
aF-0.05954892651010818
aF-0.027865135450320398
aF-0.03696129447790275
aF-0.018147618635493183
aF-0.030681443252967497
aF-0.04224927857005351
aF-0.059310412957093835
aF-0.04364307231878209
aF-0.007538548164970757
aF-0.045767006969336624
aF-0.04023903544772043
aF-0.06040691418007358
aF-0.04236555718070889
aF-0.02474681539838556
aF-0.06563321546133989
aF0.005472392493315377
aF-0.03194970751153812
aF-0.048444974744028264
aF-0.03943275812431476
aF-0.017098988040752147
aF-0.08047545497795965
aF-0.020439029996897867
aF-0.00998139773120208
aF-0.007101961279126982
aF-0.03217073489977743
aF-0.044991863215490306
aF-0.050379390538396886
aF-0.022729652510789625
aF-0.011623995936916235
aF-0.06822882361590903
aF0.000681693449547981
aF-0.02144154768463251
aF-0.07029069141587577
aF-0.03202029367394816
aF-0.011729169075085191
aF-0.03543412487754168
aF-0.05302428346886249
aF-0.07440298976599302
aF-0.017530323586598444
aF-0.04518296535985388
aF-0.017499584102070746
aF-0.037097913937688465
aF-0.03798572893800538
aF-0.05431353730933531
aF-0.04882191457904552
aF-0.021705166066577727
aF-0.02757591968286248
aF-0.048139499490120384
aF-0.04760188036099112
aF-0.0482546513964978
aF-0.024705432839006017
aF-0.06342931163273689
aF-0.0032654714872296063
aF-0.02860047770109455
aF-0.05747381606493256
aF-0.03737271271590256
aF-0.03198410508923726
aF-0.08271357135021681
aF-0.025724315170125994
aF-0.0106316576387436
aF0.0015683118624591668
aF-0.04143195286767063
aF-0.04830280445721028
aF-0.044767706583523255
aF-0.02002863367251257
aF0.004303576537368852
aF-0.08267425682461499
aF0.0029035384463718256
aF-0.006358201749856908
aF-0.0649438683409533
aF-0.0343354360040039
aF-0.023994088917537442
aF-0.0361995325058459
aF-0.061712290947881616
aF-0.05938424263902241
aF-0.0276056829599236
aF-0.040953409623260655
aF-0.007712824546799733
aF-0.03886110197713408
aF-0.041261158671296365
aF-0.05077323787585227
aF-0.04812163580221969
aF-0.022452141765665692
aF-0.038330784425405544
aF-0.0516099203103801
aF-0.06210758731787127
aF-0.042039425487966395
aF-0.009253079620165078
aF-0.06827903689950043
aF-0.0026731325489286867
aF-0.02255647396537595
aF-0.05394669956380518
aF-0.040770674280403464
aF-0.033873577498172255
aF-0.08818891902385888
aF-0.01629088988602754
aF-0.00868979814825277
aF-0.010021617116881829
aF-0.029663798480668194
aF-0.037181482033356264
aF-0.045100055717647594
aF-0.03175927675301159
aF-0.004372591436446256
aF-0.0783739391890846
aF0.0015477867922285165
aF-0.018874445376849413
aF-0.06287918504638804
aF-0.02679907024784402
aF-0.014075020892073017
aF-0.044432445504808744
aF-0.061442052782628896
aF-0.07296878850055917
aF-0.01935684187165771
aF-0.032538496368102285
aF-0.022053901745443596
aF-0.044854849960277415
aF-0.04082180084587974
aF-0.05948245468306313
aF-0.052530853797912974
aF-0.021512273181063645
aF-0.03455812842563609
aF-0.04618088619877859
aF-0.06525467406229543
aF-0.039783177458091894
aF-0.009788068742874757
aF-0.07376127366076753
aF0.010081218043724121
aF-0.024979486639587718
aF-0.06214943016605883
aF-0.041383000447957945
aF-0.03429543661990067
aF-0.07136147198114301
aF-0.034678041692927736
aF-0.01687003945231595
aF-0.011263842607438257
aF-0.027987756634310395
aF-0.047641784261068625
aF-0.05199741098352863
aF-0.029278336985484522
aF-0.0029870079818331077
aF-0.06416784942841702
aF-0.010773814716489152
aF-0.012751464718995343
aF-0.07102050846636727
aF-0.03569698648885701
aF-0.01943793614804026
aF-0.0368808124001635
aF-0.0651016720413681
aF-0.0621727880597021
aF-0.02331701642721115
aF-0.049963730551739055
aF-0.010583500893365625
aF-0.03462097734282436
aF-0.040433512765071816
aF-0.055029440982457364
aF-0.049700244348463776
aF-0.011162100763528634
aF-0.04294598393980272
aF-0.04386440948438389
aF-0.05357548491732078
aF-0.05097815178167965
aF-0.02382993851529483
aF-0.07149479471389839
aF-0.00045614211377025915
aF-0.01819311688616653
aF-0.05402357918427399
aF-0.03365610264347839
aF-0.022596812468887565
aF-0.07810741771187656
aF-0.017766959964551972
aF-0.010680343189420032
aF-0.00906399494702858
aF-0.03132647158174914
aF-0.04641166522393957
aF-0.04626404263076252
aF-0.02744055222766226
aF-0.0066309375618005765
aF-0.07058677575273509
aF0.007361713560914167
aF-0.0056870404815915175
aF-0.06468682758701672
aF-0.022103848752251368
aF-0.016782484851890562
aF-0.046205578223044906
aF-0.06848669337046097
aF-0.06832723619505465
aF-0.02034145201130492
aF-0.046650856949345176
aF-0.012958344328919439
aF-0.041654484885087044
aF-0.05624704251625642
aF-0.04580830351647252
aF-0.0441916261972593
aF-0.009995998378850656
aF-0.03192680802958821
aF-0.039826308223486796
aF-0.049097562671829936
aF-0.04138122856097038
aF-0.014930766062475707
aF-0.06360360849463405
aF0.0018579409213279737
aF-0.023147141990562434
aF-0.049509697709014776
aF-0.03811415316315648
aF-0.016608471610320093
aF-0.08412369109458583
aF-0.01734557947366649
aF-0.006127157012157555
aF-0.008196066784670318
aF-0.03640139447595206
aF-0.04681089108333018
aF-0.05402071142930754
aF-0.02609971130001017
aF-0.0001168544383193422
aF-0.07339273771753368
aF0.0013959735555949628
aF-0.011345733257758702
aF-0.06960569556403144
aF-0.029157869290705855
aF-0.014530260699613912
aF-0.042747286308877044
aF-0.0711873754128047
aF-0.06139326632574217
aF-0.030062837153125545
aF-0.04148625411851585
aF-0.005759096963848575
aF-0.04745054248291222
aF-0.04925683350694268
aF-0.05621921927774976
aF-0.0545220232104295
aF-0.01742147311746004
aF-0.0352653383340161
aF-0.04405515113242721
aF-0.06612110370363682
aF-0.039523488372188255
aF-0.010384947487238734
aF-0.06735656225073165
aF-0.008421407770162419
aF-0.015817651644728502
aF-0.05930344284450599
aF-0.052256752021122926
aF-0.022241775198625087
aF-0.0891469365303041
aF-0.023932886724191388
aF-0.011391607210370669
aF-0.004448576692847615
aF-0.04144369607324214
aF-0.033881330109950446
aF-0.039362473246112056
aF-0.023876423312229195
aF-0.002762442330081433
aF-0.07903879882039891
aF0.0055389492118938285
aF-0.013202435446562764
aF-0.05714064078281946
aF-0.03409604012287349
aF-0.02667464330956542
aF-0.04222417166862769
aF-0.05625488306533554
aF-0.06766086785896382
aF-0.020275565826252284
aF-0.04439766363068234
aF-0.014644650736394026
aF-0.03006997357961546
aF-0.050875402231498924
aF-0.04889735696612473
aF-0.044830388398455115
aF-0.02234120751891958
aF-0.046623280517160144
aF-0.048308978537617946
aF-0.0532547764948105
aF-0.045876862815559555
aF-0.021661116256140457
aF-0.07314888085158976
aF0.002769203561246605
aF-0.03129956305491456
aF-0.0528334245754713
aF-0.04827367667335931
aF-0.02183327820922774
aF-0.07536482973873516
aF-0.01913704540329343
aF-0.011166699069632796
aF-0.009217892479323095
aF-0.02768190657774167
aF-0.03278047087586821
aF-0.0551113717385486
aF-0.02514568938139387
aF-0.010417602980586306
aF-0.07862267884134647
aF-0.00787292989848271
aF-0.015776354636059333
aF-0.06382259839686104
aF-0.026563198763383818
aF-0.00792869024622798
aF-0.03772597162090453
aF-0.06473514742887428
aF-0.06544245704791034
aF-0.02094377137009374
aF-0.045318866718274925
aF-0.00661174165949621
aF-0.038617336460973435
aF-0.03798837244580226
aF-0.05159193074725577
aF-0.047659234439461406
aF-0.006197541790389837
aF-0.041097554400717995
aF-0.04441707921001753
aF-0.05722970489915343
aF-0.03674294191991633
aF-0.011784800152857704
aF-0.080879215191743
aF0.0074543840195258485
aF-0.0294394104423168
aF-0.04837554827117292
aF-0.03737746477167079
aF-0.02513237311508647
aF-0.07018222599348546
aF-0.03141985543187747
aF-0.025237812882831924
aF-0.008633547340783258
aF-0.04090982725958404
aF-0.04452182170528644
aF-0.041520852601019884
aF-0.02351714633871016
aF-0.0009419569643292191
aF-0.08160630266121795
aF-0.004613386735488748
aF-0.014507415172892266
aF-0.07023216059974952
aF-0.018657286645685504
aF-0.015795985773109818
aF-0.042265944402458566
aF-0.07028231694354871
aF-0.06197833745447054
aF-0.015284766397035323
aF-0.044190429564553685
aF-0.0019099746317149812
aF-0.038926970628222646
aF-0.04717683788171088
aF-0.04582362521664887
aF-0.045754916184384084
aF-0.027807009118038496
aF-0.034649650655767486
aF-0.0524247546138755
aF-0.06763153015435446
aF-0.03942558183267254
aF-0.029540059607560325
aF-0.06797755490372277
aF-0.004465594435515126
aF-0.03226745035771417
aF-0.05770560376822583
aF-0.036431796141088046
aF-0.03286343533515364
aF-0.08657127641062666
aF-0.022366799004254555
aF-0.018797248515332085
aF-0.017144913053345756
aF-0.024593529306211094
aF-0.043618341835499855
aF-0.048563163482062556
aF-0.018506188453927236
aF-0.003794862136116877
aF-0.06294579523531056
aF0.004915828678735662
aF-0.007745332828212544
aF-0.05776559251869819
aF-0.027347896843926616
aF-0.017957402070551225
aF-0.04162552172985812
aF-0.060574338223838314
aF-0.0763459497681968
aF-0.01981520593249161
aF-0.04245855356408137
aF-0.011820572167799468
aF-0.042629835750437474
aF-0.04706830205823498
aF-0.05725500030638879
aF-0.050328991608688686
aF-0.026905777215904692
aF-0.04577862638301581
aF-0.050749911729625896
aF-0.05673420352469718
aF-0.03723453264932872
aF-0.009446811286022842
aF-0.07400826087563965
aF-9.727393902605476e-06
aF-0.014969834461374856
aF-0.06854101089616299
aF-0.06116308983050561
aF-0.03426326245054398
aF-0.07106686464222027
aF-0.037571976678272265
aF-0.023383050078075146
aF-0.009833258063981377
aF-0.03448182902667801
aF-0.04707981348406231
aF-0.052545414384588686
aF-0.02117272911318552
aF-0.008277476136316136
aF-0.06491797565385618
aF-0.012766277412628885
aF-0.01184707671269284
aF-0.06636245759648315
aF-0.026689484490479268
aF-0.02094856375102974
aF-0.030038459280572992
aF-0.05148449956260845
aF-0.06671691558418094
aF-0.02293634228649363
aF-0.043522955503836384
aF-0.01008791265354537
aF-0.034044873654895606
aF-0.0522654121326013
aF-0.05165911802212599
aF-0.05555708354189379
aF-0.01669860186443367
aF-0.032801028642736894
aF-0.04704778762286732
aF-0.04994674787109687
aF-0.04793253514522677
aF-0.0248416150988559
aF-0.06600949239825853
aF0.0012305895916423933
aF-0.027009530648731545
aF-0.05103352877677238
aF-0.036240356450679405
aF-0.02241370372872628
aF-0.07679214477069429
aF-0.026397775118133435
aF-0.0036759378184068256
aF-0.0028380076822787197
aF-0.03658381249677943
aF-0.041161985450609465
aF-0.05294190817061376
aF-0.022275158820348664
aF-0.0015464758714957194
aF-0.07504118362840556
aF0.010548762527444942
aF-0.01111228697954951
aF-0.06769647986452144
aF-0.01775283020702262
aF-0.017546732099914693
aF-0.034141105107476234
aF-0.061449750421423775
aF-0.061244935239718114
aF-0.02525452739273264
aF-0.04672323526423619
aF-0.005037425784178054
aF-0.03987768496764185
aF-0.05388219386178105
aF-0.05739149065158668
aF-0.039852177127735026
aF-0.025146166057639377
aF-0.04067553859829358
aF-0.041843484329308366
aF-0.06377853684992117
aF-0.039592807593445446
aF-0.02497617591367146
aF-0.07960482140465149
aF-0.0017316356814739157
aF-0.024184908496832577
aF-0.06315478121300053
aF-0.037317799995110056
aF-0.030364942964489154
aF-0.06947115743651394
aF-0.025891324743403984
aF-0.017251252992363464
aF-0.0024451009403135644
aF-0.037989019587918005
aF-0.04513457195139681
aF-0.03712748175643472
aF-0.020232311664885018
aF-0.0026491268999182223
aF-0.061759526514411765
aF-0.00814393163555199
aF-0.012473030190669891
aF-0.07523697488887836
aF-0.018402669202754803
aF-0.008426741003902786
aF-0.03107159839621411
aF-0.06588270961453274
aF-0.05061997036253618
aF-0.030239779047801778
aF-0.05338751577324116
aF-0.006608445376864029
aF-0.028690281104782743
aF-0.05645068915681247
aF-0.05608088345117109
aF-0.051165042556209565
aF-0.020131884811831213
aF-0.029207994909676564
aF-0.03240451673349824
aF-0.050471469320212625
aF-0.05052076817938142
aF-0.018680838420810586
aF-0.0726029060743433
aF-0.0025149234606605384
aF-0.017857715530615548
aF-0.06042566643122229
aF-0.03082204796017874
aF-0.014715628256280429
aF-0.0693666243901334
aF-0.005921897930854582
aF0.008189740750651897
aF-0.00999496116450187
aF-0.030699113093850844
aF-0.03767775230064085
aF-0.046549068035596136
aF-0.010720976967782353
aF-0.001353141143160457
aF-0.07271737940647477
aF0.0005961757213291155
aF-0.012125183123670214
aF-0.06622111404452344
aF-0.013923920887840566
aF-0.00811674624205865
aF-0.031254344401704805
aF-0.05423454782021902
aF-0.05960684722696338
aF-0.03072090365760993
aF-0.04303935537576005
aF-0.010733626208991225
aF-0.046758646149086175
aF-0.04420185920143123
aF-0.05025635920690303
aF-0.05707531021262313
aF-0.008471360503721029
aF-0.042521985522169584
aF-0.0512491333719918
aF-0.061334860337120704
aF-0.04656426438109397
aF-0.022685276717961344
aF-0.07331360354446345
aF-0.005628072671970611
aF-0.03405644856158272
aF-0.05404097035615472
aF-0.034389751748652074
aF-0.017996858448265506
aF-0.07294223154319417
aF-0.027732907161508658
aF-0.013576159243833716
aF-0.01267585106928826
aF-0.03603233271290924
aF-0.03976175480451077
aF-0.05324216892671071
aF-0.018781917189581117
aF0.0016974376321361446
aF-0.06908314593085715
aF5.821508771158108e-05
aF-0.018618332792315815
aF-0.058293452714647385
aF-0.019968476789627213
aF-0.021597043152510893
aF-0.037950419164187635
aF-0.055512018861199594
aF-0.06310688065947102
aF-0.022554026944025876
aF-0.03553129166795968
aF-0.006007984813595025
aF-0.03500475530572789
aF-0.04064960508378168
aF-0.06238520255446079
aF-0.05461840129634186
aF-0.010354878331518056
aF-0.03833033551097684
aF-0.050778372399733575
aF-0.04737001212615701
aF-0.0402667732413473
aF-0.022300922575808783
aF-0.0684943285295161
aF0.005102331482455263
aF-0.028260079285450095
aF-0.060875635655725104
aF-0.04544212560439678
aF-0.02707091467546276
aF-0.08008998608678564
aF-0.033300280833476845
aF-0.02153944642552556
aF-0.00171779080158294
aF-0.03511920854914398
aF-0.034583555685386846
aF-0.047916477368560854
aF-0.033875620821397515
aF-0.009630524052677709
aF-0.07398721472412388
aF-0.009884076502322486
aF-0.010549758270732856
aF-0.08047609143045968
aF-0.02177278159694131
aF-0.02179360866430492
aF-0.03861676417095042
aF-0.05714054131372987
aF-0.07586551720131021
aF-0.023431001358334883
aF-0.04561474012493687
aF-0.0046671702382944154
aF-0.040206298080550255
aF-0.046436617465919566
aF-0.04559424772861521
aF-0.04045698654231373
aF-0.018706818443629716
aF-0.03966799346490231
aF-0.03851416568334656
aF-0.053121730974272266
aF-0.04155522545954961
aF-0.016167633873876902
aF-0.06631794265675192
aF-0.00189238638913417
aF-0.02055823922296649
aF-0.055071100692298744
aF-0.05420944533664667
aF-0.02190979800448396
aF-0.08477906039369176
aF-0.02520569857127254
aF-0.01722244631295941
aF-0.013384425707725483
aF-0.031193559651466515
aF-0.04888014529678541
aF-0.05425587954369367
aF-0.024480058430190167
aF-0.015996002481985367
aF-0.0725861500098055
aF-0.0025964086624526207
aF-0.013407150531838885
aF-0.07305223010681493
aF-0.020885756569364936
aF-0.009504892255213233
aF-0.04174652079073712
aF-0.06306538018325618
aF-0.06500719234808955
aF-0.026838843442904554
aF-0.04919310372613827
aF0.0023398830563505385
aF-0.023581905060608904
aF-0.04116498220177166
aF-0.05217856854568299
aF-0.053264203429585454
aF-0.019538716534645686
aF-0.03323161273596038
aF-0.032432101243806036
aF-0.06393899232610613
aF-0.0503149066364138
aF-0.021619876478283336
aF-0.0792690889431234
aF-0.009628020567275882
aF-0.014659053352185517
aF-0.05494185019584898
aF-0.028475824824441772
aF-0.011392294211346594
aF-0.08183316373277248
aF-0.019885944039611556
aF-0.0036128673628962877
aF-0.011801658005892508
aF-0.02464649937931894
aF-0.032528918306498976
aF-0.04585196837741249
aF-0.02819622365721353
aF-0.0014547837509736156
aF-0.07446271592777418
aF0.01036220995106701
aF-0.006642781041374446
aF-0.06078028333108178
aF-0.02453026593560491
aF-0.010260060060803829
aF-0.035954905808101505
aF-0.06128332931064031
aF-0.06179108991286587
aF-0.022120757644181324
aF-0.048609591728002145
aF-0.011883361404354175
aF-0.03667319338440148
aF-0.05353576715098307
aF-0.0523779163189821
aF-0.05576847750056317
aF-0.017399252836974247
aF-0.039895896534414735
aF-0.03391348232616049
aF-0.06264845481175263
aF-0.045730335699633924
aF-0.025116047664619223
aF-0.06653406313433197
aF-0.0028187944386258586
aF-0.02443259059254922
aF-0.05126203921986245
aF-0.04457629839676166
aF-0.0318037625599598
aF-0.08665834806482632
aF-0.013210577277563333
aF-0.004639855166377767
aF-0.016318118269631633
aF-0.023892520510194245
aF-0.03436761258060268
aF-0.042192513485487804
aF-0.02988405118071059
aF-0.00618368769445964
aF-0.07599986525318982
aF-0.0062075128640144755
aF-0.014587528404750373
aF-0.0748940303518211
aF-0.02590160655234531
aF-0.014578437486001728
aF-0.03368002962182896
aF-0.05763557393712233
aF-0.06089074862388844
aF-0.03396094196365999
aF-0.045895483018200456
aF-0.004428689221362988
aF-0.04642815518608008
aF-0.04624941518356323
aF-0.06139517413341233
aF-0.050487304808761846
aF-0.024820219232435648
aF-0.029989368323868438
aF-0.05067380330971537
aF-0.05866490302368354
aF-0.03783769636957852
aF-0.01201017258914851
aF-0.0730539026718289
aF0.008551733117792861
aF-0.028502381201259083
aF-0.06006502462577874
aF-0.05565258246981035
aF-0.024832095622092334
aF-0.08179039801732846
aF-0.023247182411141362
aF-0.01304686668345249
aF-0.0035769279144302188
aF-0.042609127572984164
aF-0.03959044288380811
aF-0.04744655488759425
aF-0.02698491651705975
aF-0.01511018865252288
aF-0.06422174545525908
aF0.003499973388761979
aF-0.007430108318598951
aF-0.06745408336817484
aF-0.028203479055099505
aF-0.027913527663579747
aF-0.03874697256385876
aF-0.05448721851440055
aF-0.0746956297882635
aF-0.021266692308471277
aF-0.04951134850582416
aF-0.007417877287285763
aF-0.03840724047079257
aF-0.04775233807245127
aF-0.05520921016747936
aF-0.04905788029454212
aF-0.022166760191574902
aF-0.03457454069220662
aF-0.04891377632460461
aF-0.05285898290345623
aF-0.0498574878960517
aF-0.022081254056162517
aF-0.06590339307999213
aF-0.008964013113055634
aF-0.016143246492391603
aF-0.06509748843782028
aF-0.046060830066994046
aF-0.03057976087089597
aF-0.0798818647456441
aF-0.01620973882984919
aF-0.011092045274898075
aF-0.012598587149187927
aF-0.027837541547341936
aF-0.04277032947083425
aF-0.05558123218531955
aF-0.01774200597124061
aF-0.00448912921944571
aF-0.06309194368808892
aF-0.0033909559587534588
aF-0.004612811979601488
aF-0.0628203534709781
aF-0.03437852379765447
aF-0.016494622738261775
aF-0.11841145696089075
aF-0.0003749197693732366
aF-0.12808370381352835
aF-0.11686668280632029
aF-0.11680375374486861
aF-0.12254852799194617
aF-0.1295980699709494
aF-0.12114275396488045
aF-0.13135581524954512
aF-0.11819822967510445
aF-0.11960320499259895
aF-0.12121171083995845
aF-0.11634862746826481
aF-0.13102318051335837
aF-0.11107924306507348
aF-0.12708509732980544
aF-0.12357003181020876
aF-0.12061599940717901
aF-0.11334926623528102
aF-0.12099388383220655
aF-0.13023869710908262
aF-0.12002556316030029
aF-0.11110961437171406
aF-0.11494725524076602
aF-0.12457230968753547
aF-0.1193041831747718
aF-0.406642199094436
aF-0.0002216405257814899
aF-0.42969573244037373
aF-0.4067722210271688
aF-0.4124366812661463
aF-0.4192719885829922
aF-0.41766643036438544
aF-0.4175656520170653
aF-0.4006454543115339
aF-0.42052018309788425
aF-0.42079294113406246
aF-0.4070823747537154
aF-0.41540784938824404
aF-0.41881952891974844
aF-0.41224343485250176
aF-0.39039935439122103
aF-0.42876303094089885
aF-0.4166038172160749
aF-0.4469437851029618
aF-0.41866061729423354
aF-0.41073059937229883
aF-0.40954152309842873
aF-0.43861854497247377
aF-0.41700317553737876
aF-0.4048341534228633
aF-0.4140665439559561
a.