(lp0
F0.02981037961509725
aF0.06513850490374243
aF0.058243704431654934
aF0.053724963936983186
aF0.04271076313933216
aF0.04701175586921382
aF0.015562238064147542
aF0.03315077701671977
aF0.019877626306156766
aF0.0362673466143065
aF-0.0201733573184731
aF0.0498825988859652
aF0.0406534570170415
aF0.012075928414848672
aF0.02128290810484652
aF0.023439077275945925
aF0.029728275637714147
aF-0.005517267526777971
aF0.01740452459086156
aF0.04591875621778105
aF0.021035395036329202
aF-0.0015787187568619475
aF0.01715243662441032
aF0.034313298916484096
aF0.029590472125660728
aF0.0053056567981313325
aF0.02296372105333261
aF0.05242718283420154
aF0.008266888489697276
aF0.05424263577202971
aF0.0469969685246876
aF0.006310142473660832
aF0.0031543211210177066
aF0.016769911879646725
aF0.004766971051670023
aF0.012512062528090225
aF-0.0019059564348284045
aF0.03711079964874803
aF0.06025961478475949
aF0.05689305439779379
aF0.055131874139682686
aF0.0535180435792642
aF0.03323499854463388
aF0.03631037263229664
aF0.028843893065105465
aF0.020723997552632826
aF0.01694631940143589
aF-0.02098085145732674
aF0.03105138734395628
aF0.04274925727660491
aF0.02316504560879972
aF0.024629473151548283
aF0.026178145919537887
aF0.022913924205768155
aF-0.00016607774919286068
aF0.015986289200090053
aF0.034896308884824485
aF0.013082669471223522
aF0.013463441384676561
aF0.008239722730057126
aF0.03859751852990305
aF0.03181454993784746
aF0.01474705191426575
aF0.022460394076257464
aF0.04580082031950856
aF0.013227253206438848
aF0.0537822594926927
aF0.06612804326788013
aF0.007139504132087126
aF0.009493259887081492
aF0.024320599771024392
aF0.006952797917746113
aF0.01751052611054111
aF0.006985576015271064
aF0.035893624107236094
aF0.05974245579042183
aF0.05808888247887601
aF0.05311709148000925
aF0.0492219551693809
aF0.034763645761034606
aF0.0197675406965754
aF0.04250539370340342
aF0.033020823373674894
aF0.030181376202286014
aF-0.018471921768771007
aF0.05258650176194336
aF0.03500065188178549
aF0.03054302637238786
aF0.018755718256710945
aF0.016413818905322206
aF0.028014455176851638
aF-0.006195135244019227
aF0.0013302286129119201
aF0.05023020979345186
aF0.03158828558325066
aF0.004932467821194865
aF0.011901899873278336
aF0.03234612091156802
aF0.017863156305571788
aF0.005572739606928109
aF0.032963950726839705
aF0.06677759596179565
aF0.008253293756257798
aF0.05316756664220856
aF0.05541483940944504
aF0.014429411424409157
aF0.00456940057997249
aF0.026516123538429533
aF-0.001289418840964493
aF0.02549794113584137
aF0.012677167936575775
aF0.03666833245671938
aF0.05065980674901478
aF0.051137304304485015
aF0.05086019577303727
aF0.05397097052697099
aF0.040135854767934576
aF0.03358912813435267
aF0.0340833592456734
aF0.01838452716605842
aF0.018212743396373875
aF-0.0055143224433821586
aF0.03539293794324269
aF0.03830421702512919
aF0.012403069927044747
aF0.023236635595665227
aF0.026408483690403828
aF0.035308055920000844
aF0.00292242319592233
aF0.006293800541346994
aF0.041537059463998945
aF0.015193519712977483
aF-0.0049813326982869974
aF0.009134853829492105
aF0.035757792501483296
aF0.019028414439338885
aF0.01086224518034902
aF0.0315104104032021
aF0.056691943642245696
aF0.013127563598693473
aF0.040927292856266284
aF0.05944367856302313
aF-0.0006054592234768707
aF0.00015280886954864873
aF0.03012822623671912
aF0.006940610625347768
aF0.02510719336847767
aF-0.003651761504418461
aF0.04337432206231503
aF0.06839691683979032
aF0.05177054683173941
aF0.0412112194338054
aF0.052924608160854585
aF0.033347153644102796
aF0.029833740415039486
aF0.043393076760165586
aF0.027152904015870893
aF0.03694949021149401
aF-0.018890030981327938
aF0.04572455962550605
aF0.03263852968229595
aF0.02130930166922207
aF0.017254796097037797
aF0.02177109482766419
aF0.029571515231134108
aF-0.006289428874698841
aF0.014488743632278919
aF0.04426148998481614
aF0.013178234698696136
aF0.0024740794836113173
aF0.02139333188088618
aF0.03904877538722896
aF0.03478453680613749
aF0.008822074165456413
aF0.03950159802249128
aF0.050821211320739725
aF0.011010521454852118
aF0.05542483280777356
aF0.06258957026382421
aF-0.0013075828802199996
aF0.010669783337958988
aF0.02830345122823772
aF-0.009381221862063803
aF0.015788571615107185
aF0.006835678154510855
aF-0.4375236356627579
aF0.007627137504392737
aF-0.4289595483778245
aF-0.44422894122304396
aF-0.425404225416934
aF-0.4354160361654936
aF-0.424229096760599
aF-0.004396971353144013
aF-0.4321853342743721
aF-0.4387346685238911
aF-0.42646693256923224
aF-0.43967726065420454
a.