(lp0
F0.003924199095861863
aF-0.0005038167199548668
aF-0.002654513647265761
aF-0.003921386413056565
aF0.005000478237035066
aF0.003589770307464398
aF-0.002477450447371299
aF0.0018661639836535604
aF0.01612955024275744
aF0.019431239370222758
aF0.007439198052582031
aF-0.010693685560164734
aF0.009227661740211892
aF0.019900515567774304
aF0.00017653241856191416
aF-0.0023957644411241163
aF0.00425302838141553
aF0.00859158886219255
aF-0.005503771296607137
aF0.007830989123577181
aF0.016079736358233673
aF0.015193967450204335
aF0.016272230278141692
aF0.006739114576374975
aF0.012853575305468337
aF0.007128779897987201
aF0.004086107884471186
aF0.00026127080616197146
aF-0.002605898920351634
aF0.0037952608568068416
aF0.009189638383485124
aF-0.005335094536419249
aF0.003993804513480728
aF0.015990956109337023
aF0.01312732786705453
aF0.014400667455221115
aF-0.004078610149567378
aF0.0067011858228959885
aF0.001973911987985041
aF0.015057878262935954
aF-0.0012886445480172653
aF-0.005328449716421434
aF-0.011752880490009178
aF0.011343435136528943
aF0.01708368583059891
aF0.0220637176243218
aF0.009276739689242426
aF-0.0009549980790518585
aF-0.005122943001773192
aF0.012220793218241162
aF0.010903276122623758
aF-0.0037791793202077307
aF-0.004717170121094155
aF0.0054924963088837505
aF0.003929367816833001
aF-0.0028492169668494372
aF0.013167925396352927
aF0.008305709241673797
aF0.011485792973799883
aF0.020142606720107415
aF0.01542386074035668
aF0.0006427760170143445
aF-0.008688169289856731
aF0.0093286524791834
aF0.017993685704275383
aF0.00912089866604347
aF0.01938299300726377
aF-0.00980056209795738
aF-0.0019792922572475866
aF-0.002083538797746454
aF0.0006174708026333102
aF0.014413978572641635
aF0.028565168172548797
aF-0.002938884203378309
aF0.008730799423468175
aF0.013248245232580514
aF0.0031416001061188893
aF0.006012657966833608
aF0.001890915333054638
aF-0.013987005265692803
aF-0.004650953021195936
aF0.00023039943073242298
aF0.0036480288757276377
aF0.01952421595544058
aF0.003592144979948508
aF-0.008931580295335653
aF0.013186049249177054
aF0.023885966253989022
aF0.007616989009752305
aF0.009953399755656437
aF0.011170568786327321
aF0.008439067285193953
aF0.011693901729780925
aF0.006878419827975802
aF0.004351084832241152
aF0.01768363644783066
aF0.004115337499016111
aF0.0012943069596156424
aF0.011592749766237113
aF-0.0017659694754491267
aF-0.00443192914955087
aF0.011013742158495182
aF-0.003315546862647073
aF0.0038753097335683393
aF0.005577156353331029
aF0.0013187535159787421
aF-0.0021116305289906995
aF0.014497090296200119
aF0.015265394479551355
aF0.01942693216288487
aF0.004519375891880223
aF0.013837902274798143
aF0.016829657081092828
aF0.0023369084334889973
aF0.006726046584072708
aF0.006019803628510206
aF-0.003946701914788639
aF0.0025719445383874003
aF0.010714961329531642
aF0.001987713443604026
aF0.006182694808435776
aF0.004498729549267935
aF-0.001246263434136908
aF0.0009220398153363599
aF0.021129290339061624
aF0.0016437803293872467
aF-0.005396153135519463
aF0.00426654837204245
aF0.012414656789116645
aF0.004316487773684965
aF0.0025965338612249436
aF0.008832869307614146
aF0.020065079145094474
aF0.008868385127657861
aF0.01596537086271125
aF0.0156003179643943
aF-0.003075541365390799
aF-0.0004084596925596932
aF0.011936698345511787
aF0.009024151304057133
aF0.010780283137742498
aF-0.0025021003381823764
aF-0.009114711109318363
aF0.008684718995976193
aF0.01857649663555233
aF0.011785905072326618
aF0.021088129450922522
aF-0.012625220170484086
aF0.0014382217187430763
aF0.0082043828497101
aF0.007182399828045376
aF0.00983205751688365
aF0.0015370670504858276
aF-0.004841908565695451
aF-0.004089187023283288
aF-0.001972931553753495
aF0.011915232194916674
aF0.018990362157706546
aF-0.0004524919987419871
aF-0.0065066106354766395
aF-0.0005812946103066106
aF0.018630322053374206
aF-0.005816999783198385
aF-0.006612989792382213
aF0.008860322678291947
aF0.016479267671477647
aF-0.006607369450632787
aF0.008495095120729414
aF0.012047708875769574
aF0.022555405027731814
aF0.008831866992463654
aF0.014762938166541497
aF-0.0020540871613317063
aF-0.0016990216098050133
aF0.0012466768760689014
aF0.0027021391254747297
aF0.00488659581042635
aF0.009580450539887363
aF0.0019390736791676157
aF-0.0024353806071272088
aF0.0060488331505699384
aF0.010046272469557362
aF0.0026304298390124907
aF0.023018185594999033
aF0.0055433997712077306
aF0.003540899440872016
aF0.01726499035461106
aF-0.000745068950532826
aF-0.005681200759069755
aF0.002552271074175283
aF-0.006081345981836617
aF-0.0055767176491465014
aF0.015783175432157195
aF0.02266468308477023
aF0.005944029584021557
aF0.006173106211654602
aF-0.0042389824604833065
aF0.01138850407307037
aF0.01792573746401792
aF-0.003228315369250178
aF0.008750489413041601
aF-0.0013124223492876977
aF0.014313488953432228
aF0.0061793040509585135
aF0.01972109198547756
aF0.0027629651623545986
aF0.019504522861510883
aF0.0028172956800834705
aF0.010979509495460723
aF0.00954838171011072
aF-0.0012448246885003237
aF0.01161836987570018
aF0.008384872737707076
aF-0.0024912141451682865
aF0.02076646054148732
aF-0.0008268654843054076
aF0.008858058884157199
aF0.00474063316876703
aF0.004137353596747199
aF0.00545650673584895
aF0.028096002893763676
aF-0.012865314863403327
aF0.014700581366223672
aF0.014840200399697589
aF0.00046135988490441336
aF0.013527220736600792
aF0.004232688081572044
aF-0.0025683541156633263
aF0.0011619074420678372
aF0.001844345216868159
aF0.005625356834633876
aF0.005630847373558833
aF0.015485355278631029
aF-0.011458648568514604
aF0.015440642701185968
aF0.007756759160165914
aF0.0027115780165617304
aF0.010320868528271064
aF0.009910814002861876
aF0.014343500884762462
aF0.00736586519727963
aF0.019353083256619504
aF0.003842281304842117
aF0.013611662538558108
aF0.0012912765614423833
aF0.005492425225544901
aF0.006522091580700929
aF0.006566984929104756
aF0.004597010397180567
aF0.014151841876803283
aF0.0024606907329281008
aF0.0060885970197272765
aF-0.00715799838440058
aF0.008590656657644852
aF0.011336221208027927
aF0.00243439886437652
aF0.01202269057690967
aF0.015858180438362228
aF-0.01047373874911572
aF-0.0011169309379874231
aF-0.0001289863280911109
aF0.007146110565757278
aF0.0062796685725796724
aF-0.004675329978092232
aF-0.009307236652061662
aF0.011300580914457212
aF0.0034764061190856446
aF0.013510262546932284
aF0.012383019551268495
aF-0.0017014361417687321
aF-0.006556711319830142
aF0.007525325701498396
aF0.017884747674663425
aF0.009257217738284165
aF-0.00532439049297869
aF0.008282365245351853
aF0.002370719923461252
aF0.010949461678819728
aF0.009882294817576076
aF0.010231847970102674
aF0.015614179461313958
aF0.00715256526435236
aF0.0019699575661379838
aF0.009935789375395989
aF0.003451830119553719
aF0.013163116534506724
aF0.015461785435515888
aF-0.00027546326550853886
aF0.006023224735237111
aF0.009306563999655489
aF-0.008741455246819605
aF-0.004466171996460717
aF0.017957077627573925
aF0.01486831079615502
aF0.026861280577362725
aF-0.012630750097774174
aF0.004140971096109397
aF0.01064788968428088
aF0.003159958287709457
aF0.001554252999952393
aF0.004307239173420527
aF-0.007171294900427225
aF0.010061031740729053
aF0.0018033816733577296
aF0.026513333324227492
aF0.0209279980472163
aF0.003515321818875499
aF0.004936990034840346
aF0.008681447458549733
aF0.010277719669357326
aF-0.006147229903329965
aF0.0010089577495975394
aF0.015642723923108618
aF0.0117489494780979
aF0.011884417907065615
aF0.01031028678774499
aF0.014898533304943527
aF0.01946290732475514
aF0.017349092342766267
aF0.01676592044374439
aF0.01179964437420899
aF-0.003756095400635481
aF0.007466039462352081
aF0.017582116014040534
aF0.006938739459195277
aF0.00967622006054352
aF0.00028485756768780184
aF-0.0052349829172718045
aF0.01346465460766606
aF0.011487424909225195
aF0.0020685656683917223
aF0.01277246960331818
aF-0.002546381790655077
aF0.008965087021237517
aF0.009557379537299411
aF0.012102212463276174
aF-0.007078862001187115
aF0.003085876347112656
aF0.0007776051109058384
aF-0.006702528806016375
aF0.013523098130255363
aF0.016664878025703402
aF0.001400411590849982
aF0.009247310590609209
aF0.0024530029227452736
aF0.010404906275306243
aF0.015134096370676062
aF-0.00573081852465146
aF0.0020627895372160032
aF0.00524903132222693
aF0.017216467511966243
aF0.005900220528536191
aF-0.00028860348625899565
aF0.009750410968704356
aF0.017765810449737986
aF0.0077428087502052975
aF0.00553722899904821
aF0.0004547500554214583
aF-0.006126689311201611
aF-0.00034723857621285037
aF0.01193681530410668
aF0.007100744631894173
aF0.01216605473578171
aF-0.00210017603300429
aF-0.004689143021179305
aF-0.0008935018636082421
aF0.008964944675568503
aF0.0009675706604827997
aF0.02478802879891505
aF0.005242699492436502
aF0.010363523772010996
aF0.007533120317412186
aF0.01382942843533239
aF-0.005163769051843153
aF-0.005994344705254413
aF-0.009352996678851562
aF0.007524558523481311
aF0.013768683726621229
aF0.02222923578905713
aF0.0071105948992968866
aF0.012149816233772452
aF0.006307039317550551
aF0.011895405040151765
aF0.02406556001078176
aF0.0025054387080152233
aF-0.00565988644815356
aF0.008071867234369036
aF0.01625236363954958
aF0.013202216946950139
aF0.0037466775913337644
aF0.006320041346096695
aF0.020271638152392375
aF0.0073288947843660555
aF0.010917134643056266
aF0.0075983899028188905
aF-0.006451779542228152
aF0.00021207026320030093
aF0.007752099913412116
aF0.004958006443186551
aF0.02328095496560872
aF-0.001594279087609523
aF0.0037378483753570156
aF0.009377044759168096
aF0.016469589488530192
aF0.01772215176391277
aF0.011741663631542358
aF-0.00668842361923541
aF0.014434624306701848
aF-0.00036998860262448864
aF0.006249107093847165
aF-0.00503560339152708
aF-0.007930105991361925
aF-0.0025939486928398866
aF-0.004999899129121304
aF0.006811680508397676
aF0.010554169908616545
aF0.018411340980608783
aF0.003582165789391757
aF0.003620289608603204
aF0.011083203221433248
aF0.024317087714817328
aF-0.00794861673020952
aF0.0027346012239487768
aF0.01494512914929168
aF0.01740700703109442
aF-0.0018143875131585183
aF0.00844381882906617
aF0.01754527313230499
aF0.018589403113226724
aF0.004164277652999268
aF-0.0005846014985619961
aF0.01597741125717574
aF-0.007827275872285573
aF0.013006212348766996
aF0.00169931071386765
aF0.009093117650580658
aF0.020587600882114376
aF-0.008035785885382103
aF0.006906731963906735
aF0.0009515403116594804
aF0.003112806953812367
aF0.008716799269802851
aF0.010119802809495381
aF-0.0064830663409606165
aF0.012412421222624552
aF0.006569796399817962
aF0.003765080313363326
aF-0.0025922619417723227
aF-0.0065211190223442355
aF-0.013558936425926815
aF-0.0013811651107934386
aF0.0025968238523798835
aF0.01432872084141067
aF0.012583545856599149
aF-0.0023446216601892443
aF-0.014368633870580124
aF0.0018007862942585743
aF0.013505866287529889
aF-0.0036603162644635954
aF0.0068617951936390505
aF0.007196322282046562
aF0.01155816272335929
aF0.008509106102817271
aF0.008715593579672798
aF0.006875557249484839
aF0.010240793518232087
aF0.014181064853117736
aF0.004233444367814991
aF-0.0023602258694530205
aF-0.0029913042470109345
aF0.007515158580431423
aF0.00279534380595215
aF0.008118972483258819
aF0.008798130844277356
aF0.007239300523981351
aF0.006266037240937657
aF-0.003220130342008013
aF0.007304297154533259
aF-0.0005951968665880013
aF0.024398187478367677
aF0.0021251770166319994
aF-0.002228863113690702
aF0.0007177541549058715
aF0.009231639750651773
aF0.0030475522125499206
aF-0.009424690368924052
aF-0.013644941024268362
aF0.01099255983641042
aF0.01213976192536714
aF0.01806569930413097
aF0.002966991496453018
aF-0.0030781385260948953
aF-0.008663968664980305
aF0.012978995764595396
aF0.014104301720926993
aF-0.004811314934867583
aF-0.0057695992575711955
aF0.013315785137821065
aF0.006252526919715302
aF0.009785894977560243
aF0.004482590401630929
aF0.013116332362355966
aF0.016320420602400642
aF0.012720613678348466
aF0.010369486536563588
aF0.004401375507428435
aF-0.007839985955044019
aF-0.0013420435612276685
aF0.008886638479332222
aF-0.002889143337970048
aF0.01215672989822278
aF-0.009155558926151015
aF0.010314152878511394
aF0.007092702740365142
aF0.015406845084219974
aF0.01034814257105846
aF0.01993547730680279
aF0.0019677857919000894
aF0.01313558785088032
aF0.01891196473732372
aF0.0011618741635851383
aF-0.002809130691280131
aF-0.00019461409798964295
aF-0.008911299759765479
aF0.008145705299419352
aF0.012100833207992531
aF0.014730270509627873
aF0.00470050644442609
aF0.012619147187273893
aF0.0035120436494545104
aF0.012196779340529797
aF0.014084984775586245
aF-0.003054336689244065
aF0.0028120008944949385
aF0.010162157059737657
aF0.013545782365123937
aF-0.0033607775489541366
aF0.013642414463324317
aF0.0024354364606384428
aF0.011005139633410667
aF0.0024750148277527676
aF0.016237156115717282
aF0.004885819286611831
aF0.0074612005574719205
aF-0.0017831156463144185
aF0.017670354780574955
aF-0.0054612891270649985
aF0.020812395059834024
aF0.005814883069417336
aF0.0027741885564381537
aF-0.0014151197316113545
aF0.006830355011653466
aF0.006575152296239029
aF0.022275999875258717
aF-0.011243022516392542
aF-0.11203479643227629
aF-0.008115137202142964
aF-0.1034789307177939
aF-0.10256199164486292
aF-0.10515147904434888
aF-0.10856663657550922
aF-0.11588975155028607
aF-0.10815216417651362
aF-0.10819427146066843
aF-0.12413830340446809
aF-0.11143711404531736
aF-0.11978681356708887
aF-0.11539898549813649
aF-0.09956895229615279
aF-0.10294419487368181
aF-0.11466361048733961
aF-0.329695505666305
aF0.008518651210955198
aF-0.3469277975537264
aF-0.3348004522153923
aF-0.32935140679069513
aF-0.3277138780642767
aF-0.33648836264853366
aF-0.34280864320287524
aF-0.33144039897277877
aF-0.3450613975368808
aF-0.328782419362797
aF-0.3405121127007247
aF-0.3294929446145672
aF-0.32803502859876893
aF-0.32918567407930693
aF-0.33718886016136723
a.