(lp0
F-0.010677973885729424
aF-0.0074719653095106035
aF-0.06124012462628924
aF-0.020963150869822058
aF-0.04711673885185881
aF-0.0286731809962848
aF-0.0019894365668343553
aF-0.008273280992764764
aF-0.050186275517452285
aF0.012337422746757845
aF0.010874556008958801
aF-0.009264082328691827
aF-0.025676571191566553
aF-0.0028682153164367023
aF-0.03653833947220569
aF0.006410943049578325
aF-0.06317725265400914
aF-0.01202221749853572
aF0.00015794395364686754
aF-0.010651633523571903
aF0.0018786505242917558
aF0.0006352528853161672
aF0.008117714947025822
aF0.02974692303886383
aF0.037687339966670674
aF0.00045579192210182164
aF-0.012136779601728046
aF-0.015678695309406347
aF-0.011694776602725939
aF-0.003168706448937573
aF-0.041023936530125475
aF0.001330319668905287
aF-0.014860186467883013
aF-0.009729389458927694
aF-0.003594228349031287
aF0.003969260745560854
aF0.023315232963231503
aF-0.017150826694785223
aF-0.01376852075505784
aF-0.04808180978969513
aF-0.024711932378007166
aF-0.05847433912303166
aF-0.03715720380151494
aF0.004035908101498049
aF0.001804506473261102
aF-0.03772869931494505
aF0.006226006887225539
aF-0.00021878051287037065
aF-0.014884971467082578
aF-0.028611000641156178
aF8.917666260937324e-05
aF-0.04920906290998883
aF0.003926790589845501
aF-0.05124094590965591
aF-0.026802589354801024
aF0.00443079579341538
aF-0.016745523298511263
aF-0.0030222208417177965
aF-0.00018941628532324483
aF0.012219735559694883
aF0.02895953653647947
aF0.035861704304136204
aF-0.008640900609873778
aF-0.01310600187014184
aF-0.02845071106583573
aF-0.00761671334498746
aF0.012754199426873407
aF-0.04294938342493515
aF0.01067081834883742
aF-0.003603218520499686
aF0.0004378111317959901
aF-0.005223185085151248
aF-0.002082541268984019
aF0.01352064476797714
aF-0.01672026155836268
aF-0.012484292544855639
aF-0.05524392190773404
aF-0.025894478952326973
aF-0.04668459149559165
aF-0.04676799439752963
aF0.005521750613304487
aF-0.008876442802900343
aF-0.05199719137081178
aF0.01844714821620298
aF0.00817273055095533
aF-0.02491384558823512
aF-0.01436130627317312
aF0.0034727993643091917
aF-0.03611493294626921
aF0.0012248720436479068
aF-0.06364068820928599
aF-0.02098467917665765
aF0.00583957883361529
aF-0.007466570777107413
aF-0.007047386847945061
aF-0.0023752660532435346
aF0.002755615656097639
aF0.02882156415091575
aF0.0335371847637994
aF0.008188705642407205
aF-0.01444489277885515
aF-0.018470574856033487
aF-0.0027557731636269826
aF0.01038514810184425
aF-0.03215325300300854
aF0.005163151443631878
aF-6.2180274574991e-05
aF-0.0017042675698003427
aF-0.017434287929552473
aF0.011235474769253366
aF0.004761968632875911
aF-0.013290955962046531
aF-0.012140645249261783
aF-0.05191659162594551
aF-0.02096895723425403
aF-0.05728686959048279
aF-0.029976902046381426
aF-0.005271590027529598
aF-0.007296969200415803
aF-0.033736206055293455
aF0.012882086097772576
aF0.013534170351577314
aF-0.020159408421285985
aF-0.015548378995810522
aF0.001608872913689492
aF-0.045424041233336016
aF-0.005231426628824006
aF-0.056304903042124065
aF-0.025359746618158766
aF-0.0027077564775539963
aF-0.017983748435013335
aF-0.0037935583839324052
aF0.0022025662901782855
aF0.00622649356744184
aF0.026741092002926844
aF0.028182557517413533
aF0.0049794368172108895
aF-0.02202073409376371
aF-0.025453394802631868
aF-0.015798625507213546
aF-0.0009401957148211155
aF-0.03624569080116545
aF0.000992432129760818
aF-0.015478586621997317
aF-0.004510953405811627
aF-0.0045250751941639175
aF-0.0020914214339390748
aF0.016617465744918628
aF-0.005670719955840969
aF-0.012995947652114353
aF-0.04589354433386213
aF-0.030160893339307816
aF-0.061787611681867145
aF-0.04622523804753887
aF0.0068086444408366874
aF-2.7148357153856354e-05
aF-0.04109215613687562
aF0.01615335282801772
aF-0.0007191916829483438
aF-0.014235910786516936
aF-0.024206080176204327
aF-7.778424742247109e-05
aF-0.0422704683993424
aF-0.00027482486033048937
aF-0.05231846631366089
aF-0.02852126802960921
aF0.00042876103350780715
aF-0.0028426559977109767
aF-0.014470857368842231
aF-0.009060637613053245
aF0.007666855954923435
aF0.01349052638312009
aF0.03228006002608113
aF-0.003215480752413883
aF-0.025286965998345436
aF-0.029340368644279552
aF-0.004610599936615483
aF0.01699868291924248
aF-0.036535687594309856
aF0.008937477907993105
aF-0.011972885248251118
aF-0.0053567564477181705
aF-0.006141600970659812
aF0.002034444794065513
aF0.007060843612314948
aF-0.020011848371424674
aF-0.012015694660672226
aF-0.060519626883553265
aF-0.026272555688090168
aF-0.061032609491841694
aF-0.04863804420599496
aF0.011454498131890723
aF0.0033240588586910935
aF-0.05305473227468806
aF0.006478075701695003
aF0.012066472999500324
aF-0.011135326672772072
aF-0.015369577645127338
aF0.003974983314338892
aF-0.033890149688495026
aF0.011735628915843588
aF-0.046794289555016744
aF-0.02119356355650452
aF0.010911133990959302
aF-0.01674056785191927
aF0.0038231727320960987
aF-0.009086188229187284
aF0.012289652036403883
aF0.023475375450557664
aF0.03013253507885567
aF-0.001874030349842559
aF-0.015777019719405923
aF-0.031189097669577923
aF-0.01325250986364944
aF0.017340222989064
aF-0.035250756613712
aF0.012535668322598465
aF-0.002145315550111349
aF-0.008310112741021853
aF-0.007330168181465331
aF-0.00015487653095286097
aF0.021041549287435773
aF-0.009318416991644183
aF-0.023470804900174332
aF-0.04562611733662041
aF-0.0340226870153268
aF-0.06442700238297284
aF-0.04459154583717603
aF-0.0034393993675220906
aF-0.010750726492175183
aF-0.03958456669188699
aF-0.0011663726879986283
aF0.003789311794992519
aF-0.02394257473796784
aF-0.02129077720033603
aF0.0006412875096077819
aF-0.044262992718629
aF-0.006540680220245738
aF-0.05743921784204221
aF-0.019146269033331848
aF0.0048170501854705484
aF-0.010428941274351636
aF0.0030383998673432907
aF0.005826978315464021
aF-0.005071945648324393
aF0.025187969238783834
aF0.02869582859232565
aF-0.006740722473367851
aF-0.01859464482149351
aF-0.024540409762665173
aF-0.015924490543953052
aF0.012380801778364751
aF-0.036894603494089205
aF-0.0033750699701599724
aF-0.011161413028169406
aF-0.014899242007128543
aF-0.01256593319465132
aF-0.0002754345278443846
aF0.004693292831457792
aF-0.012750139418803366
aF-0.0068919439438217475
aF-0.05350026845206221
aF-0.032815637185292464
aF-0.05118549696402349
aF-0.05330633288314727
aF0.005883907563600985
aF-0.012069969952876349
aF-0.04904949785350388
aF0.006715251686553038
aF0.008574336581135513
aF-0.012880766592142911
aF-0.02003991572183793
aF-0.006309136105153452
aF-0.03604148736687033
aF0.00989541403701308
aF-0.04840035422780233
aF-0.013935573887715888
aF0.0020849895849299493
aF-0.006188932945013176
aF0.0021840611703572393
aF-0.003972019528156271
aF0.010049186467689868
aF0.016269231668105122
aF0.02314613121578868
aF0.0032792110221428103
aF-0.014681445801389727
aF-0.027761709750570598
aF-0.008750012777393392
aF0.013527533323149757
aF-0.02897371556291687
aF0.004341598792526769
aF-0.009394842230072606
aF-0.0077035507967736045
aF-0.0012287357830005194
aF-0.003935996782720269
aF0.00905007041032104
aF-0.021821509921575204
aF-0.0045640894098766096
aF-0.05276266369568605
aF-0.027434241098698926
aF-0.05032653886932293
aF-0.032690345099210746
aF0.0038869504299014744
aF-0.01166934413993497
aF-0.042149427763433084
aF0.01740093426082867
aF-0.0009409635873486478
aF-0.025612657008692
aF-0.02194769157588985
aF-0.002973974895096074
aF-0.04648796316441219
aF-0.0014407753399387462
aF-0.050754383549364276
aF-0.023210621330381886
aF-0.007115828292909515
aF-0.003471627580548203
aF-0.008416673406538485
aF-0.011323145115854007
aF0.0002248160477398323
aF0.011814100805730683
aF0.023663943131041264
aF-0.008679550488036047
aF-0.022356418376254
aF-0.021218265583903283
aF-0.008361252178782409
aF0.0072622316787429855
aF-0.03886990058020989
aF-0.001855646014011652
aF-0.0007172818756494394
aF-0.017493794406556115
aF-0.009852043835398063
aF0.0015344549453203764
aF0.018202479848893467
aF-0.00410131311371007
aF-0.0023279859764559732
aF-0.060685630103873345
aF-0.019353127854454515
aF-0.05008948259056093
aF-0.037231975735257564
aF-0.004532818159712161
aF-0.005068910072357605
aF-0.03904796551289686
aF0.0055777067637411476
aF0.007227609863073509
aF-0.019054757457648192
aF-0.010033950208141759
aF0.006149567448331658
aF-0.04599441176111369
aF0.005838940932186142
aF-0.05344518568198005
aF-0.02161556111599838
aF0.001977107438256292
aF-0.010280300644758539
aF-0.006820267885753899
aF0.006852220409844585
aF0.009835366407685099
aF0.0308076497576464
aF0.035146898064139044
aF0.013077861989786322
aF-0.022879859327710052
aF-0.03216652887267381
aF-0.009689133378980676
aF0.01582881920480291
aF-0.03514793263984237
aF0.005144796796285568
aF-0.004579546206292984
aF0.0006250615540980962
aF-0.016844588930534712
aF0.005420627655447383
aF0.022360789267924192
aF-0.009638586785130703
aF-0.004555756839935238
aF-0.05297755606840911
aF-0.01569021100868596
aF-0.06630279520435911
aF-0.05119004043669814
aF-0.006880237585853226
aF-0.009991394386926923
aF-0.03435061109248106
aF0.016166840506633386
aF0.010022448838306539
aF-0.018024067254801934
aF-0.023999197626780933
aF-0.0072638379267129256
aF-0.04710540983837232
aF0.0075046156370096265
aF-0.05043736167025215
aF-0.020936736024068366
aF-0.0010469194697473264
aF-0.003453828289824738
aF0.0023376938730178543
aF0.00019378222450190706
aF0.004623124277694924
aF0.02310070364297812
aF0.03308500703152936
aF0.0056100738930742605
aF-0.011944365018693642
aF-0.019451691459693738
aF-0.020418478452072245
aF0.015762401414404638
aF-0.04352392422277592
aF0.006806857418894861
aF0.0032687958431790436
aF-0.01330513044142973
aF-0.012598118609203955
aF0.003590503341660209
aF0.011622757295070864
aF-0.012493575072293315
aF-0.0035292198229606277
aF-0.061205505054671545
aF-0.017843625384135593
aF-0.04972115867060301
aF-0.03564034239811717
aF0.012849633722731475
aF-0.003380106036416637
aF-0.039200225027045656
aF0.016340030911438305
aF-0.004265472780956601
aF-0.005750864822789524
aF-0.009784397676374323
aF0.005666827388218695
aF-0.03859538920579627
aF-0.000807944052816065
aF-0.05737505601536087
aF-0.014901130617392436
aF0.0055073107929526355
aF-0.013368409596654593
aF-0.011753156767034848
aF-0.0027286331225908314
aF-0.0010091605888534086
aF0.016647691434742224
aF0.02511139302358993
aF0.014180370127541682
aF-0.01715732079647661
aF-0.017932396655200022
aF-0.019845824529103592
aF0.006322553762377226
aF-0.03470139359295214
aF0.014603904113350089
aF-0.003415265519478115
aF-0.0027432923682636596
aF-0.0022629952069611625
aF0.012841292528518287
aF0.021066533900105627
aF-0.010741815254162571
aF-0.016802090082553532
aF-0.05652312311164336
aF-0.016241795740902187
aF-0.045216668156279866
aF-0.03831722549361234
aF0.003363492129425618
aF-0.007572672558832443
aF-0.04592321527152009
aF0.01948332130824117
aF0.007652587458764848
aF-0.02023217627084847
aF-0.01254112147588949
aF0.0056156224833688595
aF-0.038294650831561985
aF-0.0054811637846871085
aF-0.047929708268604286
aF-0.015793313919057424
aF-0.008375522164154187
aF-0.008522819347846655
aF-0.0070127072066024886
aF-0.006601432746173476
aF0.013633363175931959
aF0.025667940757490924
aF0.023054206308860865
aF-0.004552473198286806
aF-0.010673223316881458
aF-0.023415269330871482
aF-0.01379717370184286
aF0.002086576619569673
aF-0.03695321408175746
aF0.010846317635089111
aF-0.009278647094130635
aF-0.012775877320570308
aF-0.012174604174409197
aF-0.0004899716057161713
aF0.02368878227579509
aF-0.0162614080239422
aF-0.01000625483403177
aF-0.04618535220779236
aF-0.02199633879801687
aF-0.06163940419127051
aF-0.03811363563005017
aF0.008904696019027793
aF-0.012083767405861473
aF-0.04560127986125686
aF0.014995068581724735
aF0.0033553012979334385
aF-0.004572064953162515
aF-0.014306520496385155
aF-0.007379909673716352
aF-0.037259642058717166
aF-0.005786743547760205
aF-0.044155225400089315
aF-0.02315346235383022
aF-0.0032576386890806465
aF-0.01790433729768143
aF-0.00032241565133194145
aF-0.006671248122102019
aF0.008725795749233855
aF0.017655236117891344
aF0.025027505829513488
aF0.0015625616360900973
aF-0.02488681446646027
aF-0.03415546602451637
aF-0.0024832391367016473
aF0.012725995706752563
aF-0.032454114776428414
aF0.001705904339002708
aF-0.012047274437160176
aF0.001875911950891545
aF-0.01051011264414178
aF-0.0002676238703319732
aF0.017914507526954802
aF-0.011996204809876128
aF-0.004427163476343934
aF-0.04336603846179868
aF-0.02675489835950963
aF-0.053944816365113654
aF-0.03593595126596719
aF0.010196582191667473
aF-0.001470536463891444
aF-0.0393234210124049
aF0.00448374357656795
aF0.013591563444157448
aF-0.022796775465396303
aF-0.02534698431985278
aF0.0034881633691877115
aF-0.03361491833193097
aF0.0026524084535123377
aF-0.055318981488074674
aF-0.023579650669109962
aF-0.007982441797872384
aF-0.0033917075547684455
aF0.0001462756283594931
aF0.0035332233048761485
aF-0.00035863473600677856
aF0.03143470209778283
aF0.02594467784732816
aF0.010049169947035691
aF-0.01207056150349746
aF-0.021052139019465052
aF-0.01595581184942823
aF0.015899980610184522
aF-0.04503524874451931
aF-0.0048005088970723125
aF0.0018263491417709354
aF-0.005051340248501325
aF-0.0016063532714521208
aF0.004816491395148212
aF0.010333956007383667
aF-0.31177685122259974
aF0.005241168645394345
aF-0.3101371684846566
aF-0.31627874968025205
aF-0.3060679322706344
aF-0.31552864522355084
aF-0.31990568523581503
aF-0.2964679874492892
aF-0.3166701178579039
aF-0.3040971555826176
aF-0.31844064183221216
aF-0.3186546868550481
aF-0.3236633053219043
aF-0.31060660835209963
aF-0.3085254264517322
aF-0.3134537534474547
aF-0.5360946772252134
aF0.008949583668764598
aF-0.5229178695098513
aF-0.527200966946724
aF-0.5247327159277245
aF-0.5191644259488145
aF-0.525375959559657
aF-0.5047833745131217
aF-0.5217950479953057
aF-0.5086224380392842
aF-0.5353709977265602
aF-0.523805706261873
aF-0.5312985141727472
aF-0.5330953049314716
aF-0.5268033334276405
aF-0.5400015399045057
a.