(lp0
F0.0044913810332555
aF0.01789490205728483
aF0.011619448195342705
aF0.08569389987692393
aF-0.06630940332917154
aF-0.02962647688396751
aF0.024469447003272415
aF-0.021327823555812836
aF0.015911688398885408
aF-0.0007037101617862723
aF0.08824873175675975
aF0.02742901453138594
aF0.04541164161342171
aF-0.04754846373568913
aF0.023639524141853534
aF-0.010855378786161232
aF-0.027772204434107984
aF0.0316250031828409
aF-0.0015566493556360393
aF-0.058102023707928455
aF0.0009259010749863518
aF0.04227283276816705
aF-0.03907471255554197
aF0.022828455482207348
aF-0.022340879294056856
aF0.0625502223953464
aF0.03951873641094884
aF0.03565721067584748
aF-0.01871723888932589
aF0.016178737663680814
aF0.017694207251553868
aF-0.014558541943627483
aF0.0008486215141269541
aF0.014632367119551933
aF0.008891135719260559
aF0.048357689539159004
aF-0.010783762225099776
aF0.0006597115720251829
aF0.033766868336656215
aF0.011769170515416165
aF0.08054777823755231
aF-0.07012353905956825
aF-0.036031424194262036
aF0.03009616520984717
aF-0.02798919497286166
aF0.020829467874980963
aF0.009813185013787596
aF0.079189877299116
aF0.029160880392244987
aF0.047871362633344385
aF-0.06634090897491868
aF0.02567344283374895
aF-0.0032512256704925295
aF-0.028255220491481145
aF0.04198206600603837
aF-0.0011215563948653467
aF-0.04645826841336841
aF0.01909513002675776
aF0.035766663458462265
aF-0.035030683702135315
aF0.006647150870514518
aF-0.03393070050205569
aF0.051395672611589144
aF0.04123262291872482
aF0.030122952516852375
aF-0.02103568044227846
aF0.01859368941635617
aF0.019999103106834493
aF-0.01437547131741561
aF-0.0032843121572697642
aF0.010986904193963856
aF0.016060018238956225
aF0.052048859611585965
aF-0.024965068858449686
aF0.00832649619081375
aF0.02196845605686181
aF0.013715042365772253
aF0.09137173198723811
aF-0.06937210344674434
aF-0.04224758694156476
aF0.025305743333651803
aF-0.02417232021844826
aF0.021691908541982455
aF-0.006843925301166624
aF0.09099790492614208
aF0.028500255288608653
aF0.04892354680939097
aF-0.0690548241365696
aF0.03057814305941332
aF-0.012707537156662575
aF-0.017594431597535404
aF0.025490339251449074
aF-0.0011325718908193044
aF-0.04372088710555097
aF0.015323467954615443
aF0.03682119334930568
aF-0.041210059446285086
aF0.010137272795408147
aF-0.020744606105167644
aF0.06605593890157092
aF0.04344792337855416
aF0.030802342679373776
aF-0.019214338413891956
aF0.003992486365877269
aF0.010180187645101198
aF-0.013828664042327786
aF-0.007910054657462239
aF0.015518037415885491
aF0.02397930926245774
aF0.05020376230304305
aF-0.011970903544780028
aF0.003584012980782962
aF0.029996069271534073
aF0.009021560476784403
aF0.08194816166091343
aF-0.08085409478096219
aF-0.034465522637179044
aF0.017845242316501635
aF-0.019539434509085282
aF0.027127611735406277
aF0.0026462562735982
aF0.07460472881936338
aF0.02891300377048688
aF0.03463035147311579
aF-0.06732162660823715
aF0.028196071427385457
aF-0.011129686637276063
aF-0.03570407650466735
aF0.03153204454400761
aF0.0041367373123088885
aF-0.04342775795453507
aF0.0008545625861118299
aF0.04481693863556374
aF-0.033665832610277995
aF0.008531776047498184
aF-0.032959157865991795
aF0.05429387518213324
aF0.04404689587452817
aF0.031210464888944908
aF-0.006209539696031528
aF0.009823213259293249
aF-0.0023228746212373974
aF-0.00851307700538193
aF-0.006812933929676469
aF0.012774415779826227
aF0.009215836061616627
aF0.03616487142571369
aF-0.030748709751767897
aF-0.003958396818350311
aF0.027867756749717924
aF0.015929993889825567
aF0.08961792463593109
aF-0.07356867100828889
aF-0.037384732411700324
aF0.0189552991899342
aF-0.02824948470625689
aF0.025135019478000228
aF0.006398867075050178
aF0.07456344768670281
aF0.021971771630765934
aF0.02992713557958745
aF-0.06947104372486933
aF0.014677475568470703
aF-0.01341643336621055
aF-0.03345706361425611
aF0.02892992714959244
aF0.003947473985927585
aF-0.05950530657864857
aF0.000500610631227047
aF0.04177829772139931
aF-0.03956215744001738
aF0.001183363030604344
aF-0.03696844872400097
aF0.061522296610644865
aF0.0401107840984316
aF0.035535422412173646
aF-0.008917656088039454
aF0.01226862163880994
aF0.004748872664636978
aF-0.012409641518537514
aF-0.012041955006388605
aF0.01759356604676859
aF0.015605750464614052
aF0.04415930474546304
aF-0.014437962491423772
aF-0.0032137772631199765
aF0.018875575393580327
aF-0.0010499339052786791
aF0.07403401491474824
aF-0.06976362666427308
aF-0.03138087174880182
aF0.01798932212970646
aF-0.025442617969978463
aF0.018119592617407948
aF-0.007379336223606097
aF0.07428380846295307
aF0.037023740921576065
aF0.04582634803998824
aF-0.057054934834760394
aF0.017928246490023315
aF-0.011332004169566772
aF-0.03313604394879535
aF0.03325410135493125
aF-0.0059581350345020425
aF-0.04425625068556175
aF0.01103445979175691
aF0.03611844448821276
aF-0.03740223202840096
aF0.0091927350086593
aF-0.030000932718532037
aF0.051013081683987604
aF0.02969658747860865
aF0.027867677714109945
aF-0.011558094374681789
aF0.0018368704828193817
aF0.014240917667815841
aF-0.01890683890953644
aF-0.002690672986165415
aF0.010192463292725919
aF0.015054705623891301
aF0.038632831534670405
aF-0.019583618555751893
aF-0.004440039114905593
aF0.011429755860206878
aF0.011813970721298098
aF0.08274504771488435
aF-0.07749758449837765
aF-0.02848225677212871
aF0.02582751611772312
aF-0.03033559709012941
aF0.01893511436273542
aF-0.012375888570741258
aF0.08536174722741492
aF0.03730612614828648
aF0.03084999926239562
aF-0.061900055351916373
aF0.012176712422186165
aF-0.016026794066351286
aF-0.032947606684304916
aF0.029622496370020335
aF-0.003998077149912166
aF-0.04900061859079658
aF0.007744122267516587
aF0.0317396123234207
aF-0.036355269019442145
aF0.007157354653464371
aF-0.03831789401898389
aF0.05758596666954162
aF0.03943916849212408
aF0.02177728445774583
aF-0.023175154157702077
aF0.004052638770178428
aF0.0029714430467626587
aF-0.002841449618420958
aF-0.016906858330211084
aF0.01339411633362685
aF0.02031989973594596
aF0.04121584781073196
aF-0.016896820300473344
aF0.0036772061883352733
aF0.029234323040017794
aF0.006690536833725198
aF0.08665409903095785
aF-0.08190570120014048
aF-0.03674718637668185
aF0.019095684267195046
aF-0.014636428893370513
aF0.021181226214023217
aF0.0010174555667071183
aF0.08001884041723381
aF0.02997594238299959
aF0.04499643552015458
aF-0.052187227352239636
aF0.030393504813205276
aF-0.014667351819324935
aF-0.03386677377075409
aF0.024651937214063155
aF0.004714992396436929
aF-0.04826361305137443
aF0.002159877791444125
aF0.04848389669541088
aF-0.047284297377552575
aF0.008335815998783214
aF-0.03714110964759527
aF0.06629765741991027
aF0.03478345103899477
aF0.02995010054562628
aF-0.013651718110172448
aF0.0065812198855981306
aF-0.00032007546760495114
aF-0.011560565233133029
aF-0.004165300571399899
aF0.010354474751842417
aF0.006529778903645896
aF0.04707341477417571
aF-0.011108318194446413
aF0.008382869965391813
aF0.0231624362415589
aF-0.0027107318142520482
aF0.07458359489958491
aF-0.0778378344522695
aF-0.03262957396922151
aF0.011064662073180614
aF-0.019319080651609515
aF0.009257493728251805
aF-0.00696983774544993
aF0.071341807578408
aF0.025394491838187615
aF0.02783295098802847
aF-0.06695145520043412
aF0.023173502887694198
aF-0.010226296120928085
aF-0.02615702082586404
aF0.030771048807622464
aF0.004948519568463535
aF-0.04611752527700698
aF8.490475370535682e-06
aF0.03153717310309909
aF-0.03001438474758063
aF0.00816010803541944
aF-0.03768161139893497
aF0.05727576539871977
aF0.026628647072053202
aF0.024335306291891838
aF-0.01721580397480277
aF-0.0029397526156121107
aF0.008534272929843779
aF-0.0018405653058399204
aF-0.017205016039782903
aF0.002926341780869219
aF0.021553110912753075
aF0.03475644774317001
aF-0.010101141971955531
aF0.006040334563707981
aF0.014164409256779123
aF0.007836266183770915
aF0.0822526240135421
aF-0.0792657024064222
aF-0.035572521704907656
aF0.02574908216152868
aF-0.02048071214471199
aF0.011234995951958798
aF-0.0039497888438767646
aF0.07927211008899802
aF0.023080308357110908
aF0.037009827882030534
aF-0.059876053716803525
aF0.020411092703495545
aF-0.014768921784301127
aF-0.035004976224561966
aF0.038407632882915835
aF0.0012269942254553251
aF-0.044932886940735065
aF0.008685179927080807
aF0.03778777841527412
aF-0.030096953874333036
aF0.013514316858786724
aF-0.033081968868019195
aF0.05833599742242585
aF0.0380459400642231
aF0.02247605844080931
aF-0.007322485069812241
aF0.011943624166633754
aF0.006372185710790384
aF-0.005631337483416829
aF-0.013671614106924728
aF0.016446171639943927
aF0.02464977774168294
aF0.04494916908876201
aF-0.01129818486851383
aF-0.38156532963538553
aF0.002772623929717926
aF-0.38459046857569856
aF-0.38943346925798744
aF-0.37963532227062546
aF-0.3761117320687526
aF-0.3683248451484978
aF-0.37169193903933667
aF-0.3811392537602554
aF-0.36737632537452136
aF-0.37349120654273316
aF-0.6818540295006452
aF-0.004388766901488657
aF-0.6803800929089424
aF-0.6728941970553303
aF-0.6611724087498231
aF-0.6577886685825042
aF-0.6548825266861362
aF-0.6459301198074012
aF-0.6641208614974248
aF-0.6443803450121967
aF-0.6625724969672154
a.