(lp0
F-0.014019641836322472
aF0.0029969640877811374
aF-0.012746002452984986
aF-0.0041799603778953165
aF0.0073800318146592875
aF0.01200246218972922
aF0.010672386522436454
aF-0.005089318706410314
aF0.015768576915953514
aF0.00390841167722342
aF0.018288757947778393
aF0.012085158131917646
aF0.01589333379332259
aF0.007554574445377495
aF0.008235214261935813
aF0.0157724901810861
aF0.0006948201749225245
aF-0.011997484503889884
aF0.003352147799151742
aF-4.329787634385607e-05
aF0.013130445083940059
aF-0.0014415357654910593
aF-0.003950311613007857
aF-0.00958491245861444
aF-0.013755860869047131
aF0.01288662345133117
aF-0.0013343093048520497
aF0.012050723221828746
aF-0.005670773017216254
aF0.0020668703509364285
aF0.001514641028576768
aF0.0037769277481363986
aF-0.004202085552151475
aF0.0036547602049117086
aF-0.0019744336209744106
aF0.017979458427354288
aF0.026003254885830718
aF-0.005670002612569704
aF0.02181474227945477
aF-0.003553770864341349
aF0.01128578979161694
aF0.01355012457778006
aF2.849192251796551e-05
aF0.012504926246997866
aF0.008710424392188412
aF0.007396521451399224
aF0.00011917344658220175
aF0.028572146231257856
aF0.019546392124884748
aF0.018048389967320902
aF-0.0045093523122629875
aF0.0076896038927516674
aF0.016462068943171697
aF0.0027296324266860277
aF-0.0005867354337951822
aF0.008808412956966667
aF0.006687087372084771
aF0.00989659845575428
aF-0.005874064237196946
aF-0.0058240093889140206
aF-0.010742580531810379
aF-0.013481704190968358
aF0.0034879305889739284
aF0.011556623467094008
aF0.008986960834821723
aF-0.018361807238651502
aF0.007910808088795462
aF0.008673116658318616
aF-0.006656281574513806
aF-0.00904296731057902
aF0.005839929511583703
aF0.005008679327290178
aF0.00908880394968844
aF0.023070471483234153
aF-0.01977723882475574
aF0.013143198252176046
aF-0.011391674272549165
aF0.002859412649489781
aF0.004406507055873381
aF0.005695373459908358
aF0.008759978355229639
aF0.0052764450019366985
aF0.021586031804701655
aF0.004272017890853463
aF0.024945945667026896
aF0.014367694279156623
aF0.017379293517238478
aF0.003948886501658486
aF0.021977654309154285
aF0.03430301907307333
aF0.007038197322650148
aF-0.0089950890941683
aF0.0019659625496413727
aF0.008911206868093562
aF0.026038767085987038
aF-0.020611627487060136
aF-0.001380122278054722
aF-0.01708039520015882
aF-0.0013308004942693137
aF0.009447299082885025
aF0.01791099756825325
aF0.02418992731852067
aF-0.013252212905565868
aF0.004050106235681748
aF-0.005417727461743173
aF-0.002575516203340903
aF-0.008456391934240314
aF0.007582174832945943
aF0.0015603805463984036
aF0.01770663105618079
aF0.030211750043338845
aF-0.01155382141328837
aF0.005127862959106425
aF-0.001350293755719367
aF0.011421751768467587
aF-0.00014803296815240046
aF0.002829449125469804
aF0.01380551407373196
aF0.013315589236349712
aF0.013773018416234755
aF-0.010599399187233507
aF0.021180675327491228
aF0.02736529101817346
aF0.010331325004902898
aF0.0014072674010062757
aF0.023087332831560052
aF0.016135361908440934
aF0.0019427857379234726
aF0.0008170512596971332
aF0.013495701076255766
aF0.0037093144952483324
aF0.01351014232796978
aF-0.0065108086874174
aF0.0036964726143974675
aF-0.006776825592776124
aF-0.01077700266090958
aF0.01503551968965976
aF0.013498263439798479
aF0.008863495880631215
aF-0.013013522824412618
aF0.015768167686761436
aF0.0027910849983273514
aF-0.009744251525226323
aF-0.002095236742632216
aF0.00972010408183282
aF-0.006945961840363781
aF0.008786639932746726
aF0.020839593775420256
aF-0.014615020197522297
aF0.007265375278240382
aF-0.0013524163351021521
aF0.005566744739886445
aF0.0031601477796340486
aF0.018403788457700795
aF-0.00013874139913060916
aF0.009559953332583181
aF0.0199646733150128
aF-0.006061607056678911
aF0.027686476815442083
aF0.020169080738110946
aF0.0030052312404853917
aF0.004825793024364192
aF0.005894065195575506
aF0.018659471773596358
aF0.004293958096187999
aF-0.009141926540481694
aF-0.0029712626669876024
aF0.0002602447885836324
aF0.014244828247395305
aF-0.0056661827648205945
aF-0.012795571788447037
aF-0.005744133159284006
aF-0.011169640436718241
aF0.006340598319356154
aF0.0029801442348636967
aF0.022153157040271616
aF-0.016821022498171207
aF0.01229827109249178
aF-0.0033674752157144853
aF-0.002469863189028028
aF0.006526770248565821
aF0.003434747566852974
aF-0.004901920891381204
aF0.0071470797190710846
aF0.015216396730636763
aF-0.0013164895529697914
aF0.006562649387702866
aF-0.006578918997776112
aF0.010604689235520402
aF0.008523556828856946
aF0.0034686450114288893
aF0.0011200628504679062
aF0.008485829277063407
aF0.015464471191037742
aF-0.004035895129496775
aF0.021838148490645918
aF0.022129452188109015
aF0.0011667942072801393
aF0.0065081969355139544
aF0.010435320689315344
aF0.017190255803673622
aF0.0002632438783180891
aF-0.014420935801567608
aF0.0003639471635343938
aF-0.0020436334302043517
aF0.0261927494011071
aF-0.011732575292678828
aF-0.004734791580758186
aF-0.016081645023697067
aF-0.006666956878465252
aF0.014422544589727491
aF0.017452107227864076
aF0.012765658633846863
aF-0.009260413367601817
aF0.01494238266743604
aF-0.006850460398502263
aF3.129754879813954e-05
aF0.008016744085957806
aF0.005091121671165076
aF-0.011266763543640864
aF0.016222250450166127
aF0.028022597819965273
aF-0.018686819883351937
aF0.01334919895295256
aF0.002255595837886042
aF0.0026677304595608183
aF0.0009469370743350046
aF0.018225737131202187
aF0.007502313189047494
aF0.00844756843059458
aF0.01519824700861652
aF0.007557473180409858
aF0.03482418921775494
aF0.02899917574626186
aF0.0055518564246604535
aF0.016134889263834093
aF0.02108104566924156
aF0.0281960647623868
aF0.0015079465637844905
aF-0.0007655673823153122
aF0.014731026490616006
aF0.01341753819091304
aF0.012709243637193153
aF-0.020174332102366955
aF0.007457693921356868
aF-0.010756627137524396
aF-0.005937080596707405
aF0.011971628793590839
aF0.011594809311058867
aF0.012660193295485586
aF-0.018254690662967855
aF0.008459942529148874
aF0.008865788625652205
aF0.0026454308818175502
aF-0.007147729779132054
aF0.011145589058619019
aF-0.006865654177551898
aF0.011548233673181914
aF0.02867344482109102
aF-0.0032541412441519733
aF0.008810161221506418
aF-0.00949146598231659
aF0.0070435114092604655
aF0.011799614138011526
aF0.011770257411172078
aF0.011877641128860129
aF-0.004016499705211977
aF0.02311757125657811
aF0.0008164274296338292
aF0.02264049003088291
aF0.012923352389427316
aF0.0027432403463204524
aF0.011014963526779439
aF0.00994773941431081
aF0.020374661257354675
aF0.002230713055933778
aF-0.008606313736057051
aF0.0066849904401424486
aF-0.0034999583543165987
aF0.024659012048482996
aF-0.017900970594411397
aF0.002112824430281527
aF-0.009578775107680026
aF-0.01473789630839186
aF0.00497547116001199
aF0.01735326085718204
aF0.017069346482084892
aF-0.0011480028594596406
aF0.013952854091427724
aF0.00846761140857873
aF-0.005503256799250783
aF0.008200189577304676
aF0.00814812846412404
aF-0.0005413026472762656
aF0.016951765316363682
aF0.019053072488978213
aF-0.011286320287840343
aF0.008540955128222389
aF-0.013103262241346907
aF0.00408425360188968
aF-0.0015628616724053961
aF0.01753242484123076
aF-5.51882051379334e-05
aF0.011707350358244165
aF0.017294934230853293
aF-0.008010922264803409
aF0.028381097571839507
aF0.020201644673858404
aF0.011942785244006696
aF0.002719934365654017
aF0.012036004227189508
aF0.0214477437413527
aF0.004799606651229132
aF-0.013460390931404335
aF0.008131861105867652
aF0.011144881588756175
aF0.013673849405384745
aF-0.008426301939469291
aF-0.0016492064059395464
aF-0.004826918221076197
aF-0.0047756672334726
aF0.008718999598157374
aF0.002594457252739049
aF0.025190683009989046
aF-0.002423868841637726
aF0.01524929279763511
aF0.011935030337766512
aF-0.00785217658447465
aF-0.010761243740010872
aF0.006556730036378399
aF-0.0028646692099189115
aF0.006547915146440063
aF0.013532620701370993
aF-0.01829995318709496
aF0.016582718917223887
aF-0.007808196420887703
aF0.0021098062096355347
aF0.0032420858015376397
aF0.013539474815020424
aF0.00701693153396191
aF0.007107475163280826
aF0.008752532035571074
aF-0.007766043665287506
aF0.03347775475125149
aF0.01629042675517953
aF0.011769041485007466
aF-0.004297636249868052
aF0.00681100654415159
aF0.03166460751612228
aF0.008785790098309125
aF-0.004703021032889054
aF0.01072965783902369
aF-0.0008030368973815599
aF0.013053064793647911
aF-0.011811967206972725
aF0.002161632916384439
aF-0.01741928744776916
aF-0.009508564609516396
aF0.0024895963466510683
aF0.0004108968920602716
aF0.0162453975330694
aF-0.013069088226685732
aF0.013703783279148842
aF-0.0027809119609610083
aF0.0033453988791727063
aF-0.003041327373096705
aF0.009597291573821536
aF0.009098028174656415
aF0.0032804029122871807
aF0.020251224778598538
aF-0.3253838898970576
aF0.0034962352965632864
aF-0.3337499217120404
aF-0.34722147880025134
aF-0.3293871641375545
aF-0.33088000722324945
aF-0.33033669292394496
aF-0.35148292717993634
aF-0.3388255456468999
aF-0.33169390637008234
aF-0.33597189591698773
aF-0.2946909754050447
aF-0.00945622732742334
aF-0.3044820066032048
aF-0.3057018644162261
aF-0.31019327068678393
aF-0.29828969791707954
aF-0.30596923369968726
aF-0.3141382819712837
aF-0.30312918851305887
aF-0.31060839444106414
aF-0.2935789667210982
a.