(lp0
F-0.0016702876126213847
aF0.012790005850430598
aF0.00805540422042492
aF0.007323005694139757
aF0.010009998859794766
aF-0.009479072348692037
aF-0.003055984755824014
aF0.0017345994745969462
aF0.003946062024595823
aF0.011619202231088178
aF-0.0009721218562074717
aF-0.0010707787419285619
aF-0.0005672286048357489
aF0.0017769314986653575
aF0.004315730956018798
aF-0.005823479951573868
aF0.0020495983446326815
aF-0.0044643021417036625
aF-0.002441167819973363
aF-0.00443468160832278
aF-0.00012811426339799084
aF0.0021084827819321614
aF0.010481137412992758
aF0.0010968758882864149
aF0.007160270783707996
aF0.0042262430704729775
aF0.002875462764586979
aF9.049197020939833e-06
aF0.0062285880603174274
aF-0.00203082102780269
aF-0.00718440419873792
aF-0.009444372504899969
aF0.012717026598269163
aF-0.0021549705783449886
aF0.014050234212339611
aF0.009648401963237815
aF0.001109630026110078
aF-0.0008104466757715789
aF0.009556776288166549
aF-0.00029228655230041254
aF0.007993283700858033
aF-0.0016536177152160216
aF-0.0065559182456265425
aF0.004396769135928831
aF0.005737904716667759
aF0.007006454005627014
aF0.013695263822967187
aF0.011558484395239307
aF0.0014498747149996026
aF0.001875598202604763
aF-0.004657462657353322
aF0.010149629849710826
aF-0.005107836680115431
aF0.011675477137850972
aF0.007728516420391357
aF0.00860027498747116
aF0.0031147400285096603
aF-0.006960864034783948
aF0.008573646059350525
aF0.012121169523484457
aF-0.007301167023059764
aF0.00020379047018494884
aF0.0015527978083697722
aF0.0003186523719524992
aF0.007413565603376956
aF-0.006513686364858957
aF-0.004626305267302343
aF-0.010502098891277008
aF-0.007207279138092377
aF0.012702600282145107
aF0.006382981053162206
aF0.00449313772485285
aF-0.005443616353914529
aF-0.0015000468221190266
aF0.009526632420584314
aF0.009131417582119373
aF-0.0019122829834735868
aF0.012025266956232626
aF-0.007359131171072137
aF-0.004318113619471705
aF0.004867413842843391
aF-0.006773987818638366
aF-0.004239442287022405
aF0.013938379249938262
aF0.004271543495672765
aF-0.002569358974061295
aF-0.0037909814405486194
aF0.008605801594737367
aF0.0008962268897619806
aF0.006104313808783873
aF0.008285936709698138
aF0.0005967143156578314
aF-0.004508892879145159
aF0.010812449271759204
aF-0.0012497855814952302
aF-0.006227673941896793
aF-0.001332638561642879
aF-0.004621837460408968
aF-0.0007766815558956229
aF0.0010456259007897606
aF-0.004346543220551443
aF0.004013036149837697
aF-0.005986763947126019
aF-0.005054026555702406
aF0.008400273722950984
aF-0.0069118230800207636
aF-0.0065445038838777315
aF-0.0010723280425993225
aF-0.005497811695146669
aF0.008171136255270063
aF0.0018901309656458721
aF-0.0011537916022809935
aF0.00830531925129626
aF-0.0001985665406330421
aF0.0050647275670373275
aF0.00071185698831543
aF-0.004930570037220231
aF-0.007295468942503129
aF-1.6030221431619345e-05
aF0.0027761631426266795
aF0.012288992800791933
aF0.0043608476560955435
aF-0.008104341567092879
aF0.005468328642199352
aF-0.006800086461739266
aF0.0040491600574928096
aF-0.00236653781463926
aF-0.00040657533898237315
aF0.0052546228189009475
aF0.001166865263278386
aF0.008630126612338803
aF0.0003393011546865834
aF0.0006446109736674467
aF-0.0012186230069843906
aF0.008189491693579822
aF-0.002623105533597365
aF0.0105328895125079
aF-0.006296332344562533
aF0.0013775905857369302
aF0.0016263507029256367
aF-0.00639454461120354
aF-0.006711329511180198
aF0.00709087864005101
aF-0.005360396782580376
aF-0.004202682127886146
aF-0.0004664156794523459
aF0.007126021793374053
aF0.0009878529820002559
aF0.0029589874798168136
aF0.009902739012205827
aF0.0020770894724718722
aF0.014323214008284704
aF-0.0023285984801760433
aF0.0023970317137534153
aF-0.007572100659623561
aF0.010919253560890362
aF0.0015324101667494004
aF0.005965612244915468
aF0.0029617823505304923
aF0.01056627189851847
aF0.004283099339283886
aF-0.0022800610853301517
aF0.012079345321874619
aF-0.00342337630041154
aF0.011322192972536813
aF-0.0024395561239539468
aF-0.007671179186701254
aF0.009316715786620015
aF-0.008283885617729383
aF0.010358655763478861
aF0.010265349916489162
aF0.007920585248031577
aF0.0005683110327916532
aF0.01239961928058812
aF-0.0053293371197326205
aF0.002270114904390108
aF-0.0026973499658400875
aF0.004992582722355999
aF-0.001921919183256436
aF0.009709458658344033
aF0.010473087666634871
aF0.0017898256151827206
aF0.006507810012837776
aF0.00331634957140461
aF0.01129559411614558
aF-0.003183441344824009
aF0.0059174939656074154
aF0.0036361790164754987
aF0.0005195288134536898
aF0.008220329327002618
aF-0.009444353632439664
aF-0.0055491079335874185
aF-0.0036567971259432496
aF0.005640800042839538
aF0.01207698727610019
aF0.002125396516581003
aF-0.0019914616731987805
aF0.00893373766797704
aF0.006376228870981728
aF-0.00010151913211263355
aF-0.007338866464802233
aF0.0026431123128663856
aF0.008760462380508172
aF-0.0014895420361367903
aF0.010510887002432303
aF0.008309389597378827
aF0.011882116277592515
aF0.006286985918972436
aF0.0009857440416267762
aF0.007703513256171216
aF0.008917300070132967
aF0.009301384239326523
aF0.0051962663485961205
aF0.011101715734789193
aF3.0167040416409583e-05
aF-0.0030211768613245377
aF0.008952140601289679
aF0.012723945665365692
aF-0.0063354820930270435
aF0.008323494354682609
aF0.008192300068569129
aF0.011602897469711538
aF0.005574024471804794
aF0.010449866249397269
aF-0.005656856510023676
aF0.011402718565911595
aF-0.0023129122819329564
aF-0.0024038302758409924
aF0.005422757832351702
aF-0.006444172514439487
aF0.005959872602979526
aF0.007684667598244506
aF0.0011243784043297297
aF-0.0011607252487350365
aF0.002289839231084822
aF0.0010568162001431405
aF0.0049529326092740255
aF-0.0022869410667157976
aF-0.00722678666310321
aF0.004088694254156249
aF0.002066645235296222
aF0.0024668680591870915
aF-0.0034813051309270406
aF0.00021124350690438637
aF0.002245565408401193
aF-0.004519992613438804
aF0.010751047098014289
aF0.011350040603004319
aF0.010436025940695714
aF0.007787871765629028
aF-0.00696158009831253
aF-0.008940224351645664
aF0.008487781920032553
aF0.0037308197293602504
aF0.001615855368466589
aF0.005924076777947586
aF-0.004140904524483409
aF0.010094425825139556
aF-0.006962588215800045
aF0.005666763758009237
aF0.005418733539984811
aF-0.006742795464759964
aF0.004473477597938738
aF0.00483624677151515
aF-0.0005634599031387798
aF-0.000795019692330131
aF0.002404431113334515
aF0.009387629745638674
aF0.010823022518479719
aF0.0019612703886486248
aF0.010492565805787363
aF0.00034753094687283966
aF0.008678259031684274
aF0.012240204370731344
aF-0.00026443288786277656
aF0.0050312868156414114
aF0.003406302613497328
aF0.009809110238019557
aF-0.0019655893521171993
aF-0.00866887310983881
aF0.005017436151068132
aF0.005492499270487427
aF-0.002424800357145208
aF-0.005332852616634917
aF0.0017260192696036119
aF0.0008275640520302261
aF0.007387624992512208
aF0.005879707819395433
aF0.003315108288462018
aF-0.001957320122692242
aF0.003455120689969414
aF0.007351246523283706
aF-0.002971718956011232
aF0.010774840896586755
aF0.00942919869958689
aF0.0014437493229040488
aF-0.0019477651630138953
aF0.0090213258515788
aF0.0019940784251436137
aF-0.0039930832010049684
aF4.225816997971551e-05
aF-0.0052742729860396
aF-0.0008143938704314681
aF-0.00011208303487328678
aF0.0038113712037404854
aF0.009465312935686634
aF0.00912412651079025
aF-0.006644099829150005
aF-0.005927731352811942
aF-0.0019434923603756846
aF0.004550453732755548
aF0.00399068598904379
aF0.010162081341610445
aF-0.004837103127619721
aF-0.005977601011769591
aF0.006506156608213256
aF0.004690651725921013
aF0.011689477179252141
aF0.012867025810173988
aF0.01145880284638843
aF0.009618520055048938
aF-0.0014725965806101366
aF-0.005874071024878678
aF-0.004699386525999108
aF0.0038785890657198393
aF0.007645910661806728
aF0.005068268896084908
aF0.0075900668550079944
aF0.002382766517796379
aF0.0014103536506910974
aF0.00909743064738031
aF-4.7655075725634276e-05
aF0.002350528381724227
aF0.010772413418327173
aF0.010815047515919869
aF-0.008836604604480153
aF0.004228463409406071
aF0.009285782244290245
aF-0.004280717621610567
aF-0.006188368375748366
aF-0.005205216945099386
aF-0.000420049717094079
aF0.0035604342890054063
aF-0.0008217804854884212
aF0.005287309490239762
aF-0.00936879251452368
aF0.0038349883936675743
aF0.0027554832281381676
aF0.0018903735037535685
aF0.003022155663404883
aF0.004454157391277527
aF0.0038909089294024224
aF-0.0012441103280733728
aF0.006299495969146708
aF0.007875527510050004
aF-0.002009383807819555
aF0.00415973070316536
aF0.007466490664436868
aF-0.002489874795613364
aF-0.006297149946685185
aF0.003545301960492806
aF-0.0032492453243836753
aF0.006556346648974743
aF-0.006204100672469955
aF-0.005087294199499531
aF0.010372494016605185
aF0.005557525121362917
aF-0.001778884479610044
aF0.0004515969192268143
aF-0.006865022399558846
aF-0.005088343485849991
aF0.004840585609418558
aF0.006463781878332216
aF-0.0035208457827975125
aF0.006566606507160401
aF-0.006890339469647929
aF-0.00326891200674694
aF0.00972104805007695
aF0.0034754444664674465
aF0.010515326701698234
aF0.005685706651628407
aF-0.007867700915659612
aF0.007843676209114653
aF-0.004518139867432776
aF-0.004619113527735428
aF-0.006559229440215213
aF0.0009202165874148346
aF-0.0005075978327956191
aF0.010590521792535657
aF-0.00048551851086027194
aF0.005246179736868796
aF0.000724141274263292
aF-0.005923173245134864
aF0.0019089860690614286
aF0.012066129615252358
aF0.00017194437484773124
aF-0.0037637536929865743
aF0.009710738085766236
aF0.011908110481266517
aF0.0039746083701232724
aF0.003435262617385944
aF-0.007916114972470533
aF0.0060478277656534594
aF0.0033999259167983922
aF0.01122167105878553
aF-0.008026299393867377
aF-0.0013318703129924963
aF0.009481317446047497
aF0.005699561549501086
aF-0.0035879212039251324
aF-0.002063617234777599
aF0.01077676964258536
aF-0.0032212197911951294
aF0.005458017899025496
aF0.005894599014067631
aF0.008927946245891891
aF0.005241673589179553
aF-0.00480460216148999
aF0.0007848270627018681
aF0.0048673025924178236
aF0.0012507013715733952
aF-0.0006114379301241457
aF0.007375276200960097
aF0.002264395339682937
aF-0.0015828025776248949
aF-0.001602706778674905
aF0.00869524640925665
aF-0.0004713251985275092
aF-0.003069559859947161
aF-0.0021839306833756184
aF0.008897332093000282
aF0.007697981070685594
aF0.00587150455661286
aF0.012855753595355813
aF0.004453925427534358
aF0.005521298016048006
aF0.010013463860505969
aF0.0005394598845996049
aF-0.005869678936135252
aF-0.0036582403263986617
aF-0.001950724615802712
aF0.007230165643086995
aF0.008356580789171288
aF0.006124028770279021
aF-0.005203974850048375
aF0.009112589574810677
aF-0.0005978057724881757
aF-0.003996603312035203
aF0.0035433891418194703
aF-0.010541937771908195
aF-0.008694514923736685
aF-0.004910012499905777
aF-0.004813498119819663
aF-0.0006811870714891338
aF-0.00017861271869254805
aF0.0043382589588897465
aF0.006063040617685945
aF0.00969970537377445
aF-0.00401500227581739
aF0.007631495645699219
aF-0.005766490374675898
aF-0.0007518656674440208
aF0.00756586287246343
aF0.0038711716215480783
aF-0.008479735367441444
aF0.0117070700543403
aF0.007087408180512319
aF0.007762441522952547
aF-0.0072053765211251885
aF0.002913399371274103
aF0.004213744145657905
aF-0.004196811468186278
aF0.004407584997061708
aF0.00834644855665111
aF-0.007838147878234053
aF-0.009581748887768684
aF-0.0022322606528078987
aF-0.001975550831599137
aF-0.0064350013922843076
aF0.010809714335184068
aF-0.0012656084441857699
aF0.004515738133590412
aF0.0008681620344179683
aF0.008783492045165103
aF0.007659359762470629
aF-0.0064389830562201905
aF0.004440362584293518
aF-0.0006768837323040974
aF-0.00579203521763233
aF0.008692425368290582
aF-0.000667597874732374
aF0.008764208987091047
aF0.004085874286333878
aF0.01046628900777457
aF0.007341337635789258
aF-0.006628860066710136
aF0.008402669892249174
aF0.008085195837542717
aF0.008423751310497234
aF-0.006665239844097496
aF0.013176881253048807
aF-0.0029710486831908208
aF-0.0031485868458748646
aF0.0006824074335640715
aF0.008625121091688465
aF0.009048983579379678
aF0.003400687281893283
aF0.0008872048466923475
aF0.007108139365183792
aF0.007523042061365977
aF-0.005572430861364537
aF0.001566064512485906
aF-0.008825617466170723
aF0.0019737606660634264
aF-0.008536072579269614
aF0.014070632354306011
aF-0.002837489570885174
aF0.0006300667149527458
aF0.013465885665533743
aF0.003388861336674398
aF0.0015944858697555242
aF0.002204145192394998
aF-4.402995739936867e-05
aF-0.0015550265228163316
aF0.006864944895496227
aF0.005609157024405675
aF-0.006345026333772668
aF0.008428149627455268
aF0.005472786491648429
aF-0.0077749174897680864
aF-0.003123263557702743
aF-0.005975106548474714
aF-0.004296147486766298
aF0.006789630684693657
aF-0.0006603849440135869
aF-0.002300269433848784
aF-0.003191077283376963
aF0.007591117642490439
aF0.0062880311931509045
aF-0.007705299929767732
aF0.007925418964386474
aF-0.0022756022728253264
aF0.010543457775347426
aF-0.0025890302133555216
aF-0.0025059022824224855
aF-0.003677269204220702
aF0.008873926425248696
aF0.003350666974486472
aF-0.004186399914605392
aF-0.009635329509292509
aF-0.005570279951398499
aF0.008251958386132335
aF0.0011676834486494775
aF0.005804219874113644
aF0.006916574143946063
aF0.010889898889014591
aF-0.003315674310737886
aF0.008653677232156367
aF-0.0009606548484131785
aF0.010422918811792846
aF-0.011259854458569852
aF-0.00534108844780359
aF0.009434464825380951
aF0.009342986302367632
aF0.010589900313163805
aF3.4645198384037094e-05
aF0.009925957612387343
aF-0.0020567988222451733
aF-0.005357260028089024
aF-0.006244347138910303
aF0.003379797359434767
aF-0.007759737570258452
aF-0.00703075024791509
aF0.004183532798536127
aF-0.005279506318620365
aF0.0029971271483187015
aF-0.0020272112296979604
aF-0.0038960967947074517
aF-0.0008965173285839514
aF0.008695118113357388
aF-0.003859184240311798
aF0.007954152458806759
aF0.013902572522532058
aF-0.007689798530415323
aF-0.0078062849876793005
aF-0.00016771768974570777
aF0.0031937079505311326
aF-0.0037325014121087317
aF-0.0018151744556706316
aF0.008757906518198374
aF0.010436481799307817
aF0.011834378792792498
aF-0.003261906555984968
aF-0.0038029800032691095
aF0.003011786299766786
aF0.00884377431422217
aF0.011232099441055689
aF-0.01235518001341443
aF0.005739608536050136
aF0.003416251119871099
aF-0.007389653265443139
aF0.006964364736558792
aF0.0038393841512058694
aF0.001616341361040026
aF0.009382046871476339
aF0.010842540190733442
aF-0.006793717876771726
aF-0.007702667808219309
aF0.010367940027842347
aF-0.005430571954147504
aF0.0021423764565379104
aF-0.0015508625348020825
aF-0.0059020458796051984
aF-0.00032946790333037877
aF0.012056079880788023
aF0.01000683553562001
aF0.007976422607685968
aF-0.0014627566160020588
aF-0.005261297022881929
aF0.010032807041864907
aF0.00727092536512193
aF-0.007252337336601838
aF-0.000777063311462255
aF0.007389761494505061
aF-0.0005521792002772044
aF-0.0030385213878979496
aF-0.003394642303125218
aF-0.0010528604051237688
aF0.010410020494702766
aF0.010038959153870729
aF0.012798676556962553
aF-0.004330628000912229
aF-0.00026960600089741206
aF-0.004671766652927965
aF-0.0030309723809225668
aF0.007201314569546902
aF0.006371686328564751
aF0.0038414140864393787
aF0.0020529407469861956
aF0.008735991819913315
aF0.008556081977447552
aF0.0013765480192633557
aF-0.0024857884665865464
aF0.00427375503490028
aF0.003200274406875768
aF-0.002943383435962897
aF-0.006773006881020705
aF-0.006548406903616297
aF0.01137914944617969
aF-0.008747732929744326
aF0.006647494200610377
aF0.0019907652193238727
aF0.01153620507833714
aF-0.0010109551918586022
aF0.0003224977387816543
aF0.004086841230368545
aF0.013126391115577318
aF-0.00343449391863676
aF0.008169127280177846
aF-0.008835886601505995
aF0.0036871553303717258
aF0.0008920329197800037
aF0.007585652217616581
aF0.011743342043553666
aF0.005881901005030865
aF-0.006236254855336567
aF0.0015071778308558895
aF0.007293343737262171
aF-0.0012878937791761826
aF-0.0036107605049380933
aF0.00895479824207939
aF-0.01038360814265209
aF-0.0005427876023608278
aF0.011165488966406576
aF7.099689246150339e-05
aF-0.0061402478245564445
aF0.009183868623917246
aF-0.0052326073618639045
aF0.008935967823698326
aF-0.003752140537434363
aF0.0082959031585329
aF0.00512430574297152
aF0.0017000423198603339
aF-0.008584603755537904
aF0.009926834518979709
aF-0.0017427535130818013
aF-0.0008042151275314236
aF0.006519202277947801
aF0.008539093814661738
aF0.00450515782201808
aF-9.137969989144379e-05
aF0.010187962956293014
aF0.008238545913168955
aF-0.0060955639885719925
aF0.00421530899759615
aF6.912839245849117e-05
aF0.0033952653923416485
aF-0.0010677814175517454
aF0.006076683530242559
aF-0.00015521435827529396
aF0.0053922930679594205
aF-0.004398310139253657
aF0.005046252802985641
aF0.0055654536796476434
aF0.010601660352898777
aF-0.0019503200648179728
aF0.008049414344348738
aF0.011266103980004808
aF0.000970690621923811
aF-0.00034042490288431807
aF-0.002007732851904792
aF0.005838298571687385
aF0.004978698585076988
aF0.0021667141402669683
aF0.011050290685482718
aF-0.0005122593996889622
aF-0.0008664628660562065
aF0.0007820824111213979
aF0.0033256072291142098
aF0.0005123372553299916
aF-0.009016505016496465
aF0.003223027792820448
aF0.004777589092364854
aF0.009551685509860693
aF0.0022365971061577387
aF-0.0026789738607600915
aF0.006412689041293466
aF0.0033663669934862962
aF0.00019621544619217524
aF0.007411004931019304
aF0.00022798481574370444
aF-0.0015678618947047545
aF0.00986202207533028
aF-0.0010830102974425286
aF-0.0015451728324628045
aF0.011371288709239712
aF-0.0025065161267735147
aF-0.0024606977965460704
aF0.0023250878255551928
aF0.010113495105998582
aF0.12270524391440059
aF0.003400359757780816
aF0.12321547329091156
aF0.10790899156857064
aF0.11318722069328734
aF0.11881015522871055
aF0.12072299922728714
aF0.114806381817892
aF0.12099106304041025
aF0.11542762538508104
aF0.10759782170512266
aF0.11051199740915625
aF0.10743883453686975
aF0.10529837109406671
aF0.11845547106629709
aF0.12014578431403793
aF0.11067608258639128
aF0.11084682094724813
aF0.10938311372940407
aF0.10347855719408591
aF0.10628820530336909
aF-0.15614017109844455
aF-0.007075280891626011
aF-0.15372316097256825
aF-0.15887918445135388
aF-0.15486619058704273
aF-0.1546628409368951
aF-0.1506306932487524
aF-0.15176429823862894
aF-0.15577889155755542
aF-0.15944607925709298
aF-0.14206924795492581
aF-0.1581183955033609
aF-0.16268256835218836
aF-0.14877186093218833
aF-0.1565685484782009
aF-0.14621601394776085
aF-0.14404764397128866
aF-0.1525049400990396
aF-0.15955849068110287
aF-0.15118144457963495
aF-0.16128927375395447
a.