(lp0
F0.005525535745194322
aF-0.007645606674979984
aF-0.015910574788566504
aF-0.003053858119511689
aF-0.01635498198974283
aF-0.023515900859323306
aF-0.015682329613448533
aF0.0006391708984678072
aF-0.027939927130738843
aF-0.00021520692271125252
aF-0.015776095303965825
aF-0.016021130317977642
aF-0.014438593976954002
aF-0.022110058717694697
aF0.002622194623709614
aF-0.015964119028330337
aF-0.0065504580892594986
aF-0.02066190973221531
aF-0.01717144475445418
aF-0.00040335991775292975
aF-0.018288961668606697
aF-0.00568606459148562
aF-0.016668244986473745
aF0.002898742248614442
aF-0.0064024581189413374
aF-0.004605261781120058
aF-0.00199471906957995
aF-0.010568778042035133
aF0.002569774709760899
aF-0.00751681588777986
aF-0.0052154283290605594
aF-0.009446739322415215
aF0.0013703271016223975
aF0.011295018481623911
aF-0.013385590326516572
aF-0.0035632572475718365
aF-0.004050229062795508
aF-0.00858878083294552
aF-0.008499665157543447
aF-0.004293346978085569
aF-0.0019493262239253855
aF-0.014454805654031098
aF-0.011532595361190006
aF-0.007591730243248511
aF0.006764235907075277
aF-0.026786776948166367
aF0.001554885129112337
aF-0.01840741162589523
aF-0.018762020371246867
aF-0.0040128068063239805
aF-0.01963280803273262
aF-0.010147441524585875
aF-0.011914280426086166
aF-0.004094398828330315
aF-0.018439706550833965
aF0.0004605839793239999
aF0.004894482892070599
aF-0.018864749936024217
aF0.0008556742806221362
aF-0.006433558615639545
aF-0.0061414064483245046
aF-0.009813501902705314
aF0.00951232513780131
aF-0.006343177271935298
aF-0.00903539888490527
aF0.0003762660008571469
aF-0.013748608173028535
aF-0.017165556787528062
aF-0.014201394025180947
aF-0.0010603395848144009
aF0.0015879321140984067
aF-0.01488911198733691
aF-0.0014573724498295768
aF-0.007181206274832599
aF-0.0038118140031032184
aF-0.00918814186254018
aF-0.015136258806691404
aF0.008922255851717954
aF-0.006251670761507148
aF-0.01391051559559802
aF-0.012100277399727716
aF-0.010663190423061292
aF-0.010219734894895582
aF-0.0008893569849919575
aF-0.022004686424908246
aF-0.015643260237092227
aF-0.003912152021574469
aF-0.0220252200762694
aF-0.0008751802412565324
aF-0.011577646533567321
aF-0.005725986524517015
aF-0.015593642309121535
aF-0.0022479340392271615
aF0.002554705181014557
aF-0.024229526859504327
aF-0.0014136121892531347
aF-0.012890524185752398
aF0.004743662021319072
aF-0.007253385091357386
aF0.003559132719913129
aF-0.016021744952288232
aF-0.011990985693818212
aF-0.0017556127940840114
aF0.000781376646382021
aF-0.014462185106888594
aF-0.012006577730519441
aF0.009972823927152727
aF0.0002546564092540302
aF-0.01679161656610912
aF0.005533951173403035
aF-0.004824078299647004
aF-0.0020629573354500256
aF-0.008562483247866601
aF-0.005013380224440195
aF0.008162855122210431
aF-0.016586709960481692
aF-0.011749718267557377
aF-0.013662717117661722
aF0.003688355846355389
aF-0.021656117174448392
aF-0.0055126151958993855
aF-0.021997732197164763
aF-0.01545494674482099
aF-0.02314422397654117
aF-0.006704421748576105
aF-0.004115304973917343
aF-0.016714630984838854
aF-0.001441535031816848
aF-0.018376028051447207
aF-4.6990433237200417e-05
aF-0.00256335131778405
aF-0.025756937735312922
aF-0.0011916686955870748
aF-0.006335254706833496
aF-0.008885327387682704
aF-0.0031811993414227408
aF-0.0014832457885104887
aF-0.010980773191375501
aF-0.013530406131019163
aF-0.003310114666083196
aF0.0020113610591964304
aF-0.01839794629452073
aF-0.013714375126041978
aF-0.003772128992476491
aF0.010525360178563615
aF-0.0018344459437557785
aF0.001410917273350776
aF-0.007230320673318411
aF0.003620622615736932
aF-0.019120846920549238
aF-0.008622006277150922
aF0.0038993782872822533
aF-0.017157660960164686
aF-0.02510885014813629
aF-0.004543990699771292
aF-0.010545367090268085
aF-0.02495354358977667
aF0.00014236671007867484
aF-0.02466125233469333
aF-0.013413287395840537
aF-0.008861714741335694
aF-0.014539531294642253
aF-0.010382790090822231
aF-0.008495664578327672
aF0.001720056148827676
aF-0.01000750377255517
aF-0.010539148111560816
aF0.00044604952911277146
aF-0.01810478507093295
aF-0.0113607727620355
aF-0.010106875296876667
aF0.0038657563724142237
aF-0.006482731374075395
aF0.005652367152798832
aF-0.0004983245173318082
aF-0.003299168144319476
aF-0.009250041257846163
aF0.0030351244694408743
aF-0.018681154765458223
aF-0.00012972893752302483
aF0.009317209440604546
aF0.012929951635233725
aF-0.0077712466095062275
aF-0.00937817475123039
aF-0.006144893491697431
aF0.005354712924137513
aF-0.024498003418872257
aF-0.005254409165557303
aF0.004439226435947612
aF-0.012826487971380304
aF-0.012182923271564316
aF-0.006671166026614264
aF0.0003199794026781679
aF-0.023997649192830383
aF0.002655105405235515
aF-0.026486134222036238
aF-0.007107771457756582
aF-0.014110362927968117
aF-0.013627206273798341
aF0.0017466078877868732
aF-0.005742044404793854
aF0.0012856178725572662
aF-0.012436387428220612
aF0.0010783685044254612
aF-0.006044823032679134
aF-0.027988538249450547
aF0.0010558646629226294
aF-0.01165495404119063
aF-0.002468676171566909
aF-0.011917547073405683
aF0.006277546709017963
aF-0.01730504902416993
aF-0.01770301428688409
aF-0.003908347610950233
aF-0.007520115362144143
aF-0.00684589387917657
aF-0.013376120641865538
aF0.010486867350921414
aF0.004631978392876894
aF-0.00032255189826723763
aF0.0067947850991929145
aF0.003005120340529382
aF0.0009109809701753583
aF-0.022145517766436643
aF-0.01114306455715169
aF0.005731324331557903
aF-0.020207267719295003
aF-0.011515059153853965
aF-0.005926384277076863
aF-0.0017275519375537516
aF-0.009398839027448563
aF-0.014117827181507928
aF-0.02572995614383572
aF-0.008832369409430454
aF-0.02214691530122554
aF-0.00942663623534154
aF-0.005145934609834412
aF-0.012361389427552189
aF-0.006482194707586979
aF-0.014391694150045693
aF-0.010498547363308266
aF-0.004463319963746342
aF-0.02710783419217158
aF-0.015236991127190921
aF-0.01386628293852652
aF0.0030275431229049568
aF-0.00921002469284147
aF0.0030910500210323275
aF-0.0007277457636900722
aF-0.006182643883917744
aF-0.013484808026428267
aF-0.002602492096256067
aF-0.0037668671635802736
aF-0.008655971154456288
aF-0.008754571375433284
aF0.0033629625344981802
aF-0.015934416236621493
aF-0.01199208306766939
aF0.004983685365468914
aF0.003914410108728029
aF-0.020970149211580254
aF-0.017539043486993557
aF0.011034790398203579
aF-0.007903736152041676
aF-0.024094049367730137
aF-0.016485606135733653
aF-0.00928366027919824
aF-0.01279887893561038
aF-0.005869271572187744
aF-0.01406959841317099
aF-0.014103973906724195
aF-0.018591435597609736
aF-0.004707816684917661
aF-0.012930358335031856
aF-0.003170738995463681
aF-0.01020469375308747
aF-0.019987904298726378
aF0.0002115320153641362
aF0.004794754226983281
aF-0.01933564528276096
aF-0.015029807215439155
aF-0.009088176589008392
aF-0.005575664714735452
aF-0.00566772322696299
aF-0.009075807957755927
aF-0.008767157158175562
aF-0.0015581574538383071
aF-0.010557400012136162
aF-0.0024394195643898334
aF-0.01563505744062284
aF-0.0029141193347793186
aF-0.0013834714266818125
aF0.009305232578614594
aF-0.0039833811182645625
aF-0.011927124462771378
aF0.00649962144074548
aF-0.0064005507095580005
aF-0.013361798325348444
aF-0.016268377591176653
aF0.006304769233422801
aF-0.012262493319936806
aF-0.01748029128754618
aF-0.015508739511419938
aF-0.001310642722089011
aF-0.0167236536037035
aF-0.012018043539634631
aF-0.022797932316391812
aF-0.009910776004245125
aF-0.01247045900738266
aF-0.013073380254479357
aF-0.005210917468053579
aF-0.014927027522359108
aF-0.005306916261390609
aF-0.01483580107056653
aF0.00026283408117586934
aF-0.009016040133311486
aF-0.01704697204209985
aF-0.011435062645681629
aF-0.018531405746385555
aF0.0025930678053234014
aF-0.018831536598897695
aF-0.009413520521280298
aF-0.011758309067935954
aF-0.005756110918226874
aF-0.00905456651399687
aF-0.0032728846510140103
aF-0.005296237772710325
aF-0.013451080563764126
aF0.0023537298459942717
aF0.00555815403319327
aF-0.00824231175926616
aF0.003231133800570307
aF0.010893134846211827
aF-0.013621817676542317
aF-0.018014506591159607
aF-0.014415571286005412
aF0.013471803882600572
aF-0.013100076618140537
aF-0.02116179178329571
aF0.001867491250751486
aF-0.010975831859962242
aF-0.02572978666892143
aF0.0001870494461354746
aF-0.019706041150251107
aF-0.01994396164981153
aF-0.009174742641006508
aF-0.012671244804775866
aF0.002619779719053043
aF-0.014146840471532814
aF-0.0010422702919825485
aF-0.0014260743802740738
aF0.0015394970172043243
aF0.0013338364264921694
aF-0.01390433617244219
aF-0.005121784544280543
aF-0.004673825460295859
aF0.004798007531128629
aF-0.007069079667336779
aF0.004139035267728855
aF-0.0070353566960229905
aF-0.018568142275018646
aF0.004309021228280404
aF-0.000926284637026425
aF-0.009429771391170102
aF-0.011674630293682443
aF-0.0003127882529087153
aF0.010654356875047467
aF-0.010649424592664575
aF-0.013055480158783567
aF-0.002415173486449205
aF0.00047771216797974484
aF-0.007542345210438079
aF-0.005338254474968426
aF0.01425752636407855
aF-0.016273948110922358
aF-0.020433920834248824
aF-0.010101486442603976
aF-0.0018290779036987466
aF-0.014598975999464017
aF-0.013471011189796451
aF-0.02415054529728172
aF-0.0024405762504228754
aF-0.013794121185208895
aF-0.0049086073328681225
aF-0.007156333800247322
aF-0.00475086452769545
aF-0.002065612018395235
aF-0.008055490372124725
aF-0.010868552169420015
aF-0.0031698125985187638
aF-0.02478362703296884
aF-0.00038919142159779237
aF-0.014179962711064946
aF0.002493589642992611
aF-0.008219666984174506
aF0.005608976235592634
aF-0.010276408363228812
aF-0.017789474229831105
aF-0.011583253785952747
aF-0.013065897816252033
aF-0.008948950291259824
aF-0.014611705578437363
aF-0.003257872347904793
aF0.0009187740305602021
aF-0.007375907839642452
aF0.002283968745966422
aF0.0028616138471751163
aF0.0010311829943879876
aF-0.017440915741234186
aF-0.0033703554445717408
aF0.009296049064481091
aF-0.007223649596046633
aF-0.020609128665215942
aF-0.012993980831928187
aF-0.006253237315968056
aF-0.028518106716818276
aF-0.008094079463856072
aF-0.02628497446132991
aF-0.009526779018511351
aF-0.0044381780118168315
aF-0.009518992527161792
aF0.005223855102614656
aF-0.01493237590737121
aF-0.002707357631522178
aF-0.013665442526016943
aF-0.012000091793019465
aF0.004149055259719003
aF-0.019812837841118213
aF-0.011471500606750154
aF-0.004041393653741471
aF-0.008924919619137387
aF-0.013591639998879888
aF0.004241911586056516
aF-0.010736082910638106
aF-0.016072677082693044
aF-0.0009617905639978185
aF-0.0028531158607951364
aF-0.017972286584386835
aF-0.00506913579326643
aF0.00926158504135531
aF-0.002427899230617542
aF-0.007104799718708437
aF0.002356788186718564
aF0.011864675644817368
aF0.004648968380729096
aF-0.00866590255702049
aF-0.008320422776577548
aF0.007245617208543708
aF-0.0021686814607614823
aF-0.010581919006292193
aF-0.007705453918867925
aF0.001833074499845652
aF-0.0181589306883023
aF-0.0027057322858398264
aF-0.009239546997739118
aF9.710321651242807e-05
aF-0.019059945775006366
aF-0.019421810823398826
aF0.00025017475822357955
aF-0.007099964099480033
aF-0.005994289343258865
aF-0.017954587643939018
aF-0.001660662909979925
aF0.003979464370955552
aF-0.012906802925072016
aF0.004213429808801379
aF-0.009344518699816005
aF-0.005201638809483358
aF-0.015611712924819153
aF0.007748894393804938
aF0.001128215916543249
aF-0.005931637947447368
aF-0.004972804202247068
aF-0.0001474737318741537
aF-0.006352823314780397
aF-0.01629691379887581
aF-0.006152172495974881
aF0.008517046098452287
aF-0.005248270492595885
aF-0.009460294111296922
aF-0.003659114335193214
aF-0.010690768977919655
aF-0.018733314106155387
aF-0.006361426423944936
aF0.015388710618676589
aF-0.014601415957862077
aF-0.012327057738915227
aF-0.007410396117173552
aF-0.011961970377619655
aF-0.01554411147870179
aF-0.0034544298840234926
aF-0.018761503371208993
aF-0.0027525417065587428
aF-0.017997938968205295
aF-0.010185429613931108
aF0.00034269236251778165
aF0.0009406969595861658
aF-0.001148872062965758
aF-0.002738422762115565
aF0.00030180332860518577
aF-0.0037349363262183374
aF-0.03101752439293416
aF-0.014656363758103847
aF-0.0163704208727224
aF0.0037592729709184426
aF-0.012075697583318962
aF-0.00495685331614214
aF-0.007818546769217378
aF-0.003362928348141428
aF-0.0021058516326090417
aF-0.0029284890683331597
aF-0.013234676268443414
aF0.0008672953395783863
aF0.00901814549982631
aF0.002243287360363857
aF-0.008427435731621366
aF0.0013529651034215168
aF0.003478779920001127
aF-0.0028732853907376945
aF-0.024625859053432255
aF0.0007749820930931478
aF0.01035434692247043
aF-0.02094815318450027
aF-0.026832725183463104
aF-0.003000177192208895
aF0.002841135332574247
aF-0.02301917117575787
aF0.002507332151081879
aF-0.02510584601685241
aF-0.017550819784334225
aF-0.012534202591635577
aF-0.01032705259023084
aF-0.0022171705584296594
aF-0.0011565008454666734
aF-0.006661537660449737
aF-0.0021864238526202776
aF-0.007123215658185752
aF-0.003394125249812397
aF-0.017568547253146185
aF-0.008371612567686777
aF-0.014303493747970472
aF0.0026517997091261678
aF-0.003451861043325114
aF-0.002726254523726649
aF-0.009539542402971042
aF-0.007133361668834974
aF-0.009149277744479552
aF-0.009044713439721868
aF-0.01345333514541473
aF-0.008377174990345718
aF-0.0022095917116955813
aF0.0043836630182962615
aF-0.0005753736510269872
aF0.0005943065004342994
aF0.007472109685316665
aF-0.009024780307916615
aF-0.02083284653947139
aF-0.004570720021725794
aF0.012319467728521268
aF-0.001939195242760638
aF-0.010110057733535648
aF-0.00891827605029903
aF-0.008521300121896301
aF-0.016390096954580494
aF-0.0034170896868911836
aF-0.018284396735011914
aF-0.011573577858051362
aF-0.004659321020134109
aF-0.003347247550128671
aF0.004448456168490757
aF0.003289784986989552
aF-0.008097553158958885
aF-0.01935339482929484
aF-0.0033664903200013156
aF0.00878203784627358
aF-0.025383655655612583
aF-0.005404124000389617
aF-0.007284869535102122
aF-0.008520792484577846
aF-0.019150954263252532
aF0.0022208503088337788
aF0.0005273937220505783
aF-0.010777451689204586
aF-0.0014217579520948943
aF-0.004405482683942469
aF-0.013938085880089815
aF-0.01126460125045769
aF0.00595454584307871
aF0.0012217137529669376
aF0.0037302839519094914
aF-0.008271115192377956
aF0.006103266287704141
aF-0.003598841392570821
aF-0.019370059577030016
aF-0.009290227010885012
aF0.012007209925598
aF-0.0041432431855337225
aF-0.026792462694977714
aF-0.0003803697179585288
aF-0.009705715718987236
aF-0.023356846561122063
aF-0.0006716231083433377
aF-0.027037951930502572
aF-0.01768092084086094
aF-0.008261600503915096
aF-0.0067856397090658785
aF-0.010378398237922118
aF-0.012035437351511948
aF-0.0006156471952191881
aF-0.01067440722494342
aF-0.004915270564744878
aF-0.010014552332187605
aF-0.017987503311557528
aF0.0011509461135316918
aF-0.00514551021362125
aF-7.754632058180324e-05
aF-0.01920810740587422
aF0.0003296288457011574
aF-0.005621156010823998
aF-0.016463878238727803
aF-0.010177361837624578
aF-0.006227688974896072
aF-0.022173670595002994
aF0.0017348791644708115
aF-0.007154598826468276
aF-0.005190107751181061
aF-0.003365504934927557
aF-0.01029601404526479
aF0.008166002524394683
aF-0.006119389254288022
aF-0.007968141015108064
aF-0.01795279238075369
aF0.015354136394490802
aF-0.005238284459861597
aF-0.02557455015834772
aF-0.008486912138505377
aF-0.009993460244867212
aF-0.029098390372628468
aF-0.009960735095726966
aF-0.022739590474678936
aF-0.002679793500073452
aF-0.018165504902652115
aF-0.0034464331146745603
aF0.005046621098532495
aF-0.005027649037122571
aF-0.00996611020418424
aF-0.016393013553223375
aF0.0025520807092687748
aF-0.007968642691782633
aF-0.02690718610253343
aF-0.011438776098613743
aF-0.0068171242933617255
aF-0.010934101296872691
aF-0.004280895092788776
aF0.0027372153053854195
aF0.00038056720157943007
aF-0.0007191632417078922
aF0.0007796409027075623
aF-0.006651176065554221
aF-0.007905881062301511
aF-0.012659219402755563
aF-0.008338741297613169
aF0.011355336389544094
aF-0.0012334274777578938
aF-0.0013030412046510578
aF0.0055600738161452855
aF-0.0039626526140909505
aF-0.011927489965942334
aF-0.006656990931884812
aF0.016683173199175543
aF-0.009686185690261865
aF-0.01839722757881778
aF-0.010454158690016115
aF-0.01010343781015464
aF-0.02037054894978144
aF0.0037333434295866975
aF-0.025545442961493664
aF-0.007211760576031669
aF-0.011147294928508434
aF-0.02188320439958152
aF-0.00031941757655065087
aF-0.015524817611911743
aF-0.0015508996448672884
aF-0.01109057388152208
aF-0.010811271985864505
aF-0.008572712798842955
aF-0.025649671794767293
aF-0.011493073530664208
aF-0.007183883686102038
aF-0.007672533846112574
aF-0.002758735080095237
aF0.008400569492261934
aF-0.013203318914783041
aF-0.018539584435249255
aF-0.007337110730426269
aF-0.004385930161837588
aF-0.022713403031577182
aF-0.008647990450399202
aF0.001645798388633336
aF0.011798538899323297
aF-0.0062316652439325
aF0.0014300966140021053
aF0.009010458312073111
aF0.003092194150542445
aF-0.010045543269385135
aF-0.014449499093674207
aF0.013774081925745826
aF-0.020174454581303607
aF-0.025205608192044152
aF0.001661558733248465
aF-0.00576542666104875
aF-0.021760413928715926
aF-0.009434700739953719
aF-0.007731072251378737
aF-0.010970190217498791
aF-0.018910281044192158
aF-0.013476305278625795
aF-0.006552759741293711
aF0.00041006314856210685
aF0.006090418484330322
aF-0.005440601189380566
aF-0.0073074235132744875
aF0.0009933350044989116
aF-0.026441905178885235
aF-0.007480744730967413
aF-0.01387707281366519
aF-0.013744162728745108
aF-0.01931440952233643
aF0.0075571842773029295
aF-0.00721947721173958
aF-0.00554321522938085
aF-0.011845688214171148
aF-0.0008035412149025214
aF-0.015739530523572336
aF-0.0066417128408795606
aF-0.006277087496435595
aF0.008386347363829807
aF-0.016724142628286528
aF-0.010191362455841351
aF0.008662598036728494
aF-0.01025247735822077
aF-0.02115324263251249
aF-0.010337938317339306
aF0.00045656650736334886
aF-0.01890193923685442
aF-0.017275243018181518
aF-0.007200965618350332
aF-0.009256340198257577
aF-0.011285749295785207
aF-0.01172151508102691
aF-0.013794230215553746
aF-0.011936340236796138
aF-0.010472922095761264
aF-0.01015639913444588
aF-0.0016531006429851617
aF-0.014849349322890334
aF-0.007062172885598036
aF-0.014337107248043409
aF-0.008643940324888784
aF0.0031665603509998313
aF-0.015208145593064
aF-0.007322917848973728
aF-0.014129688906948662
aF-0.006804810099974764
aF-0.003969175711516481
aF0.00785664216874081
aF-0.0009908546370346325
aF-0.006303641591907582
aF0.004906585631360212
aF-0.00037542285032647605
aF-0.007197754575504329
aF-0.015096375916668844
aF-0.0013001199898767923
aF-0.005250937580905118
aF-0.0037871236338771225
aF0.0032294484938297664
aF-0.0013488906903289105
aF-0.012226496299787464
aF-0.011409550062696977
aF-0.007955447628722332
aF0.012260437838827423
aF-0.013768613655736516
aF-0.02294926079350267
aF-0.016554972982900696
aF0.004031104715684243
aF-0.024569540902833788
aF-0.014052869510689072
aF-0.021866569513741926
aF-0.011587492081652676
aF-0.02285380532761215
aF-0.017465506603203167
aF0.003982730380023822
aF0.0002662895786273757
aF-0.010475180282072375
aF-0.007870496893183622
aF-0.008964171916337983
aF-0.0035075863700477767
aF-0.013543725933133523
aF-0.010820314569799625
aF-0.008223820794212444
aF7.33795492939668e-05
aF-0.0074760210644448325
aF0.007260329695435693
aF-0.0071428860673680376
aF-0.019751830005695126
aF-0.012100902377022306
aF-0.006162957231879131
aF-0.00991612036214939
aF-0.018061746579842945
aF-0.0022440835516729044
aF0.002675002603548025
aF-0.003712227449362296
aF-0.0061053696969602216
aF0.00242047566034923
aF-0.0004053845396161589
aF-0.020693967033204624
aF-0.009141806514763701
aF-0.0005319583898470621
aF-0.018667847604631603
aF-0.026565313559191207
aF0.0018163113759454557
aF-0.0019609561721653473
aF-0.010013339297749392
aF-0.006383591858861816
aF-0.015244232539129527
aF-0.013155178013609789
aF-0.017923241815522087
aF-0.007771331801946712
aF0.004169255079634546
aF-0.004041483731028584
aF-0.0032114430470837787
aF-0.012304063147403673
aF-0.009915651862594296
aF-0.007428681560603725
aF-0.029439191179058324
aF0.0026731147051452823
aF-0.02059231826150287
aF-0.011685783830226944
aF-0.007375007932568375
aF-0.00583103051151065
aF-0.01697344628417799
aF-0.018329470613795296
aF-0.00823832509716902
aF0.004203946587513535
aF-0.019596266386695888
aF-0.017511333419138173
aF-0.007008249001810992
aF0.010986325426283142
aF-0.005868850928211707
aF-0.004979914134521019
aF-0.005396559306418831
aF0.0023509935852683793
aF-0.017307578458244408
aF-0.014512359634656986
aF0.010768149351048894
aF-0.018349231551346396
aF-0.017312855196850278
aF-0.00014045065054979153
aF0.0032275259490079436
aF-0.023490524585464606
aF-0.009093373648193256
aF-0.012499575380696655
aF-0.014780777735140915
aF-0.020319570617809153
aF-0.020570507178124822
aF0.0028593219313067524
aF-0.006376790886801614
aF-0.0031306855404695227
aF-0.003500299595617827
aF-0.012540254685336788
aF-0.008130197845046995
aF-0.01600220713572552
aF-0.0076728124376075485
aF-0.01635969902282305
aF0.004669241841358761
aF-0.013949079085930741
aF-0.008954704012320121
aF0.0014378771299628063
aF-0.002311889634030516
aF-0.00895308118447444
aF-0.0016498333345874965
aF-0.008604720369696079
aF-0.0029429232195587606
aF0.0005700019929888429
aF0.012843803679783583
aF-0.017356103839910715
aF-0.008951372715253285
aF0.004167523635517205
aF0.00495148055032499
aF-0.020858597949853893
aF-0.0051872521283396296
aF0.006454433211668455
aF-0.0031595811492598665
aF-0.02797582515764773
aF-0.009184317933788466
aF0.0031395927000870986
aF-0.026963739158698166
aF-0.0037614489209150895
aF-0.015381731683713826
aF-0.004419841124802161
aF-0.00546205022002287
aF-0.00855140399739057
aF0.00471847976437423
aF-0.011030278843178783
aF-0.001908853032981551
aF-0.010941057404686955
aF-0.00587324182334307
aF-0.009011484787495385
aF-0.023410059097192883
aF-0.013346924554538491
aF-0.006223032425318578
aF0.004723944468110272
aF-0.019726725049563403
aF-0.0032679403898953924
aF-0.016789655535205623
aF-0.009249151613793803
aF-0.010025716034277415
aF-0.004972081781427335
aF-0.011439059918902265
aF-0.005313708596212092
aF-0.004379179469995037
aF-0.00293863081694272
aF-0.011039042995524693
aF0.004900376960301722
aF0.0077436560924653
aF-0.10707142579035962
aF-0.0074210067115372085
aF-0.10675377182887358
aF-0.11727884381917911
aF-0.11646848170413866
aF-0.11698317040738082
aF-0.12027401707323232
aF-0.10148760284953555
aF-0.10470887030335271
aF-0.1063080667690008
aF-0.11269657669242006
aF-0.11432195265956573
aF-0.11845421784813978
aF-0.11437548136528863
aF-0.11738998074214574
aF-0.11464462285807468
aF-0.12082481880738428
aF-0.11505412629143191
aF-0.12149006921095382
aF-0.11557054118438902
aF-0.11150946159086057
aF-0.11470078048115366
aF-0.11329292029334614
aF-0.10521396357865154
aF-0.1041241127651924
aF-0.11331306053305072
aF-0.017649359523094058
aF0.00319193647150174
aF-0.01953194679600407
aF-0.02677539333946677
aF-0.02653006099495297
aF-0.01684505360585537
aF-0.017059093387174894
aF-0.028089806759173844
aF-0.019791964240846685
aF-0.028472850244461244
aF-0.027994425581559644
aF-0.018773315586049492
aF-0.014567765670148676
aF-0.020082006138492155
aF-0.018100059001777677
aF-0.019116852053696544
aF-0.010291440417386902
aF-0.017136310104983836
aF-0.02343128045393808
aF-0.01642382753006115
aF-0.020202214398791163
aF-0.02787645226727605
aF-0.02206169078656805
aF-0.018099136271099
aF-0.023122894390247693
aF-0.011142740094694535
a.