(lp0
F0.05535175910700766
aF0.03452280351135611
aF0.03489419562430141
aF0.023732804987200196
aF0.04035183832905815
aF0.01145862061492585
aF0.03255355805943969
aF0.032136524833732374
aF0.03525925187358445
aF0.034507404805278585
aF0.0017244557944926465
aF0.014911296517027712
aF0.00618928619555526
aF0.032591798592785826
aF0.031950525294699
aF0.02290640841037407
aF0.026778380530761096
aF0.0028480969132164617
aF-0.017234169015612925
aF0.035966404645849784
aF0.0038772115429093383
aF0.017837405870505214
aF0.030475759950467834
aF0.03172076207077195
aF0.01402550524131013
aF0.03969954917970898
aF0.05394609949174292
aF0.03286026102921499
aF0.037669894683144134
aF0.01931212518046198
aF0.012919272781255115
aF0.02478765802657062
aF0.01569209877489622
aF-0.00417560708468448
aF0.020366024067506237
aF0.020711973014858418
aF0.014020154277827015
aF0.0510694573222897
aF0.03924208385960457
aF0.022810989269736154
aF0.019445755533908572
aF0.04696493346935868
aF0.010431906269125844
aF0.02982048519493374
aF0.04166884367305485
aF0.03792259072514941
aF0.03421852388894949
aF0.004408382907302456
aF0.008919121100664628
aF-0.0008274049874957227
aF0.02007365967610282
aF0.03562970216601881
aF0.033621554992700954
aF0.02625789060828404
aF-8.085235774829861e-05
aF-0.013513109972460796
aF0.03086880327331099
aF-0.00025317269442526064
aF0.02557671592429374
aF0.03550426468539182
aF0.02147528788319716
aF0.004769252900834828
aF0.03705610191316585
aF0.054269688437044626
aF0.036627324208594866
aF0.02103759967137312
aF0.0038557857260855385
aF0.01483766082326292
aF0.03188562840014557
aF0.02496669910851524
aF0.004014747107871149
aF0.024469925734122686
aF0.015284084380954755
aF-0.003188611107678853
aF0.050128958643335005
aF0.03477176855630487
aF0.029889851035288635
aF0.02916324462086397
aF0.05219753491854054
aF0.012340631382420223
aF0.024022180389827674
aF0.04794034207905425
aF0.03995488368920606
aF0.03196694136459134
aF-0.00020604705987012297
aF0.009287785561429689
aF0.002361852814998156
aF0.02911897034347643
aF0.03267254157056521
aF0.020021642871866356
aF0.024978589101128552
aF0.008858662151894393
aF-0.0015396954308673548
aF0.02807460392089504
aF0.0007761490808447643
aF0.02968095029514364
aF0.03993936033685392
aF0.02228363478019527
aF0.007060339851282614
aF0.042434613928260985
aF0.049663958529039265
aF0.03673620031565524
aF0.024066689539905324
aF0.006255862472401861
aF0.019286460687451223
aF0.022216076179562096
aF0.018406858843345676
aF0.0003639296777409823
aF0.012379472347839635
aF0.009655277556188049
aF0.012260406421276697
aF0.056962922537448626
aF0.0347912743115808
aF0.027150642924980473
aF0.02372956012462077
aF0.049927227130106715
aF0.023721750867171355
aF0.01865789023522286
aF0.03156353442153336
aF0.04199497536699861
aF0.03639854730013183
aF-0.012486657227685912
aF0.007543153863628349
aF0.01487110475405698
aF0.034246456970633034
aF0.020871960582876214
aF0.02983187006278324
aF0.04488294058423829
aF0.006844447445708073
aF-0.0017037152366387147
aF0.041421326856468724
aF-0.002045474659308619
aF0.03216465612153158
aF0.03296859215896499
aF0.03812877486562262
aF0.006892460253326698
aF0.04002658928947812
aF0.06461198302066168
aF0.033900251682280017
aF0.030779714303797903
aF0.0021350138266916898
aF0.010604997593420023
aF0.03320565644396323
aF0.014323714916560034
aF0.008012838614257077
aF0.025125703630381645
aF0.01838779428649095
aF0.0007414192688351209
aF0.0509582341003497
aF0.04956954705803308
aF0.025697709804548163
aF0.03101372797001456
aF0.03804378856865775
aF0.013528711498455403
aF0.013015280147376436
aF0.0457596593594785
aF0.033930307737738245
aF0.03015610054144307
aF-0.0043030445651501235
aF0.011475108366500878
aF-0.0013925047726060106
aF0.021792539523274
aF0.024467829730082172
aF0.02738601333799747
aF0.04314793165156441
aF-0.002310309740821927
aF-0.009068746071364906
aF0.0377856556064654
aF0.00833330274958628
aF0.01761564691263766
aF0.03812404791654176
aF0.03496295987251085
aF0.02146703385347551
aF0.03455980006277821
aF0.05759593768411307
aF0.03570724587268738
aF0.02479782281121464
aF0.009792305747199784
aF0.0061930073301955536
aF0.02100842565681811
aF0.006736303272584268
aF-0.006731307411345184
aF0.01834521653659415
aF0.016755895575081454
aF0.011957464724774625
aF-0.525796579657439
aF0.005215785433613474
aF-0.5277412459659026
aF-0.5336317753923763
aF-0.5408763207429096
aF-0.5275489409371252
aF-0.08868879589757458
aF-0.004549075260752358
aF-0.08720738890582894
aF-0.09567016585580985
aF-0.08378800997164029
aF-0.09623873059395721
a.