(lp0
F-0.002552044040313338
aF0.00826371912205271
aF0.012180596640952493
aF0.022064513833618835
aF0.03292282089775221
aF0.017380494156075506
aF0.012190842868205739
aF0.002394766107852405
aF0.0016551531455038233
aF0.01824591170194444
aF0.024030847313727354
aF0.010389425635616229
aF0.012603110571383141
aF0.005497101366561057
aF0.0071338042133481955
aF0.018200963925374795
aF0.01582433590413615
aF0.010118990999204873
aF-0.004256224021699796
aF0.0016255507405081395
aF0.008061609136341855
aF0.00025629976928675646
aF0.010807011714099753
aF0.010261612266553118
aF-0.0033885910428851636
aF0.006565097321664656
aF-0.002712926475926488
aF0.02159287867360797
aF-0.004711939853630392
aF0.017434019376868275
aF0.017701419052169733
aF0.004590704045079347
aF0.006564498054205523
aF0.005403496789822728
aF0.007870499822560176
aF0.0041356677399966586
aF0.011972160189017403
aF0.006007688108436665
aF0.009308047978829042
aF-0.0037261705666699263
aF0.004599617537707558
aF0.024168576703758136
aF0.021090662178423602
aF0.004580956480099964
aF0.014988197508981616
aF-0.0032228686180096966
aF0.02025983528764124
aF0.024676562838423604
aF0.014510594318271508
aF0.020605060454633062
aF0.006441727243259261
aF0.012362876340372031
aF0.02221949652400697
aF0.004845733487698156
aF0.005911317808132714
aF-0.005082415935023888
aF0.010988857388087843
aF-0.011046507241683639
aF0.000335304427054932
aF0.020884468637328502
aF0.005710250808921976
aF-0.003508368459829178
aF0.019969712710820615
aF0.0038958221558580398
aF0.022735165337824555
aF0.004487279098145423
aF0.00896780959400444
aF0.015968037195117902
aF0.008301731820579899
aF-0.0029130435555111177
aF0.003697246113854036
aF-0.0018162570171980303
aF0.012309070324147058
aF0.004732531242182796
aF0.008578384151656534
aF0.008569116895328492
aF0.0035095979818428606
aF0.01832343949009385
aF0.014231835134429988
aF0.005189711317091018
aF0.011006340857019943
aF0.001987676180027238
aF0.00865512873994601
aF0.012757216658255417
aF0.011664705976822478
aF0.01096119773961773
aF0.011262379289150581
aF-0.001129011065578507
aF0.020254327246189682
aF0.012921989457663584
aF0.009670873405228424
aF0.005778627309218724
aF-0.005915796368905216
aF0.011302791212531223
aF0.007548754742272923
aF0.004781296943352168
aF0.014647729175693852
aF-0.004984257150149111
aF-0.0035128524791897286
aF0.002770561475626586
aF0.006223526179697141
aF0.02843344592453503
aF-0.0044971443550168595
aF0.0020972775650128037
aF0.006428553181556249
aF0.018882443206565725
aF-0.002159663984091055
aF0.009113514718289764
aF0.006859590908657589
aF-0.0034789306819102113
aF0.015603522996136869
aF-0.00590536425464958
aF0.00809011810703024
aF0.005495009735840999
aF0.018508655394889825
aF0.027672638288661774
aF0.006013739153208387
aF0.019731819671902826
aF0.007781412004706635
aF-0.003189377816012271
aF0.019451378755634775
aF0.021121841323733636
aF0.005820626682550632
aF0.010182515401590798
aF0.012184828284095499
aF0.01071658236003565
aF0.010615159205005345
aF0.014723479773722514
aF0.010264917128874895
aF-0.0009499825847640864
aF0.006667348727010281
aF-0.003631456112324796
aF0.011106519450900111
aF0.0052569552321288454
aF-0.0016302730296471162
aF0.0001615224275197313
aF0.007896713959576106
aF0.004743454579956864
aF0.014254366299568865
aF-0.006844373839707056
aF0.016510796048020485
aF0.01627911299185059
aF0.014707051988725624
aF0.008026054925211839
aF0.008086254988513156
aF0.012061710512856282
aF-0.004643834498910912
aF0.010326028058380402
aF0.011609490397331541
aF0.023088589432308515
aF-0.0012561824615444075
aF0.022699952978011154
aF0.02193448161842206
aF0.009319392515928922
aF0.005946146254150711
aF0.011049417857216769
aF-0.00025467971914429127
aF0.011777945513453883
aF0.0069426098031706625
aF0.007487454260424105
aF0.029994194578846296
aF0.007360470947941204
aF0.020290890022184503
aF0.024980984980371823
aF0.02142459846616762
aF0.012033527473833761
aF5.245897871145348e-05
aF0.009308184437534823
aF0.0073066831939309785
aF0.008778191286437947
aF0.024409630575434032
aF0.013406294361143468
aF0.009249405370770325
aF0.01780602795446741
aF0.004355465361776523
aF0.02964247714143978
aF0.012953652097626446
aF0.015566977336443553
aF0.013197742265329547
aF0.015488874998121318
aF-0.00012748870769648717
aF0.00626576342791005
aF0.008741713478886953
aF0.0054910815668589
aF0.0013505915132455745
aF0.012325745512157475
aF0.008516611973895036
aF-0.00339284928046889
aF0.015923927371139956
aF0.030459971834906105
aF0.006140516542292572
aF0.004349310395388198
aF-0.000901631088971177
aF0.005669235852725454
aF0.006848230984281842
aF0.017202324313292966
aF0.018256656644420277
aF0.024323843527748412
aF0.005162006439298582
aF0.017924240449590824
aF0.016445419683317142
aF0.019854103310058296
aF0.0180869988007648
aF-0.006199116900180911
aF0.005668964157578846
aF0.008155941258478117
aF0.008171183123133523
aF0.008857709155681947
aF0.006765713049035305
aF-0.003647924349525674
aF0.02170563890245028
aF-0.002738125738517628
aF0.02906024572563869
aF0.003273403737746226
aF0.001570112632997108
aF0.018456127628891608
aF0.014480802795219584
aF0.0051925938686663954
aF0.008692426590494923
aF0.005291904237315384
aF-0.0013192078654890983
aF0.009475941122915733
aF0.004479569795065333
aF0.015636560075085862
aF-0.0019877052731475334
aF0.010092195784653236
aF0.017066037107767076
aF0.008195990348487094
aF0.010511100219095884
aF0.012020307688125172
aF0.006100288965753343
aF0.007905886953012503
aF0.007353477887208428
aF0.0076813501558536555
aF0.013473635178043938
aF0.0036406978154912553
aF0.008035452693986662
aF0.022855364942790043
aF0.018774592121611186
aF0.005284044846777934
aF0.007358969788164847
aF0.01925352426195959
aF0.00700237442464634
aF0.013289148282078403
aF0.015244339050164243
aF0.011164072939217423
aF0.0086713494917607
aF0.023625329696168554
aF0.004658530775813896
aF0.026629571979412896
aF0.004862843824453262
aF0.013114776639242275
aF0.012592667253095782
aF0.0020313102782048512
aF9.950495947928491e-05
aF0.014175665164225484
aF0.013024356009849542
aF0.005443886435372001
aF0.01636159264063071
aF0.010162870412491257
aF0.02650974022098734
aF-0.0010919653220271463
aF0.01761579267982493
aF0.020201500629371094
aF0.020766381866239175
aF0.0070473466033856985
aF0.0038532342979727325
aF0.013424205896664137
aF0.020708816081350213
aF0.020400998594325332
aF0.022512811702711934
aF0.019072588907883773
aF0.015597896688517028
aF0.019413858749940466
aF0.030745398007894654
aF0.017982633515956976
aF0.01249843320927078
aF0.002216356385016447
aF0.001884262516931598
aF-0.01014952720958324
aF0.0012170706389344863
aF0.02561944789830984
aF0.014597295446520858
aF0.01139143536245828
aF0.011492075368021219
aF0.003346478247184713
aF0.017940558125531317
aF-0.0007295211946539441
aF0.0024882007040405475
aF0.011231266742826547
aF0.0026124399148480222
aF0.015682661581545663
aF0.014631614825117122
aF0.0040264251242751025
aF0.01156994756638424
aF0.019050177401963877
aF0.012524427490819967
aF0.023654013167363836
aF0.0022517923526448927
aF0.01510908877746709
aF0.02130041267628357
aF0.007709628174679996
aF0.013017588898793722
aF0.013398556718291803
aF0.0012125140396970894
aF0.01711968664055886
aF0.02082429983920904
aF0.01659243471780583
aF0.025852005874373068
aF0.00553195305721858
aF0.006962714464990093
aF0.016271281909529683
aF0.020420518125502753
aF0.015973856205263766
aF-0.00890670171604896
aF0.018268022564805704
aF0.007836203229127219
aF0.012399479218730584
aF0.015392059034739251
aF0.006991144755686849
aF0.011398526859671847
aF0.006982634241598524
aF0.006902118625302106
aF0.026218491168647842
aF0.011168325022213741
aF0.01958347487481111
aF0.008041014836516449
aF0.01812779076758633
aF0.010767515247068524
aF0.000978472072485929
aF0.012711278147289265
aF0.006103696959697135
aF0.011595535551705845
aF0.0005395270089570505
aF0.01605621866099729
aF-0.002939054556978891
aF0.011404407406733758
aF0.02430530178363347
aF0.011373241734580502
aF0.018392946224602597
aF0.005256260354129034
aF0.01435654258685129
aF0.01608913720710109
aF0.019877019606713064
aF0.021814029931668703
aF0.030427668777964382
aF0.015620761631414355
aF0.005867401612900178
aF0.01835556596664724
aF0.019984329190977052
aF0.017012922982624953
aF-0.000932062838283643
aF0.013647161718038082
aF-7.64255247288413e-05
aF0.005448601980828735
aF0.024972849127565172
aF0.012130152889003541
aF0.006246603828859373
aF0.016496096140867562
aF0.01615359166095059
aF0.023476641708233294
aF0.008327939779912323
aF0.0009963810838980328
aF0.021436471990549728
aF0.008539376403816374
aF0.014270576164145007
aF0.0019826383565639157
aF0.005440755228324341
aF0.011367661320328258
aF0.001959636210169987
aF-0.15532308151854538
aF-0.0025019733024350477
aF-0.15201776169184722
aF-0.16459963083719356
aF-0.15551185179960184
aF-0.16549697966243443
aF-0.1584870813283553
aF-0.15594886230960348
aF-0.16091110603710257
aF-0.16543441418627372
aF-0.15741488122090264
aF-0.29876384027074365
aF0.002753434369756516
aF-0.3060703957081534
aF-0.2858050538643082
aF-0.28880888493495965
aF-0.31158760136636726
aF-0.2991778790927313
aF-0.308121310328475
aF-0.3148844359413228
aF-0.3126162171592361
aF-0.3089526923321305
a.