(lp0
F-0.005389845258598425
aF-0.02682887505922697
aF-0.006197759141232027
aF-0.018124257651222112
aF-0.01863067626290766
aF-0.004663540539997891
aF-0.012711847135161483
aF-0.007073196523857019
aF-0.014398225775763942
aF0.0014478212221112497
aF-0.0007241131779308509
aF-0.0016196227474222454
aF-0.012948905697845035
aF-0.014807436473608122
aF-0.01016078753980906
aF-0.02543561700476003
aF-0.003244762530550724
aF-0.008404378903462134
aF-0.010280036600565192
aF-0.017004521360929965
aF-0.014159213544585785
aF0.001184041572929472
aF-0.023813432017660507
aF-0.003610642598528781
aF-0.002076083551002502
aF-0.00409345587893106
aF-0.01734756708485488
aF-0.0031630210341444844
aF-0.012867673860370441
aF-0.014307342896056735
aF-0.008432068037532242
aF-0.00852267538431272
aF-0.014960252146020068
aF-0.0115621501078324
aF-0.011064175142275404
aF0.007934226307381803
aF0.005238274588554517
aF-0.009636094436190908
aF-0.0249528632516994
aF-0.020040145883596237
aF-0.02356510644501849
aF-0.014606540031173443
aF0.0026232706075377463
aF-0.007891598147899498
aF-0.014326995889027123
aF-0.0003171135166428385
aF-0.013599917709585059
aF0.002334994677076053
aF-0.01779278483840679
aF-0.004158756516941716
aF-0.022489197793805028
aF-0.01723278945009743
aF-0.030098606726419768
aF-0.015143868964891663
aF-0.015043978907210574
aF-0.008381591173965955
aF-0.015521972600634901
aF-0.021288090354411378
aF-0.009355203192710998
aF-0.005963284835956341
aF-0.003884329126091964
aF-0.018737110553463394
aF-0.004102428263860416
aF-0.014553080209495842
aF-0.004652526779029265
aF-0.008700990285349033
aF-0.006315960382586828
aF-0.008004779635820653
aF-0.0007294975426764662
aF-0.011876396767200138
aF-0.015199437227582113
aF-0.01717184132750532
aF0.006296590960506664
aF-0.0031050137899767344
aF-0.007618092801796435
aF-0.007934181098942445
aF-0.008002715566944625
aF-0.01783508684712402
aF-0.017956297608451376
aF0.005486602098387971
aF0.002230500355261708
aF-0.021459932619853263
aF-0.017370092183012435
aF-0.007038614116674831
aF-0.01547128780533992
aF-0.015564642816049572
aF-0.006884790240326116
aF-0.016862905704056765
aF-0.01899187275499854
aF-0.014646611954264498
aF-0.009752211241340295
aF-0.012533824754733944
aF-0.008924853944943415
aF-0.013143340232254604
aF-0.0128422294120352
aF-0.0037516550629495852
aF-0.007399248439950402
aF-0.004584603843004239
aF-0.016425241521453856
aF-0.02302771333565663
aF-0.009778683620357543
aF-0.009728689358939259
aF-0.012564755618464254
aF-0.016134795365635987
aF-0.014546733356071888
aF-0.009225525883936218
aF-0.019286832684320236
aF-0.011953038168831781
aF-0.009588326537119822
aF-0.003457313138218999
aF-0.006621173933062008
aF-0.01713196688161447
aF-0.01196208001632179
aF-0.005587681108188616
aF-0.02143435600750732
aF-0.005666675225305201
aF0.0067557326343244024
aF-0.00968885994749853
aF-0.008722525712535251
aF-0.0020017044013002807
aF0.0018492343134698312
aF-0.014546518824335962
aF-0.002434261515053751
aF-0.0017595795263663579
aF-0.011613731863807063
aF-0.010751947176558292
aF-0.02813920989810884
aF-0.009272174693278666
aF-0.008894012593105582
aF-0.013608442055001816
aF-0.011378598062047806
aF-0.018537932851215334
aF-0.0012550178211505581
aF-0.008317688495256508
aF-0.011428209029605865
aF-0.00793340914705328
aF-0.013685910262555294
aF-0.009454848055815005
aF-0.01701375939358214
aF-0.012680943437935728
aF-0.005446708394708041
aF-0.016352824197999005
aF0.0005516355735768974
aF-0.019922893111358243
aF-0.013864718082227653
aF-0.01085496682765186
aF-0.005550190915875137
aF-0.0062928477245312074
aF-0.012166624340405113
aF-0.016952023690684687
aF-0.008029573086380528
aF-0.01800980383798919
aF-0.0035894723434209902
aF-0.004182293828516911
aF-0.010877765723093036
aF-0.007093318743707846
aF-0.004757611429618731
aF-0.0007635433363288636
aF-0.004968963135819988
aF-0.013597408188082014
aF-0.016631522465597202
aF-0.009433148003273353
aF-0.01535694207591988
aF-0.01455018427320041
aF-0.0046062786297128445
aF-0.012885978889349354
aF-0.01737582480217095
aF-0.022552794735966723
aF-0.005027580551248647
aF-0.005269826390756078
aF-0.01940271947308739
aF-0.00744620251490502
aF-0.0052090061348948145
aF-0.013789902333585468
aF-0.0004127191535989686
aF-0.01286229966916753
aF-0.012154694276843823
aF-0.016787320751830752
aF-0.01763739628023527
aF-0.01694770884305914
aF-0.003194622035621723
aF-0.006268120458428764
aF-0.013913579770449318
aF-0.007144751564735038
aF0.0017416773110285509
aF-0.014662916391340665
aF-0.0262531536704362
aF-0.0027828764117918147
aF-0.027864483819808925
aF-0.004193690073445646
aF-0.004793774528963157
aF0.0029361988941576642
aF-0.016718034056959347
aF-0.011945668827120344
aF-0.0073752657750641
aF-0.00039714015103910823
aF-0.017354179294270366
aF-0.013281256944121864
aF-0.012538902423050615
aF-0.019942741134409997
aF-0.027909617708132117
aF0.0022164424909112126
aF-0.0006794120665413435
aF-0.011901702249834903
aF-0.009419438383986685
aF-0.008489963006088955
aF-0.008493004919215888
aF-0.011580775617600323
aF-0.011677764239560523
aF-0.009017930932485558
aF-0.0182674774952152
aF-0.006083543155490278
aF-0.014886201028661778
aF-0.01508971298141987
aF-0.015928975762771785
aF-0.013527741718214616
aF-0.012168552319985326
aF-0.017698983778815024
aF0.0025090512838977256
aF-0.009454082373551442
aF-0.0017145046507895333
aF0.007372794935226123
aF-0.020074874398691354
aF-0.02232156968830786
aF-0.016928359175689217
aF-0.025775194331810126
aF-0.016927897175470184
aF9.055525497160977e-06
aF-0.007799794227567833
aF-0.008779414066542894
aF-0.0029023664288554633
aF-0.006146880918271348
aF-0.006893824870151459
aF-0.0020802106815597616
aF-0.0021892999420922215
aF-0.009529719807513978
aF-0.009543191052489838
aF-0.014160772794932136
aF-0.015341359905249496
aF-0.001197635696615715
aF-0.019524117121184188
aF-0.01716949834876843
aF-0.01246677607815653
aF-0.002014832947981538
aF-0.014675835786035265
aF-0.005714681993384374
aF-0.018798133088871585
aF-0.013253054120268176
aF0.0011539415231721294
aF-0.01339747910656113
aF-0.0019494164884214541
aF-0.0065383045350676594
aF-0.0063663844897169294
aF-0.014153186520982883
aF-0.016859368945549708
aF-0.011264641800151382
aF-0.013584180287783945
aF-0.007549659345326569
aF0.008691151069187282
aF-0.013589371916502535
aF-0.01659734140659753
aF-0.00740938114550704
aF-0.019928479458580457
aF-0.001406791366182995
aF0.0029510055998148077
aF-0.0029773351196192956
aF-0.018797513921575512
aF-0.011292695072610872
aF-0.013975488081733989
aF-0.015677334290507713
aF-0.0014464471449385716
aF0.0016071332822246804
aF-0.022236075720958624
aF-0.01735797330868051
aF-0.028563765000323888
aF-0.012092553468293642
aF-0.0005957252814230074
aF-0.013737637319405704
aF-0.021182189306385046
aF-0.019252932538878588
aF-0.0028278573345905146
aF-0.02041724899220504
aF-0.01248531654101014
aF-0.010435680246319747
aF-0.005821760324484612
aF-0.010891695984980576
aF-0.003480435556450862
aF-0.015548977070842135
aF-0.02037248171188301
aF-0.006954683505371037
aF-0.010439267526596149
aF-0.005147758152499417
aF-0.01295375680215195
aF-0.011546616802875343
aF-0.006774035355758788
aF0.005515089056428805
aF-0.0093158834315422
aF-0.01977276952196446
aF-0.004553884250792152
aF-0.01693215284596672
aF-0.012208790657945777
aF-0.004795958237957932
aF-0.00013424731389365466
aF-0.007926389652859387
aF-0.0008939779324476433
aF-0.010176586714481706
aF-0.006930865562389189
aF-0.01650873765356018
aF0.00039540851384634035
aF-0.006053634873244087
aF-0.007709736104498797
aF-0.02002970199269043
aF-0.004984096981054872
aF-0.013621940520791328
aF-0.012899189280738308
aF-0.012867822224639516
aF-0.0066499966245187545
aF-0.0010170821529385766
aF-0.015258351103445218
aF0.0031486700713346384
aF-0.02075775298464199
aF-0.012403427121075696
aF-0.01034100033402817
aF-0.007752856519180198
aF-0.005068206381674455
aF-0.005096237436474912
aF-0.011261858197726526
aF-0.0075477139413345825
aF-0.016855075923473996
aF-0.01618975412933294
aF-0.004583059013722607
aF-0.008931081567619568
aF-0.0021207241412843254
aF-0.01238204098417621
aF-0.017780541899163387
aF-0.003184743346165678
aF-0.02806277092583106
aF-0.011169379511089332
aF-0.00047306365135039346
aF-0.0070106193314302895
aF-0.014354155903500311
aF-0.00478426089151601
aF-0.010764416411000155
aF-0.014796854158142754
aF-0.020363784688915212
aF-0.006775118203224863
aF-0.02310488693586294
aF-0.013072630972958502
aF-0.02349644113352086
aF-0.0028239220636882894
aF-0.006027299713678238
aF-0.011031795003038325
aF-0.011963597638612045
aF-0.011207097295693726
aF0.004448874270096245
aF-0.010365625641107764
aF-0.014111320225996253
aF-0.017458009037471182
aF-0.011406593272639235
aF-0.012937743214812834
aF-0.013069019208264358
aF-0.006539477585080543
aF-0.00880785010119456
aF-0.013592538340890935
aF-0.011714468940917997
aF-0.0076182360443739295
aF0.0010787376256962181
aF-0.011739290440213674
aF-0.006209908476004577
aF-0.002884555896730997
aF-0.016600524590932454
aF-0.023289343235362036
aF-0.017791119812960287
aF-0.02759466211775767
aF-0.013732953297951744
aF-0.004097625278133789
aF-0.01178517371919733
aF-0.0191593127132146
aF0.00046426684527304065
aF0.0011697284033198123
aF-0.002825901289574136
aF-0.01946683034303233
aF-0.008295928840833224
aF-0.009143485804252175
aF-0.018664761080233128
aF-0.016325403078405763
aF0.002448738442293423
aF-0.011313448422696227
aF-0.013225002869942097
aF-0.019182350578243714
aF-0.01625850861257534
aF-0.011996760641078021
aF-0.019058662429511843
aF-0.01415816324890958
aF-0.005001563285323492
aF-0.020192963848013373
aF-0.007513426239327072
aF-0.008910321326791336
aF-0.003138973113220531
aF-0.02078783690422143
aF-0.013867850877154985
aF-0.008016845460653156
aF-0.01413332302043536
aF-0.015452914533357988
aF-0.0036182234161848733
aF-0.00760382155396756
aF0.002042031031021859
aF-0.01625213966199786
aF-0.019309385189273942
aF-0.011894639362003558
aF-0.016021987839999207
aF-0.008603208913994893
aF-0.00724959199551814
aF-0.0014109005983866556
aF-0.020267245196517514
aF-0.015804239892949615
aF-0.003456151362001386
aF-0.007718694554099315
aF-0.006133266295007126
aF-0.017131367128892367
aF-0.019789342498261336
aF-0.011965745074397327
aF-0.02464659485583778
aF0.0003478305054881257
aF-0.0025423261908850913
aF-0.019706668623432077
aF-0.010743321566375084
aF-0.007824677649152782
aF-0.006518380410257622
aF-0.009965218352678041
aF0.00202712098700557
aF-0.015075070267364545
aF-0.010331137315268857
aF-0.009436616911778243
aF-0.007515015818757149
aF-0.007767869534400758
aF-0.020085072638270196
aF-0.02259927672944377
aF-0.011277101979557516
aF-0.00854629289584995
aF-0.011170808160358056
aF-0.0002259356672183587
aF-0.008475970223232912
aF-0.003886597393714164
aF-0.017807306404087148
aF-0.021009126944208856
aF-0.0036443541986148032
aF-0.026505567912804336
aF-0.014156037380701888
aF-0.0015906918295700307
aF0.004227134527931438
aF-0.010085337018517762
aF-0.015561249200038972
aF-0.012676226293076841
aF-0.005251391823620279
aF-0.015087691444718021
aF0.0011251092741488252
aF-0.012991105344895998
aF-0.011161939039782279
aF-0.022143312766050503
aF-0.011369334925553266
aF-0.0016130172416555584
aF-0.010808757109225912
aF-0.023445129792481464
aF-0.022566343459604225
aF0.0035182459682376755
aF-0.01403431831891537
aF0.0019533671368784076
aF-0.018711848123735837
aF-0.0035232181062753378
aF-0.005824854949200692
aF-0.00734035880897857
aF-0.007847509295109696
aF-0.008207987477988395
aF-0.004820229721531378
aF-0.012971978748576477
aF0.0007003804515971034
aF0.002114578997765472
aF-0.012470213070776021
aF0.005038204563924061
aF0.010674676124448328
aF-0.018663983124962348
aF-0.01867636361769009
aF-0.005951431263496834
aF-0.021481270053969763
aF-0.009514996973690836
aF-0.002032937795833691
aF-0.013127046662497314
aF-0.008318218177305577
aF-0.002268706597331092
aF-0.014440350951845411
aF-0.015599577110026281
aF-0.006665581576720902
aF-0.01296767466464275
aF-0.011717660120976676
aF-0.025890613729947148
aF-0.013309104878496538
aF-0.009601797165183357
aF0.0008393145530985299
aF-0.00018852511098989928
aF-0.02100867918011836
aF-0.011422531638945039
aF-0.006250714033121366
aF-0.009170183159362471
aF-0.015226273189619409
aF-0.003275023606733312
aF-0.012175698451147259
aF-0.0004063092474205324
aF-0.017057539244681962
aF-0.008690584798092982
aF-0.01739179027546427
aF-0.008361168078754635
aF-0.011165315709137234
aF-0.00664174039167442
aF-0.014998134584104842
aF-0.011834031341954866
aF-0.0003135501976509992
aF0.010393767347880887
aF-0.0021512580878507437
aF-0.022816124115459323
aF-0.006681267070572507
aF-0.02254935730619719
aF-0.015155448731074815
aF-0.00913536109786238
aF-0.0033845510580784027
aF-0.013591724392510945
aF-0.00023800865642111457
aF-0.008405424620591639
aF0.003976365748800137
aF-0.0013025912888278263
aF-0.013043774502179377
aF-0.011271655450264309
aF-0.01988895083295036
aF-0.024987466080426787
aF-0.010799328721455953
aF0.00226953126764098
aF-0.006375830827896563
aF-0.028122931497871498
aF-0.022829313659187094
aF-0.011180636581872879
aF-0.012837637320347563
aF-0.007399249679306663
aF-0.021190562395722402
aF-0.017246124067123843
aF-0.010980563107426835
aF-0.016143658518961376
aF-0.01768027292079205
aF-0.0168354901627113
aF-0.021552529230622744
aF-0.016791522255211723
aF-0.0043834862829733
aF-0.002604993781684951
aF-0.009298553123405322
aF0.008944061869695872
aF-0.000985200376559935
aF-0.019477630662883508
aF-0.026019743532994407
aF-0.01485105767777331
aF-0.030470431053646833
aF-0.0025412087086120632
aF-0.006737366489165632
aF-0.011113707876890554
aF-0.010037353762609301
aF-0.008006188109589423
aF-0.0009211113008183663
aF-0.005848373027793506
aF-0.00508333080303327
aF-0.015212920839669939
aF-0.02015526403151007
aF-0.017081033417330763
aF-0.014189571557385768
aF-0.0041367208536410155
aF-0.0007339045804485365
aF-0.017670855889252532
aF-0.02560382523295608
aF-0.017471013421224337
aF0.0008419732878634167
aF-0.013240703362287273
aF-0.002129326423772806
aF-0.005867073586803057
aF-0.011327709749565346
aF-0.012464976455135352
aF0.0005484779444824913
aF-0.010108691812656138
aF-0.01219050005614387
aF-0.011842665168491768
aF-0.0042925958652635125
aF-0.0053986386202330774
aF-0.012084726164733496
aF-0.0042088888019668445
aF-0.001519868297060193
aF-0.004965949923685618
aF-0.01312468528362081
aF-0.01374222385078193
aF-0.01959195536333199
aF-0.029628062169054087
aF-0.014851629808037387
aF-0.00699289095621794
aF-0.0010118139528281491
aF-0.00788064341890473
aF-0.009870342542451963
aF0.0030456187001020795
aF-0.007379832083576418
aF-0.010164166291736512
aF-0.0023486859780304722
aF-0.014302409982452326
aF-0.016807327459564838
aF-0.027044576794942547
aF0.0011213138323803709
aF-0.01563760381199727
aF-0.015000210068380489
aF-0.014479858138455601
aF-0.015521459539993628
aF-0.013195670283772857
aF-0.01427571472043495
aF-0.0040183384957135455
aF-0.018749249139656962
aF-0.020188156429973826
aF-0.01611853321881923
aF0.0007222464786476315
aF-0.0073636994972374175
aF-0.0057043513924783015
aF-0.02167333338604121
aF-0.0013729698698100334
aF-0.00843612289814142
aF-0.00016644964783480223
aF-0.014836913461459288
aF0.00721359086921586
aF-0.0032133025390130208
aF-0.022217795645730804
aF-0.012082137814255715
aF-0.009925844092028901
aF-0.030894587697865832
aF-0.002873093745138948
aF0.0012964554879947342
aF-0.00842050694503923
aF-0.017797046911754565
aF-0.008392267783700181
aF-0.002327527248856753
aF-0.01581302806191162
aF-0.01086536120488249
aF-0.013935808514996451
aF-0.007435596193641222
aF-0.010744883229613422
aF-0.01844707710791223
aF-0.013142379405870423
aF-0.007602104378239782
aF-0.0024091285395224753
aF-0.020696891969385563
aF-0.006635893727487698
aF-0.0019697587680014552
aF-0.016833738269154103
aF-0.012022351197391909
aF-0.01452098864732226
aF-0.0098212985640184
aF-0.016776066561201328
aF-0.01699761369084435
aF-0.006746641025000691
aF-0.023418221784621603
aF-0.003508283947684013
aF-0.010986123326353717
aF-0.00540338818409273
aF-0.010958446977698714
aF-0.000838204916577194
aF-0.0005056217297352459
aF0.010076568644867308
aF-0.014925171837919285
aF-0.014656152644177608
aF-0.019516917349285106
aF-0.014822368807315528
aF-0.007799110097095217
aF-0.0072286527422627065
aF-0.012360408491772956
aF-0.020131744304374474
aF-0.008921678262167979
aF-0.010757556914033666
aF-0.002617439164961908
aF-0.009149360470174474
aF-0.008909077462175249
aF-0.01623853791494399
aF-0.009445445525382266
aF-0.011633007389483087
aF-0.01223752891849937
aF-0.009610307163413337
aF-0.005616957024123391
aF-0.013617823632448197
aF-0.006248659595118138
aF-0.009986617912180236
aF-0.010287155432019612
aF-0.00926002746768482
aF-0.015406914923930726
aF-0.01563831450846332
aF-0.016284378359264738
aF-0.0027510422555055373
aF-0.003599071597851281
aF-0.0064139344563223614
aF-0.010300179474857408
aF-0.017302484033714805
aF-0.016326383060719967
aF-0.003644397330415039
aF-0.012539043198243165
aF0.006682524643760115
aF-0.008025783341482873
aF-0.015186478768604432
aF-0.023255206266890736
aF-0.0034549913987315453
aF-0.022617232122802644
aF0.0017717211357302462
aF-0.01259178766457528
aF-0.011254823535866012
aF-0.010942510215735227
aF-0.009883461873066459
aF-0.007289879190492467
aF-0.002633491079331045
aF-0.003628302790163981
aF0.00032026809388461435
aF-0.018819985176971785
aF-0.010312625860939492
aF-0.02414969611650106
aF-0.005948078111272763
aF-0.00389603804126954
aF-0.011569245978824583
aF-0.014495805914004112
aF-0.01193901142119613
aF0.001098889124272827
aF-0.017720604770308058
aF-0.009438667390090982
aF-0.015879436577458425
aF-0.01972054793583124
aF-0.0003858843182778754
aF-0.007167825999793731
aF-0.015457854381163613
aF-0.011956017040625514
aF-0.020082529554739124
aF-0.007336869118728247
aF-0.017513145594724427
aF-0.00774506980996917
aF-0.0031837161604717588
aF-0.0038312439946555474
aF0.0024380593951216344
aF-0.010750525205557207
aF-0.008828098465727192
aF-0.00887705231676689
aF-0.029943560111163676
aF-0.005243898083340347
aF0.004535940342791511
aF0.006124267366371641
aF-0.022961155711810923
aF-0.013164062155732494
aF-0.007957477028368456
aF-0.004844335701439437
aF-0.013073348367617348
aF-0.009117199649519153
aF-0.02085312415596287
aF-0.014387888511428491
aF-0.011827059949513549
aF-0.003096905922915669
aF-0.006270390722673398
aF-0.006686149020347255
aF-0.018840448087666738
aF-0.006335969300373912
aF0.0033887652111461
aF-0.02423221936837527
aF0.0025174227108431856
aF-0.004618424233204803
aF-0.006439617871196431
aF-0.013469290269667346
aF-0.014157892676232048
aF-0.010030147469939776
aF-0.018384702881307186
aF-0.008139993487515866
aF-0.007989119761046617
aF-0.004446474454016942
aF-0.014164542747287914
aF-0.004936280714097706
aF0.009073542720313315
aF0.008649965692507184
aF-0.01595760583101121
aF-0.01829964177462248
aF-0.011983618074949215
aF-0.022843409633341298
aF-0.016591932878973887
aF-0.00940557442188836
aF-0.010934808976552267
aF-0.018815880647330002
aF-0.007870967174901183
aF-0.013233645290771277
aF-0.002742015009270394
aF-0.003179012662829683
aF-0.017589179174018206
aF-0.021449881996022536
aF-0.012275324313671274
aF-0.016547756847294013
aF-0.016126298502676033
aF-0.01487380056016834
aF-0.0007797100857594701
aF-0.023577467396257785
aF-0.018884445992871538
aF-0.011433724162134031
aF-0.016270270381008065
aF-0.011862410539327746
aF-0.01152695401438331
aF-0.01923293145568892
aF-0.008320953795659756
aF-0.00579253629748556
aF-0.009395899522084007
aF-0.015373651403055244
aF-0.019719164717585606
aF-0.0131721034401216
aF-0.012193700723003686
aF-0.008885428880784415
aF-0.012639384048171186
aF0.004506208597229298
aF-0.000987252205326709
aF-0.012943652311249632
aF-0.013807339654142117
aF-0.009944421741361625
aF-0.02793176471834331
aF-0.011560228663979101
aF0.0058283945655652055
aF-0.00012664260937386468
aF-0.0100335590352665
aF-0.007301172130952704
aF-0.009485604715206876
aF0.0029408599781331366
aF-0.010587258691594346
aF-0.013379265319124593
aF-0.006506089965365811
aF-0.014569369978009271
aF-0.02803978878153425
aF0.0018894514457398533
aF0.0026699118791713838
aF-0.01248571989075533
aF-0.01786214776190563
aF-0.011529536028378876
aF-0.0013067028613816707
aF-0.018794365842061005
aF-0.001647911287374708
aF-0.01915897947031666
aF-0.020122836207678862
aF-0.016196669633213794
aF-0.0015757531954861952
aF-0.007675985248168851
aF-0.012795893014924337
aF-0.016444256161075307
aF-0.009072717111387138
aF-0.004324599734286846
aF-0.0005935488334830479
aF0.0020608969376839153
aF-0.002276364557912329
aF0.010454874172157201
aF-0.01266071491137634
aF-0.017990830018635502
aF-0.0019721635652057085
aF-0.013444356069201082
aF-0.0011469556242778038
aF0.0009634208751976604
aF-0.004380312548571473
aF-0.005227976592010008
aF-0.016908068005019802
aF0.0006153235669234697
aF-0.008959012255440374
aF-0.0053557827038705945
aF-0.013728943048600185
aF-0.008743875425447368
aF-0.012804637657743145
aF-0.02385097459659239
aF-0.007837597949240039
aF-0.013414436122675441
aF-0.004195703229386023
aF-0.017709908942994745
aF-0.024401775082268533
aF-0.01019010405565776
aF-0.016862422139591736
aF-0.0006527416816740866
aF-0.0058479291562185415
aF-0.015172139715907675
aF-0.009253903639857569
aF-0.009357680839194863
aF-0.013748708246808053
aF-0.01766094630737625
aF-0.012921795283502836
aF-0.009324176309939342
aF-0.009544628606979228
aF-0.009478090082686519
aF-0.011612442352972081
aF-0.006809891139862373
aF-0.007701868027224286
aF-0.012747061430767002
aF-0.013242214664303675
aF-0.01906551584653124
aF-0.016692979033401202
aF-0.012381695916954706
aF-0.009818067371870035
aF-0.008089013780849221
aF-0.01026318430124625
aF-0.0008581884227344791
aF-0.011650522296420576
aF-0.008690033123392291
aF-0.00880753219263811
aF-0.003118916382503466
aF-0.013268516547974993
aF-0.010507093108161513
aF-0.026136755756601134
aF-0.008009602153105791
aF-0.016292993120476006
aF-0.013987364016381391
aF-0.02449937772610346
aF-0.021216648102676004
aF-0.0118817963000707
aF-0.02373312331322681
aF-0.006675945888665335
aF-0.016540090155050525
aF-0.011909974845255175
aF-0.008185925130468077
aF-0.0072831246431302454
aF-0.018458169699146074
aF-0.019306953080288996
aF-0.00982474514591681
aF-0.01725920785713445
aF-0.008670571663726171
aF-0.006579463747287701
aF-0.0030769530552518898
aF0.007264142930042624
aF0.0007288806266968111
aF-0.0022633121737094487
aF-0.01508189257252379
aF-0.014472965163400138
aF-0.014057896077581308
aF-0.012862740741969391
aF-0.0003331935277178463
aF0.005009985161764973
aF-0.0074678033645628975
aF-0.01678794703707389
aF-0.008224218589020196
aF0.0014070052881577076
aF-0.004794770179855152
aF-0.012741054589877761
aF-0.020431211711506546
aF-0.007530107655776212
aF-0.01988362399700102
aF-0.011124179226028852
aF-0.0017107244060415119
aF-0.0005732003064235188
aF-0.011853906526027514
aF-0.014264262121320866
aF-0.002424644567912035
aF-0.011055027757996654
aF-0.008168480861008593
aF-0.02108592744781057
aF-0.019727212117858148
aF-0.0015925884431040418
aF-0.010965370599486142
aF-0.007741655099827327
aF-0.008077577601741378
aF-0.005208530294206091
aF-0.01763222495112437
aF-0.0009144337707516974
aF-0.012350532010648944
aF-0.014140960671833904
aF0.0024513596680133267
aF-0.0027103440470959564
aF-0.009148927110925636
aF-0.015836530847548894
aF-0.008806649211036077
aF-0.01824960982571237
aF-0.005438569048478937
aF0.0075164142561130924
aF0.0037403146137631625
aF-0.008039837691944388
aF-0.01675104125964544
aF-0.003871952591756105
aF-0.013241606275956134
aF-0.010387480811171967
aF-0.005689284912975784
aF-0.01072446050050963
aF-0.02542432717506754
aF-0.03042135888341648
aF-0.01390968307901378
aF0.0007968481350597734
aF-0.011993808381981268
aF-0.025620625303188163
aF-0.01779019426477437
aF0.0032319180003949717
aF-0.007046624128102432
aF-0.012411477646531232
aF-0.005759033038729503
aF-0.01903216803751657
aF-0.011185376364803113
aF-0.0015690989725774887
aF-0.00815977328189994
aF-0.01909618476571371
aF-0.008584319192805
aF-0.0008388701257092048
aF-0.013429036962212273
aF-0.010888885326442764
aF-0.0023195701765612786
aF0.0012083246619186212
aF-0.0014179647405375827
aF-0.003368213622243684
aF-0.02576233634075723
aF-0.017447921780530114
aF-0.01926428100391908
aF0.0015352148492341923
aF-0.0008870521995085921
aF0.004531963755634123
aF-0.020344126094956266
aF-0.006178871958755154
aF-0.005090157815444603
aF-0.00041023450715026513
aF-0.01394265037717737
aF-0.004886608778340948
aF-0.007543939526919452
aF-0.0060114834134166045
aF-0.011400138967785516
aF-0.008303581544945864
aF-9.59434803275267e-05
aF-0.006317216030145062
aF-0.009154391931179933
aF-0.014594927563501203
aF-0.006348911141751953
aF-0.02350795820516763
aF-0.01593623217071754
aF-0.01622563619044755
aF-0.021739071336522624
aF-0.0003720494663534287
aF-0.01103028777065881
aF-0.01671228807873681
aF-0.019414776985705127
aF-0.02171078487647427
aF-0.018003153924309644
aF-0.008509725094932872
aF-0.012506882353942431
aF-0.007720740846759395
aF0.0006666841443180255
aF0.007229220907491536
aF-0.009150891686377572
aF-0.02526793069543219
aF-0.0018023111542198413
aF-0.030232208560070053
aF-0.0014507593932106635
aF-0.003402894311589102
aF-0.001968177372607921
aF-0.012104496671525175
aF-0.010264070162991723
aF-0.017207422657684456
aF-0.006570412383127042
aF-0.014062328862483523
aF-0.010281862640855467
aF-0.0048963006998343885
aF-0.0200432110964674
aF-0.013265354192301803
aF-0.01578636597319955
aF-0.016047791025123336
aF-0.011642102169958188
aF-0.015940466934211046
aF-0.010362919223637818
aF-0.014738543696114428
aF-0.011289911948005642
aF0.0030973449363880176
aF-0.008913555175503076
aF-0.01975785233188471
aF-0.008274186999957864
aF-0.018431653022219604
aF-0.0017708383347491887
aF-0.003509103861072923
aF-0.01754147464813627
aF-0.014244301093331286
aF-0.0031954759433344758
aF-0.015007723913206643
aF-0.006048788442889288
aF0.004993304335823418
aF0.002686312332300486
aF-0.017188062093006704
aF-0.01455963412460236
aF-0.008205551366995936
aF-0.018606976291259146
aF-0.009179519993759691
aF0.0012363283257934444
aF0.00444390559439636
aF-0.01630430334212464
aF-0.007384555287328705
aF-0.010405724301584417
aF-0.011121173916134144
aF-0.016013688708651632
aF-0.01308235993433937
aF-0.009135460522910725
aF-0.0206644026428238
aF-0.018090029432375882
aF-0.006737326480809849
aF-0.0009529965443413131
aF-0.012642410669187127
aF-0.022398080833219616
aF-0.025928068606579844
aF-0.01516824817039005
aF-0.006914372757659499
aF-0.0062511758499588805
aF-0.007719128859122085
aF-0.022224780268747406
aF-0.011531437444514332
aF-0.01038443762776509
aF-0.01941033823114493
aF-0.018550390216472364
aF-0.012812758331909613
aF-0.017465942101684954
aF-0.009071725525696937
aF-0.0021867946523422186
aF-0.0058589009374634266
aF0.010296097334394147
aF-0.006464485368908975
aF-0.1433165711412115
aF-0.0025915608412662274
aF-0.13890794019044211
aF-0.14530472126630378
aF-0.1557440657007867
aF-0.14333175896280348
aF-0.1534571910208203
aF-0.14969757514011156
aF-0.14428346562618732
aF-0.14688411667979204
aF-0.1484207055114935
aF-0.14796558412558453
aF-0.1397696257315055
aF-0.14607558609327964
aF-0.14267203368004816
aF-0.13891011104906983
aF-0.13709657838795272
aF-0.14954829246548257
aF-0.137883566001815
aF-0.14514476894370718
aF-0.1525201564018365
aF-0.14091137390796174
aF-0.13632881062885854
aF-0.1482259361460562
aF-0.14976704736669258
aF-0.15340133211100015
aF-0.1414215263516917
aF-0.14371262099938936
aF-0.15083552011678217
aF-0.14437381276156774
aF-0.13940851388100542
aF0.02693477740298649
aF-0.006577247879112778
aF0.03545392335071787
aF0.03580742084248636
aF0.0352459166503711
aF0.023765051761641683
aF0.03519587570087767
aF0.027479242184962158
aF0.025153943028536886
aF0.03617360748962454
aF0.028218640649633205
aF0.03124436400646207
aF0.024214648844617388
aF0.02303000709882526
aF0.03105045536010223
aF0.03817462014781755
aF0.03518828867604164
aF0.03895821000564499
aF0.019671136004103813
aF0.028365994334439863
aF0.04061468522589049
aF0.026643969694587058
aF0.028016819641392327
aF0.03156327016427517
aF0.03219052213127157
aF0.027204323012802303
aF0.03447803459483171
aF0.02585679916022738
aF0.026426267721297816
aF0.026728069808800665
aF0.04006589381475692
a.