(lp0
F-0.0037227695302639373
aF0.013150099015379321
aF-0.00033755551979311156
aF0.006926881175642772
aF0.007959920609722289
aF0.015176015005324527
aF-0.011949518020945458
aF-0.0011397088142617046
aF0.012065261356576963
aF0.0013666271598382056
aF0.030016912409733303
aF0.019475802404543496
aF-0.0006293797088506234
aF-0.01646227494199374
aF0.0016980034372664774
aF0.010079859989472726
aF-0.015764799027579306
aF-0.007499790394351526
aF0.003973480246413115
aF0.031271362772570546
aF0.017873956398605065
aF-0.0008722250355762328
aF0.005809082930979958
aF0.0035769876569417803
aF-0.01169467707348512
aF0.016427617611157075
aF0.007715732979235605
aF-0.0033646370349069417
aF-0.0073713751466672715
aF-0.01169842944286333
aF0.025035336833351095
aF0.002102416801637636
aF-0.006379798162583449
aF-0.010038847595229489
aF0.002527227452963054
aF0.017006864408540455
aF0.006879803138760056
aF0.003466753353867508
aF0.012539946974869019
aF0.00655251210756683
aF0.002523391583093536
aF0.007088809319580159
aF0.0024440825559085993
aF-0.002385697349128195
aF0.008518272271900175
aF0.012371063785809714
aF0.007365612194383385
aF0.025347844741120465
aF0.021296721422044872
aF-0.005970377007004066
aF-0.019378619627364355
aF-0.00508992560590716
aF0.018409987334920067
aF-0.015910219357020125
aF-0.009572198318860041
aF0.007230568316997905
aF0.020671460151863358
aF0.011480881148165945
aF0.006818162663660402
aF0.00684239168044678
aF0.011239491011846186
aF-0.0004557865549477424
aF0.00476739489593154
aF0.002708312607280743
aF0.0024349683008608116
aF0.004052492252331425
aF-0.003723720539873478
aF0.03524554206733334
aF-0.008690631731948315
aF0.007601192022872532
aF-0.004538597255795906
aF0.013104167199278743
aF0.013860097100837234
aF-0.007611708500893091
aF0.0033575500055885938
aF0.0046455388844095875
aF0.003982914510620983
aF0.0032418298160003496
aF0.004891849567156621
aF-0.0013147707887500395
aF-0.011840701582098115
aF-0.007722217132088368
aF0.012877380006778032
aF-0.0059599751407345206
aF0.01127801214953308
aF0.017086143796720802
aF-0.004428364953238511
aF-0.012546984017491335
aF-0.0032442544084507487
aF0.009360533490102043
aF-0.01408825986588396
aF-0.006082868982213657
aF0.001620675704368058
aF0.013293211737524154
aF0.017480986936012355
aF-0.0023411756032552847
aF0.004804632111508766
aF0.0066176303400656954
aF-0.009962969679874619
aF0.014805496062763915
aF-0.010258641920355896
aF0.001142300435755336
aF0.0025282466577783197
aF-0.0003541632761558124
aF0.032426227626006075
aF0.001563926568119062
aF0.0068789607657585815
aF0.006097826878230151
aF0.012511328351754643
aF0.01718952203189051
aF0.009429384119190476
aF0.005000317256075466
aF0.0004428988632294798
aF0.007192746083756483
aF0.0068438094960225045
aF0.018821547832116252
aF0.008792655423633621
aF-0.013807001029772784
aF0.01074342948423684
aF0.01225345758969628
aF0.0063138070355578295
aF0.026492526684751043
aF0.017423162083631098
aF-0.018176915051774302
aF-0.014391407278512073
aF-0.008720099997030818
aF0.00806029969424557
aF-0.004039880465375405
aF-0.009264421456437667
aF-0.00166510962427017
aF0.01423116282371542
aF0.001767386311126917
aF-0.004751859080494678
aF-0.0015532260724919955
aF0.002598852430734098
aF-0.004803331947155928
aF0.013375613317222822
aF-0.008119558574371171
aF-0.009286661545440871
aF0.0023538411035518322
aF-0.003698834985899236
aF0.03613568028946034
aF-0.0035014644212594563
aF-0.007400672123696959
aF-0.009718918501517546
aF-0.004032024960217521
aF0.02558083919869111
aF-0.006446591589509471
aF0.00700439035939769
aF0.01952104439933568
aF0.012819307223723856
aF0.00844337186470744
aF0.014364673134250012
aF0.01816589485504316
aF-0.009267379792920263
aF-0.0039775271888036375
aF0.01095270463869367
aF-0.0029768262873420635
aF0.02643307385373124
aF0.014281096839480216
aF-0.01253232094747584
aF-0.004072881131647422
aF-0.002872111683902204
aF0.006832014398560965
aF-0.01345234081305295
aF-0.010104267168638204
aF-0.00014471225836339488
aF0.03156630182652373
aF0.012676276433839586
aF0.006066300584498382
aF-0.007431786275005686
aF0.01912640493523201
aF-0.004069096322200011
aF0.014497306147176193
aF-2.1137647200243984e-05
aF0.003511973461532987
aF0.00503638245875445
aF-0.016175750901027894
aF0.027248060573478852
aF0.006623786781166444
aF0.006293142653266134
aF0.007768078155319617
aF-0.004076660523115713
aF0.017756443088845258
aF0.0059078679728067525
aF0.0007103651671040248
aF0.009025571166666052
aF0.0036820222993304854
aF0.001844974546577584
aF0.004278165959753373
aF0.008691073139644984
aF-0.0018715991036544082
aF-0.00854044322269392
aF0.013687214834419328
aF-0.008346696280434576
aF0.008802020554077087
aF0.013095341998841253
aF-0.00888165529565919
aF-0.01381817487193214
aF-0.01290346751834685
aF0.00746844074693912
aF-0.01754881767063603
aF-0.009702650492135145
aF-0.006767337414342397
aF0.01976245103125346
aF0.004908575821151317
aF0.0012682793339463786
aF0.00638733325161839
aF0.0006675942528770224
aF-0.009042243455819695
aF0.008113207405115534
aF-0.01112095128748131
aF0.0008989080226239681
aF0.0035324660334999708
aF-0.007708028168933899
aF0.021368531036998286
aF0.003009379256658329
aF-0.005768782305727995
aF0.006161134260549496
aF0.009279916366524792
aF0.017861094114504036
aF-0.0066646789231559
aF-0.00947175904693676
aF0.012094128450566677
aF0.00846928619222715
aF0.015853083544626105
aF0.007317039595361755
aF0.013246476264514334
aF-0.0092703484431968
aF-0.007292937261802368
aF0.011126048567251561
aF-0.0008808100725642446
aF0.009523837581268936
aF0.011321661342893728
aF-0.001941354744973054
aF-0.019526177749664756
aF0.002126915890316329
aF0.017795658605849148
aF-0.016031558183025818
aF-0.02485558342596028
aF-0.0020573153589798668
aF0.016181596309596386
aF0.01020387761408767
aF0.0012958807363087498
aF-0.005728168060341768
aF0.015401781662023044
aF-0.004674828845458797
aF0.00908241047848927
aF0.007134779309399414
aF-0.007413055685045384
aF-0.009528547853019476
aF-0.011193072890076768
aF0.021724357474115986
aF-0.0044341089034381715
aF0.006523876870373858
aF0.0017174610814942723
aF0.003790920245774813
aF0.02174556745121179
aF0.005179081535663165
aF0.00038888275168982335
aF0.017108927909575553
aF0.011646310164823231
aF0.012715443553853793
aF0.019402364642722037
aF0.003966349983545418
aF-0.011793266181056491
aF-0.003115426039854014
aF0.024284954931840644
aF0.0021581229987446297
aF0.015953071495103603
aF0.020675181857387464
aF-0.017746017111665634
aF-0.005575125834645169
aF-0.002855345291386447
aF0.014259075854733651
aF-0.01507344714081051
aF-0.008089712273410163
aF0.008486778803935419
aF0.018658069067647273
aF0.0068822821476393955
aF0.012797594576008339
aF0.001562696969428954
aF0.01329608445175563
aF0.001111795930909649
aF0.004463664923498907
aF0.0027221426451569607
aF0.0072734454135712345
aF-0.0024844116560048955
aF0.0007937411675760626
aF0.038566448853605675
aF0.0013257549687804141
aF0.002414470586053126
aF-0.007537522323273052
aF0.0027077787788741957
aF0.018913805528083617
aF-0.006574466023029751
aF-0.006715156616712847
aF0.008352098699085974
aF0.00803478308299189
aF0.003781202497035513
aF0.01656476116417091
aF0.002468413204150796
aF-0.011315854668516704
aF0.001742109058884475
aF0.029557448772634335
aF0.009459510653939136
aF0.01970652027718127
aF0.005951926940856342
aF-0.012443356681624537
aF-0.017661558579389457
aF-0.0018251697741521375
aF0.008497425808238715
aF-0.016611721401776657
aF-0.014051861723478172
aF0.007376288148144099
aF0.03273518503314357
aF0.007301844879259903
aF-0.0024876557874166576
aF0.00926152938744869
aF0.0007039721195847152
aF0.0008542770556370614
aF0.000824622883913126
aF-0.005067004697801553
aF0.005417208021818925
aF0.0031846475944329383
aF-0.018173727010953558
aF0.03593146974626186
aF-0.00019587779390920152
aF0.002126405209969238
aF0.003673415563122235
aF0.011184187701829943
aF0.019942271303436853
aF-0.007581439700792022
aF-0.007698183807162618
aF0.015288109773726046
aF-0.007815928901023325
aF0.0020079976410166574
aF0.021257680263354048
aF0.01675257975440373
aF-0.0010993782255259892
aF-0.003572243398030461
aF0.01174491549260507
aF-0.009417731877901576
aF0.022564915888438744
aF0.01713004967610509
aF-0.019076645306640216
aF-0.014792432970374837
aF-0.006359202532741024
aF0.023470207137812813
aF-0.0012252738660259357
aF-0.008266463254534607
aF-0.00554414099243156
aF0.013448269585288008
aF0.009706804293285232
aF0.006135008968587596
aF-0.004370147949213492
aF0.008068317316552675
aF-0.011980322566133045
aF-0.0026492818354276314
aF0.008318573968889291
aF0.0002674185096569722
aF-0.001633670703754887
aF0.000628629072490811
aF0.021773806280415763
aF0.002007140639932981
aF0.005579745572688764
aF0.007610871272276899
aF0.000606998521954916
aF0.025412295472228792
aF-0.004027866550428715
aF-0.3197327828619202
aF-0.005139282163443673
aF-0.3227062557742791
aF-0.3114698187206333
aF-0.32067219810703534
aF-0.32260859353969146
aF-0.3038616708004348
aF-0.30701571059995664
aF-0.3215225431427501
aF-0.3213886287242289
aF-0.30901395454310016
aF-0.18132921277214276
aF-0.00146302523996617
aF-0.1691543214826591
aF-0.16063541680552423
aF-0.16436689473381608
aF-0.17994957138889087
aF-0.1609907577896369
aF-0.17514597510702046
aF-0.18325728168257438
aF-0.17329349990885498
aF-0.16692713703154638
a.