(lp0
F-0.0003392910900460273
aF-0.013713307550993837
aF-0.003954778277254031
aF0.002862935074468405
aF-0.0029111968049553905
aF0.00011820159905096559
aF-0.015119430020604476
aF-0.00033855706343414137
aF0.0010933685780960575
aF0.005093647474422773
aF-0.006652700746633586
aF-0.015392834750517838
aF0.012899457614237714
aF-0.004858564507592512
aF-0.009894142992817065
aF-0.00032516756687678023
aF0.00033519408244320767
aF-0.008952684816665413
aF-0.018843325357129855
aF-0.01890327656867104
aF-0.0020289781414951752
aF-0.011726549954702311
aF-0.009903113067003347
aF0.0007204904154170966
aF-0.004469757408190866
aF-0.003041394336517451
aF0.006731596052226859
aF-0.015093453239962933
aF-0.007804399327514569
aF0.0035296124920305167
aF0.005026661726235403
aF-0.021405840796076603
aF-0.019699313608959705
aF-0.005852285191063676
aF-0.007408564309390518
aF0.0006979570188635478
aF-0.008382427638813025
aF-0.015171482427081521
aF-0.011070787159211764
aF-0.022546983564969165
aF-0.0038855158293140454
aF0.00884328414169012
aF-0.002698841269412222
aF-0.0028332907191185113
aF0.00011020636404011127
aF0.005660353883301752
aF-0.008004800734652037
aF-0.0016511506650216722
aF-0.01393113062118395
aF0.012302211690919001
aF-0.006924611533267637
aF-0.01494432364578724
aF0.011333478100184601
aF-0.007867168379721382
aF0.0038220617763960654
aF-0.01041394010043847
aF-0.026378276321559542
aF0.007237217634955577
aF-0.0011633349838216383
aF-0.0052845490705890515
aF-0.0005162309874616304
aF-0.00939123760652327
aF0.0007997888206460223
aF-0.004909812416885744
aF-0.004492413101914875
aF-0.0041208713181413205
aF0.0017296858009768308
aF-0.010746763730916323
aF-0.00909740441850622
aF-0.009292294259725286
aF-0.004555799814688427
aF-0.024522411836649643
aF-0.0025256329401285244
aF-0.011177280589296698
aF-0.01425589326578101
aF-0.014010281143722849
aF-0.01710794319000099
aF-0.0035524648724961703
aF-0.004533019793110176
aF-0.0036648264212879225
aF-0.0010914362469510355
aF0.003348123699856629
aF0.009450171114992027
aF0.0005295390422876249
aF-0.007772886894191519
aF0.0019353978632907288
aF0.006334062100938386
aF-0.0002947502769205879
aF-0.004323975533181231
aF0.0005717132941776041
aF-0.00583333819959414
aF-0.00934193988791534
aF-0.01448790656733933
aF-0.016768513884410516
aF-0.002321528207529523
aF-0.01086884475377892
aF-0.008507429010290148
aF-0.01452760839466356
aF-0.010682854395136469
aF-0.0013316394306973393
aF0.000677765691291468
aF-0.009421939324758856
aF-0.009613459278509682
aF0.0076434275140135274
aF0.005381469229030496
aF-0.008970033848199867
aF-0.01312500058020476
aF-0.006210377950559705
aF-0.02580729925234853
aF0.006538975722542136
aF-0.0031759458207307953
aF-0.004059193925675471
aF-0.0006261315040914247
aF-0.01989482704287215
aF-0.01248094904346007
aF-0.006951233918994032
aF-0.002418668674271266
aF-0.012532835235937474
aF0.0016230619111521985
aF-0.004051068009721553
aF-0.007603931217913074
aF0.004448038732695887
aF0.00016260834400532256
aF0.0018925624576622707
aF-0.012187209739763526
aF-0.0028739666925053447
aF-0.002386154651209859
aF-0.005754141011011503
aF0.008974001793120237
aF0.0007065116488272213
aF-0.012909109331076418
aF-0.009952592189767405
aF-0.008621504390681602
aF-0.005812588421114595
aF-0.015983368371849233
aF-0.002497934309559943
aF-0.012269764449521804
aF0.01069865798983758
aF-0.01719814057496789
aF-0.011065280348926773
aF0.007045076141884626
aF-0.014056652594941842
aF-0.011875467112563915
aF-0.0034048519172135564
aF-0.007958505830631242
aF-0.007743954934265404
aF-0.012320666311535198
aF-0.012309972276776975
aF-0.002064048550474056
aF-0.003340105792056368
aF-0.021925583173369696
aF-0.011640451559323556
aF0.009859074253185534
aF-0.009210016323746252
aF-0.006319730604307382
aF0.0043149063363705905
aF-0.0074386951455696175
aF-0.012250717825870032
aF-0.012279377586091789
aF-0.0041380557525291135
aF-0.0009660168675474309
aF0.001969800245984996
aF-0.005971537679567054
aF0.0061404774282354385
aF-0.0007660571685934746
aF0.005994958131136987
aF-0.004735737435827165
aF-0.02101413951021095
aF0.008133984433060994
aF-0.006058245942465431
aF-0.015314237177193955
aF0.0015808291884329602
aF-0.00505975614925473
aF0.0013122845806416037
aF-0.004512702786188247
aF-0.010577839089224186
aF-0.0031580834806682993
aF-0.0025856964677962967
aF0.002912816401405987
aF-0.012562078265396898
aF-0.010602637098648518
aF-0.002333875270743539
aF-0.013211243527013873
aF-0.003751747417904335
aF-0.005351351581554806
aF-0.018587760769144982
aF-0.012494611551550069
aF-0.016001214399647145
aF-0.006101120231665617
aF-0.006340595125046502
aF-0.0038483459640178434
aF-0.006204874698198995
aF-0.0025273765569782955
aF0.0017296039391608408
aF-0.009165470318467556
aF-0.0063317988628866844
aF-0.0033811222972987298
aF-0.00044006152965999105
aF-0.009138516656879852
aF-0.005908323000630484
aF-0.004497272762609703
aF-0.008167026763086309
aF0.005274367691769316
aF-0.00019162720489579108
aF-0.02035030900777416
aF-0.009103688563896182
aF-0.011604264214997235
aF-0.013169988664905721
aF-0.014207446130295835
aF-0.014426468370143658
aF-0.010457684856080148
aF0.006596475944955954
aF-0.01688797554109856
aF-0.006302236608288316
aF0.005553299602429002
aF-0.012633961302779727
aF-0.02133216480517721
aF-0.016834806059850063
aF-0.006207812080554799
aF-0.024859746170998846
aF-0.00524069858092088
aF0.0022195159194738044
aF-0.010421128582398863
aF0.0011408102627353577
aF-0.007382387666531801
aF9.69719284183916e-05
aF-0.0023714769025190707
aF0.00227635487811493
aF0.0009848274283308649
aF-0.0030441890680320267
aF0.008516438882379254
aF-0.011591399438147599
aF-0.004146130464384919
aF-0.017320528354643042
aF0.005828371203656275
aF-0.0006937966497193907
aF-0.015036213304762605
aF0.0034108997355432455
aF-0.01691444676753594
aF0.001835615560078213
aF-0.004207272526043897
aF-0.017070539348585417
aF0.0004349560072478213
aF-0.0015501745402182673
aF-0.017796301639603086
aF-0.01390928012099612
aF-0.010072431333251357
aF-0.005009616373887473
aF-0.006088204016277481
aF0.001856795836323353
aF0.0049444144349509635
aF0.004026514441381851
aF0.0015629372314082972
aF-0.022697806577957433
aF-0.0002300607460030018
aF-0.007380428804386368
aF-0.019358421681798514
aF0.004326217817531387
aF-0.01248135944717824
aF-0.011206763495209267
aF-0.014220322357269678
aF-0.0134388232047755
aF-0.0008896576709690751
aF0.004319939355564076
aF-0.015887715204379222
aF-0.00845347614795812
aF-0.008198473966569789
aF0.0035301663747980914
aF0.0025365722279917504
aF-0.014711328787816795
aF-0.0019695466042791423
aF0.0015824740199682614
aF-0.007031749868238636
aF-0.0026257942415171985
aF0.007494258317787188
aF-0.0031142084742251646
aF-0.006842097866097958
aF-0.01677436529892455
aF-0.024775066514936998
aF-0.0005789317499432607
aF-0.002989789923734891
aF-0.0051389862317137176
aF-0.00035804801447366047
aF-0.01263034198100889
aF-0.005459864456131167
aF0.0024183705119649648
aF-0.006319765517392504
aF0.0044199997503703925
aF-0.007653671858686819
aF0.003886246355361056
aF-0.009759555653523048
aF-0.01083900695637798
aF-0.00774192959766559
aF-0.023424556436113176
aF-0.00012173551127338863
aF0.006596693430298646
aF-0.015488169146782686
aF0.0005509885660081675
aF-0.0052754970123790965
aF-0.0019909881289570624
aF-0.002864605762415902
aF-0.0067966505341019836
aF-0.01096862587748108
aF-0.008906656902141728
aF-0.0075096313600698655
aF-0.008563910161135606
aF-0.004493861984494802
aF-0.007490582444703034
aF0.002490449203839466
aF-0.006469078627795562
aF-0.01913108513021836
aF0.00802345974741936
aF-0.017567658844668536
aF-0.006547854929092569
aF-0.009087518289880622
aF-0.027653542940922177
aF-0.0008478273218634246
aF-0.005432609947410922
aF-0.014857430603130571
aF-0.016206320033916897
aF-0.013679299546769578
aF-0.000611946330735321
aF0.00490510462895504
aF-0.015251783394030872
aF-0.014439030001844023
aF-0.002846920540783794
aF-0.00471530364102666
aF-0.012440091982932536
aF-0.00586292223211737
aF-0.007569660807416938
aF-0.020280578176613936
aF-0.0022755199450443893
aF0.0025149251955565825
aF-0.0031627135414213185
aF-0.008297340250550697
aF-0.011646585867897602
aF0.0022774426040249084
aF-0.0022511460443502117
aF-0.014449507231182145
aF-0.013111276112071286
aF-0.0015007905333575702
aF0.007234459655779665
aF-0.01246311481250171
aF-0.0030048908807380967
aF-0.009311425192967505
aF0.006243057451815358
aF-0.0037471229019311516
aF-0.005676317094333283
aF0.0009628994856425892
aF-0.01092959863368954
aF-0.005829548431209107
aF-0.005961284662320432
aF-0.014701714495976358
aF-0.005930170399787453
aF-0.0018371335106935106
aF-0.006873509141737065
aF-0.007334989894626973
aF-0.005885457581614958
aF-0.011579468522321924
aF0.006015228050157857
aF-0.010964300351081679
aF0.0011465740659735504
aF0.006512320162463704
aF-0.0036298793649022602
aF-0.008931216753631215
aF-0.009396338724834044
aF0.008487577420931048
aF-0.02506839315684188
aF-0.009442964491014174
aF-0.007780936169538401
aF-0.016386010193416903
aF-0.013565089622631915
aF-0.01931916725078063
aF-0.00643708018386978
aF-0.009801550187218844
aF-0.015124364127330113
aF-0.006426756880764351
aF0.0019362768113015975
aF0.00983506680253883
aF-0.0022608069916249664
aF-0.013025387044157769
aF-0.004773808798219601
aF0.010990868677532323
aF-0.00682228082696899
aF-0.015114023544871244
aF0.010925867585298819
aF-0.007157844076134172
aF0.007332962824538845
aF-0.011831524741044073
aF-0.0272186811277956
aF0.007613428611111845
aF-0.015308193914337291
aF-0.01933505836299675
aF-0.004361604387681999
aF-0.0075772589364829415
aF-0.0008970831642743089
aF-0.0021209792138868837
aF-0.009275858580805294
aF0.0003076386138648019
aF0.0009104676849347494
aF-0.011931016842499606
aF-0.009136886272103854
aF-0.008607674210744144
aF0.0028029867322714097
aF-0.02483264915788134
aF-0.0043053202187774585
aF-0.01023484388505696
aF-0.010295860754395198
aF-0.0098700713413149
aF-0.013011635417540295
aF-0.0011880688281106827
aF0.008787431819247526
aF-0.009917729155928928
aF-0.013574024455441801
aF-0.0032013038595378185
aF0.0062640180597025525
aF0.00144606355286861
aF0.0029922517858285837
aF-0.011759831836487378
aF0.012136504842075624
aF-0.003969649338575838
aF-0.007923196359801975
aF0.008286441924243994
aF-0.01055792174055468
aF-0.0018209501395432092
aF-0.00984130591540057
aF-0.019204684095691354
aF-0.00027879033954936725
aF0.0010430409859991073
aF-0.014042102310104916
aF-0.00511713988754168
aF-0.005191226611561398
aF-0.011815775162956902
aF0.008263589922029082
aF-0.002204883410200415
aF-0.013065662781618576
aF0.0018126090999541684
aF-0.009605402238031675
aF-0.021172792904217093
aF-0.015871845305192655
aF0.0064705302688993
aF-0.01825174807444445
aF-0.012201775937692859
aF-0.0031264099835533465
aF-0.016270436535403623
aF-0.009602831270796476
aF-0.01612341603638043
aF-0.00822503957555644
aF-0.004512319081047405
aF-0.011092352483050528
aF-0.010598823226276716
aF-0.005503767653621893
aF0.0035591499243635416
aF0.0009983288144952492
aF-0.007030098654456978
aF-0.004023119688367021
aF0.00945993557938906
aF-0.010098254451015375
aF-0.009369178231356539
aF0.0007746575539982368
aF-0.0015683553607746584
aF0.0067506010663211475
aF-0.011907715620615248
aF-0.0187694683580152
aF-0.009716000773133216
aF-0.01383550244456773
aF-0.007635220552813159
aF0.0009043280574749942
aF-0.01652543786482226
aF-0.005738453054646831
aF0.009713476243032055
aF-0.013386413724597413
aF0.0003131116738112924
aF-0.0032658401047080997
aF-0.007423685234844317
aF-0.02211841996263256
aF-0.004817629563038641
aF-0.0033933957426200033
aF-0.01370718148452696
aF-0.0052509616169208045
aF0.002007993215340861
aF-0.01707964741803401
aF-0.004123798827990181
aF-0.01089193587479882
aF-0.0049008653566850816
aF-0.004040779904001791
aF-0.006885586272905048
aF-0.011067689734362214
aF-0.009803794823600546
aF-0.003508436911654003
aF-0.0062647587046376265
aF-0.011469862608062287
aF-0.003128162513508687
aF-0.0024027642945248077
aF0.0008270866455891703
aF-0.005808858511206943
aF-0.00562642596918061
aF-0.001493641852684025
aF-0.002375341908816435
aF-0.009270563998105349
aF-0.029388205616541013
aF-0.006269082682705017
aF-0.004450528342066926
aF-0.016696257939909257
aF-0.0068616724625346365
aF-0.004314253759382414
aF-0.012713224892611666
aF-9.111785495336108e-06
aF-0.0054938101994999235
aF-0.005658723136597592
aF0.009814530788723942
aF-0.0017950793695358633
aF-0.025369258511525862
aF-0.013827548587654667
aF0.004108367603157185
aF-0.014152048864716535
aF-0.00932236767739256
aF-0.003816549361858831
aF-0.0037654632038188387
aF-0.0010745909968677481
aF-0.003329069008015304
aF-0.008202477036010595
aF0.0050063980809762435
aF-0.006177791405415348
aF-0.0007809714959627397
aF0.006185958858083588
aF0.009408926283519973
aF0.0008202208404137028
aF-0.00911524705306064
aF0.0025419865091061066
aF0.0009587137735453377
aF0.0005350715572309875
aF-0.011637702808737084
aF0.0009858822399022803
aF-0.0028264436922719313
aF-0.00855491976108916
aF-0.00993577756577629
aF-0.03093078031011883
aF0.005176946742387397
aF-0.013938044967994752
aF-0.013062650321110253
aF-0.0050445722172977716
aF-0.013594447446616848
aF-0.012128404621554786
aF0.0027704380269709915
aF-0.005896973029784895
aF-0.012590265926073109
aF0.0045987086303006025
aF0.005668776028703835
aF-0.015619883663463662
aF-0.007883664615941022
aF-0.0018579258013059923
aF-0.014165183128659387
aF-0.0008232627136216491
aF-0.003852229026102226
aF-0.14846474343227678
aF0.00013539163343725263
aF-0.13579398306512316
aF-0.14394640021576582
aF-0.13574000833886807
aF-0.14441608249478746
aF-0.1287397721525391
aF-0.13356899560508118
aF-0.13882932186315325
aF-0.12589413148001638
aF-0.12855628049903808
aF-0.13269931773697738
aF-0.13956996227513097
aF-0.13118520412370602
aF-0.12701390729139814
aF-0.15043485305560636
aF-0.1731246971521432
aF0.0050348100628382995
aF-0.17615770453101712
aF-0.17023789449180185
aF-0.17466482773969066
aF-0.17734440761288475
aF-0.16274139487698588
aF-0.1767276915012932
aF-0.16986305198681562
aF-0.17533191053697275
aF-0.17026142509924047
aF-0.16775661643649756
aF-0.1688367623349786
aF-0.16486041405994542
aF-0.16710475954542783
aF-0.1661138744434057
a.