(lp0
F-0.06744737927901429
aF-0.053801774344745416
aF-0.10200103961929256
aF-0.006187346915484854
aF-0.048902073492982624
aF0.05379039506558618
aF-0.056388862438107715
aF-0.01206848087512516
aF-0.07696220350454486
aF-0.13281739996722874
aF-0.04915339751426228
aF-0.058157552985057634
aF-0.020412426506060854
aF-0.0399962668507896
aF-0.06471902377917106
aF-0.009770868915846548
aF-0.07752366561834781
aF0.040684972077019224
aF0.018630594601086126
aF-0.11685699978002813
aF0.052338083269242615
aF-0.012177385044923647
aF-0.01865803361768013
aF-0.043983372578644285
aF0.013267230704615355
aF0.0027420133642971733
aF-0.04981801302942004
aF0.006932012825507559
aF-0.007351229889342732
aF-0.025679695551569598
aF-0.01153346438805706
aF0.030592907904705157
aF0.03602014619855101
aF-0.0009347341787621466
aF-0.07664048105739456
aF-0.024458304252750716
aF-0.0028983347549128746
aF-0.07181513203964837
aF-0.06693686269017715
aF-0.10368516074775658
aF0.001963740222694044
aF-0.05017892992820475
aF0.0451444149134634
aF-0.07631556842905265
aF-0.019188430582509027
aF-0.07208445129028823
aF-0.11748083636242061
aF-0.046033968550723836
aF-0.05546021741261293
aF-0.008160652824350537
aF-0.03953531593989586
aF-0.057329558154428376
aF-0.014096362307697338
aF-0.056293339356004064
aF0.061390227326444
aF0.010882828568164167
aF-0.11245288453762647
aF0.037602415328522654
aF-0.002120021470338241
aF-0.01955302437089957
aF-0.03811223063275021
aF0.02344782484731276
aF0.000502932065461351
aF-0.05338797923751018
aF0.015041622710187576
aF-0.019568849766756304
aF-0.042949941783804825
aF-0.0086717097484693
aF0.030045714109363648
aF0.046935967373276904
aF0.0008628299085944257
aF-0.07247633232298553
aF-0.038140386989902145
aF-0.0023184889712614424
aF-0.07930162719391363
aF-0.06500948019997874
aF-0.10718403377188258
aF-0.012419806935943632
aF-0.05012074064800406
aF0.029915932269381922
aF-0.06648629726484181
aF-0.006592587924890942
aF-0.06934568912418027
aF-0.12782154162683598
aF-0.03922146639658754
aF-0.05697733270853726
aF-0.007951221010414433
aF-0.04549474385407172
aF-0.061531395757256774
aF-0.0028400229997513774
aF-0.07305948898934511
aF0.047684527222535814
aF0.007680328524000378
aF-0.11410600219230849
aF0.03834551621116897
aF-0.0022220837256257146
aF-0.022111525711813778
aF-0.042609127949845754
aF0.026845102227815172
aF0.0024712322674230003
aF-0.05037426277603903
aF0.0075073586987158564
aF-0.0127615878493047
aF-0.035315208736575815
aF-0.00670331720862326
aF0.025660289231202883
aF0.03684570361773065
aF0.00017472028508564363
aF-0.07133858095663279
aF-0.037392540493085026
aF-0.011209169404412437
aF-0.07695889579337385
aF-0.05621695770339938
aF-0.11164094427077129
aF-0.0004944480771706082
aF-0.045538625407795956
aF0.03649988306449832
aF-0.0680751673916536
aF-0.011205043605390362
aF-0.07245586685555114
aF-0.12308061657553025
aF-0.05460143100701067
aF-0.05899097136217127
aF-0.012135828365276507
aF-0.04400710429499866
aF-0.06426423968763924
aF-0.0039166855664437596
aF-0.059587247195142724
aF0.057953279813390754
aF0.0021383432484726
aF-0.12077198792488227
aF0.040195117536545706
aF-0.007351629605436378
aF-0.012447212125189467
aF-0.03583143903512177
aF0.0213074952462324
aF0.009721169895988209
aF-0.060341494655290824
aF0.012363926961716504
aF-0.017851211412061516
aF-0.03016083176932078
aF-0.002395915332040044
aF0.03468793649205382
aF0.04041144345341889
aF0.0017060727642872493
aF-0.06923603967311162
aF-0.043083711234538705
aF-0.004957324240909793
aF-0.06838356303766842
aF-0.06169792696326191
aF-0.11374255117322134
aF-0.015719830539394335
aF-0.0528424219597365
aF0.028284766507065764
aF-0.07277617637678196
aF-0.013811398038390509
aF-0.08064782876264776
aF-0.11631066054548676
aF-0.05371096917455038
aF-0.05703857103310483
aF-0.015176634823019942
aF-0.04219186978600326
aF-0.05914939465088961
aF-0.017855939082030873
aF-0.0730397994674297
aF0.040052936562449855
aF0.013618112162804931
aF-0.10048376477045788
aF0.037604583237602136
aF-0.01127031374707469
aF-0.011368541372716878
aF-0.046810272331634775
aF0.021216811552497796
aF0.007510205969150958
aF-0.05900204948067984
aF0.016024767930713654
aF-0.024741738514940794
aF-0.03428183940695857
aF-0.0010080205864912454
aF0.023303173240112978
aF0.04547324568199434
aF-0.015257280688698471
aF-0.07126652306775332
aF-0.03622531200049915
aF-0.018473995382906745
aF-0.07804143616418603
aF-0.06820589410252602
aF-0.10305504530072494
aF-0.005224939456962627
aF-0.051108482086471445
aF0.039523299454288716
aF-0.06520978683722284
aF-0.01893246251600749
aF-0.06779209130091426
aF-0.13262872195665146
aF-0.04714909252813981
aF-0.06046835003117473
aF-0.009912378542587846
aF-0.03296836582650064
aF-0.05841182116699772
aF-0.00025831143032069726
aF-0.05822343312154293
aF0.04705054582278156
aF0.01631267854715438
aF-0.11018229229909317
aF0.03865170110207214
aF-0.016779841932913635
aF-0.0077224782329869835
aF-0.05124479553426174
aF0.020225511399368838
aF0.00048397630521233165
aF-0.04621056190984741
aF-0.001017161218138149
aF-0.008496147924820724
aF-0.035846662943122685
aF0.0010458744148982143
aF0.030885928268555875
aF0.037948125118683916
aF-0.01192460398975686
aF-0.06822438629763171
aF-0.042906262806735464
aF-0.011259736783706493
aF-0.07086629700712656
aF-0.05436566880316783
aF-0.11293427802996552
aF-0.0004164896647561979
aF-0.05307830971232827
aF0.04358504358832555
aF-0.08186749749311895
aF-0.0011756540257070324
aF-0.07807530135268893
aF-0.12513771896300546
aF-0.056825817357346854
aF-0.050797037869850764
aF-0.012653644038016991
aF-0.0322265430931725
aF-0.06924825649968944
aF-0.0040157009625854286
aF-0.055477024003420375
aF0.06034252883596622
aF0.0023984657785849875
aF-0.11598258202363632
aF0.03329279904940865
aF-0.019125801630087425
aF-0.015261232267665632
aF-0.03988089831809447
aF0.019615115123935687
aF0.0001157984960528575
aF-0.0524337418959114
aF0.011541749160922229
aF-0.012885493824639657
aF-0.03875666123680581
aF-0.012999906470738436
aF0.034178603697684766
aF0.037355682375504996
aF-0.014263590048292658
aF-0.06717166400966282
aF-0.04030428783500055
aF-0.01897193569387263
aF-0.07813921171752243
aF-0.060452061262421926
aF-0.09781179030675521
aF-0.004848288939125685
aF-0.05331888704581375
aF0.05149649375566096
aF-0.06444238418015437
aF-0.011659788393659262
aF-0.0804878284760114
aF-0.12688356335721793
aF-0.04456647939367094
aF-0.052045239889645545
aF-0.012605275517814315
aF-0.03774284084897549
aF-0.06602624335256642
aF-0.007496250138459271
aF-0.0625525256553934
aF0.05854849477784446
aF0.01126104345904529
aF-0.10847706646699604
aF0.04570979170447077
aF0.00250627641704105
aF-0.0034195065699197495
aF-0.04527097859942157
aF0.030796399528185803
aF-0.0006405378212128218
aF-0.046728073838442255
aF0.00831845629616495
aF-0.008796888275457312
aF-0.029232010065817063
aF0.0024394151430779986
aF0.033304086849982484
aF0.04043156464120542
aF-0.011414695215444786
aF-0.07469234765835071
aF-0.03079873036820535
aF-0.016669966062355483
aF-0.07033050140084886
aF-0.04926834239162807
aF-0.10234607008969376
aF0.002870265442206613
aF-0.04521769100150258
aF0.03954259974533431
aF-0.07346750080399074
aF-0.006782748811903068
aF-0.08052126503380541
aF-0.12754830230410452
aF-0.039178579419624666
aF-0.06385102383714919
aF-0.015402187979457221
aF-0.04182312806841581
aF-0.07271694435698443
aF-0.004167896844036076
aF-0.06347981204990927
aF0.05390930795660985
aF0.0002834608404797146
aF-0.11890683078304998
aF0.04703842681561425
aF-0.017937535107197207
aF-0.009788664289422273
aF-0.036408328790473156
aF0.030238096322559343
aF-0.004241210855872015
aF-0.04397176900096494
aF0.004761209965627719
aF-0.008382751392100408
aF-0.03244228570751127
aF-0.006724009209930563
aF0.018695669745278413
aF0.03681648692783721
aF0.0016339626302147386
aF-0.06676160462966142
aF-0.03252700540603495
aF-0.010646247363377385
aF-0.07320373326133721
aF-0.052576513639790455
aF-0.09806407813966618
aF-0.014672951508581899
aF-0.056823840789941744
aF0.036959808430624574
aF-0.07362983763020417
aF-0.012748395688646691
aF-0.07649017410127903
aF-0.12795704165673472
aF-0.048613208721945085
aF-0.049076846986152944
aF-0.015657923483068437
aF-0.045287873154194434
aF-0.06510494372450756
aF-0.0054755871126235724
aF-0.06073718870473955
aF0.04833981012221366
aF0.011286932300255285
aF-0.10660574554167779
aF0.04401850646349476
aF9.767381012133064e-05
aF-0.01008004491120194
aF-0.04130381723758564
aF0.015665942317722687
aF-0.0008498310685672154
aF-0.06084976263652445
aF0.003810542261367333
aF-0.013889740686071142
aF-0.0442411011890246
aF-0.006566569337813029
aF0.03515795077648249
aF0.02936908217592311
aF-0.00809312209087519
aF-0.06494734674212346
aF-0.03190183769371495
aF-0.010408060031048078
aF-0.36486469592308196
aF-0.0006774058331223149
aF-0.37561066333797105
aF-0.3699039831290578
aF-0.3794663117969871
aF-0.366573599054226
aF-0.37872118213750106
aF-0.3850463691665546
aF-0.3839797090464366
aF-0.3746666986960839
aF-0.3755377966659794
aF-0.30097176585369234
aF-0.0014200593785407504
aF-0.2921092399542316
aF-0.28821468535394923
aF-0.29064544739332304
aF-0.2790019584505251
aF-0.28483860739121064
aF-0.28106258270840057
aF-0.3038583930352776
aF-0.2940435152039643
aF-0.2853413692353961
a.