(lp0
F-0.034867811439580954
aF-0.05357321013526169
aF-0.04145799327659885
aF-0.02089257740496754
aF-0.034423008219795666
aF-0.02185825832392859
aF-0.009666369518308097
aF-0.05397968370780653
aF-0.0401865903766833
aF-0.0540307742994939
aF-0.012057099355264717
aF-0.03290209249278723
aF-0.05758222147032702
aF-0.07070328587678704
aF-0.04437036648527378
aF-0.05074079960484955
aF-0.03629335165034767
aF-0.01019641619675561
aF-0.021611876875218625
aF-0.037256085190775154
aF-0.0016096691042389564
aF-0.01302269325256177
aF-0.05978380149971818
aF-0.00319390451218292
aF-0.0017386697885665302
aF-0.04557868620326242
aF-0.010623162014607234
aF-0.03178070601972703
aF-0.03900926363785643
aF-0.0013165696838308002
aF-0.022181800143638523
aF-0.019854231629181932
aF-0.013769735439787463
aF-0.00841450970313662
aF-0.046470836994772315
aF0.017039969643909417
aF0.0072385983651012415
aF-0.04193314570802241
aF-0.051833755725282975
aF-0.05614220432788937
aF-0.020764918330509672
aF-0.02324240643046244
aF-0.025207541466362105
aF0.003420040471170401
aF-0.045451201626168246
aF-0.05496892045389284
aF-0.04503588393289212
aF-0.017337789006578726
aF-0.023239149082244864
aF-0.055679371088091664
aF-0.07084926557452069
aF-0.06426157021582728
aF-0.04651022987952742
aF-0.04378152172383275
aF-0.02433959395273827
aF-0.02288006932956609
aF-0.031219413869819513
aF0.005830180821308897
aF-0.019712468144677763
aF-0.06852195678662812
aF0.005374041748839295
aF0.0021779560618173485
aF-0.041188728255473143
aF-0.018348311707259816
aF-0.02095277588306093
aF-0.03372680744923494
aF-0.011465490911055535
aF-0.01156333099153216
aF-0.015902198677192902
aF-0.018044217939552475
aF-0.019724427117456204
aF-0.04977232219052655
aF0.001184587457663198
aF-0.005024153733136656
aF-0.047820697106160985
aF-0.0659019517639156
aF-0.052211003633294326
aF-0.018763019603989642
aF-0.02625764942682684
aF-0.019457494967210758
aF-0.007725853952521899
aF-0.048323105837346496
aF-0.05294127928353254
aF-0.050597877693387944
aF-0.010422280611893152
aF-0.03876172441732402
aF-0.053367247863472564
aF-0.07980895658475493
aF-0.05906190413040431
aF-0.05374809095625091
aF-0.04049532728960745
aF-0.02006745686865665
aF-0.01693725961669986
aF-0.0379984927400544
aF0.008283661362506925
aF-0.01991005727074503
aF-0.05325242727095571
aF0.007111553460398134
aF0.008596927194422906
aF-0.026656784381331095
aF-0.02063999914048566
aF-0.018854264303245
aF-0.03415406919537907
aF-0.008194879680630842
aF-0.012753625724978512
aF-0.01749018828959384
aF-0.022531935281878572
aF-0.014818449889172617
aF-0.05130562264698779
aF0.016499278220625045
aF0.0102483412557249
aF-0.0511008244945135
aF-0.06032443406578186
aF-0.05154354044447212
aF-0.01735592104474609
aF-0.03396601556631262
aF-0.010447171894721866
aF0.00020217949962544283
aF-0.05978174764254688
aF-0.04923928986666052
aF-0.039614595184631965
aF-0.020527080832735706
aF-0.023853675308283227
aF-0.05954184867864628
aF-0.07079828333875897
aF-0.056374016318868105
aF-0.04888587387855329
aF-0.04214526816849421
aF-0.011093174754530661
aF-0.020011683179631114
aF-0.03294600852549791
aF0.0014423045054907638
aF-0.013484219772830385
aF-0.06795238848471528
aF-0.002168760514118247
aF0.008683617472694772
aF-0.02954413870585881
aF-0.016803367483615824
aF-0.028630346583232113
aF-0.036809847808058536
aF-0.003866969288957989
aF-0.01212539884344398
aF-0.019390627566200132
aF-0.018159547975975316
aF-0.002389104577972028
aF-0.05348473346162959
aF0.010658988456049167
aF-0.0029384521171428577
aF-0.04442227934004472
aF-0.05749587160423971
aF-0.05962355305442655
aF-0.03182782507570849
aF-0.02656844736126953
aF-0.012617415379454466
aF0.013339571913214188
aF-0.04196386161734371
aF-0.042741430943853846
aF-0.05365627064974936
aF-0.002893860932993355
aF-0.03299325369049406
aF-0.051340985529852605
aF-0.08371815612561866
aF-0.05454432907373026
aF-0.05974862602625016
aF-0.04891029429290454
aF-0.0051001208929359635
aF-0.013606878344439723
aF-0.02606993836239319
aF0.005541351878270053
aF0.0015225472564395846
aF-0.05625990274057497
aF0.0007998232192495941
aF0.010272524578106195
aF-0.028849033347080107
aF-0.013996106072465325
aF-0.015452678935160714
aF-0.03704623621694703
aF0.0074046303460610155
aF-0.00730183525128808
aF-0.02521904431618709
aF-0.008164086398853472
aF-0.006220253220386085
aF-0.05175412054551369
aF0.011791490235789107
aF0.012439344015774007
aF-0.04660806330905521
aF-0.05174396428814833
aF-0.05457107944139315
aF-0.026984785944622988
aF-0.0405908390497682
aF-0.027072331464485778
aF0.0081955156697467
aF-0.05898126800218147
aF-0.05502570338582452
aF-0.040017910889835924
aF-0.015731113713364216
aF-0.036305785758672465
aF-0.05961236056794882
aF-0.07402814955412175
aF-0.046425832321172596
aF-0.04720626378904153
aF-0.05064484846897588
aF-0.0188557369810384
aF-0.024899400102632356
aF-0.03480513700995844
aF-0.003581096797946731
aF-0.021202503280158547
aF-0.059871738826248584
aF-0.010392876093728748
aF-0.0054987631753328405
aF-0.04031408549850994
aF-0.009756084205956153
aF-0.03489274322604227
aF-0.0256052379669281
aF-0.013343047335445432
aF-0.016564745435647003
aF-0.024016461948638185
aF-0.00957050900734133
aF-0.006636364132100446
aF-0.05519213053689058
aF0.001942772926891657
aF0.00535893495764422
aF-0.04507049145367165
aF-0.050713940672149536
aF-0.0407571270324241
aF-0.022156485154889653
aF-0.03648752489329751
aF-0.021910257455786182
aF-0.00800225928264
aF-0.06031912930293263
aF-0.05437119816406392
aF-0.04812439858603534
aF-0.007778911112073033
aF-0.034469775064805315
aF-0.0558820794355355
aF-0.0709201044413982
aF-0.06213499608827112
aF-0.04886792931207506
aF-0.03643259538707401
aF-0.014749704269436243
aF-0.018204349258905832
aF-0.027100304595930498
aF-0.006317443023924039
aF-0.012162111042503575
aF-0.06291225796067618
aF-6.944372271058786e-05
aF0.0038869106391104876
aF-0.035949783460007684
aF-0.017140782009621616
aF-0.02139742700839261
aF-0.03290084132138858
aF0.006396377563543513
aF-0.010877786394727005
aF-0.012592678154417267
aF-0.01923491890088464
aF-0.01996278235513351
aF-0.048817218891383435
aF0.003039366048262208
aF-0.005463860373650235
aF-0.0448768966101988
aF-0.05418994269796736
aF-0.03918765796991754
aF-0.0328319861921603
aF-0.038688997227009886
aF-0.03260787530981155
aF-0.007805254250457307
aF-0.04411773517464967
aF-0.038593260442472216
aF-0.037994384258712835
aF-0.011870861876356317
aF-0.04067039533506508
aF-0.056727540783221876
aF-0.07521513079203648
aF-0.06217525826812907
aF-0.04798645378917866
aF-0.036445527128759383
aF-0.010828840718423063
aF-0.017565004566679174
aF-0.03692808952690074
aF-0.003999634183708044
aF-0.016227188194071623
aF-0.0603706829100402
aF0.009773459536839803
aF0.009960794737719601
aF-0.0391604346232296
aF-0.004089858921498366
aF-0.024044318496108663
aF-0.032868716959330274
aF-0.004073747857112234
aF-0.014865865587034963
aF-0.01742512831311358
aF-0.015809352596804164
aF-0.003397181488110196
aF-0.047537640670787924
aF-0.0004131489130412816
aF-0.008676198831807142
aF-0.04755788186281395
aF-0.06820977926606728
aF-0.050355016151622675
aF-0.019464780758388634
aF-0.02679863851118536
aF-0.02633612997344999
aF-0.0005276494341109125
aF-0.05397362695330731
aF-0.04982529221449817
aF-0.04008316386219528
aF-0.02339282347872988
aF-0.0388182989992074
aF-0.05233359446028394
aF-0.077273237678516
aF-0.05789965403520627
aF-0.05196526463090882
aF-0.03554830903125058
aF-0.010009352309298395
aF-0.010005041559750134
aF-0.02379489258145556
aF-0.011526302870321532
aF-0.019228066160740985
aF-0.06190873607940937
aF-0.013308399003151485
aF-0.0030191536861330095
aF-0.04663453754965313
aF-0.017955164711233425
aF-0.03418268764766741
aF-0.02538313022249142
aF-0.005258625501430384
aF-0.022268513398168925
aF-0.01417206951842842
aF-0.020337749151360853
aF-0.018336670465507587
aF-0.05826934798609165
aF-0.003080078355004698
aF-0.002282576533955285
aF-0.04197928254536319
aF-0.0575664584811373
aF-0.05494440670517848
aF-0.02529468968255327
aF-0.03567058761242298
aF-0.025181139907460227
aF0.0017500791495031357
aF-0.06255896343768336
aF-0.03763879817679786
aF-0.04425664139105835
aF-0.018147599024476383
aF-0.0397824760349395
aF-0.06176290050073889
aF-0.0841477460773687
aF-0.04571003821508994
aF-0.04926589121583472
aF-0.03968753626907208
aF-0.020783268361871266
aF-0.023533910997927288
aF-0.03866926788894931
aF-0.0060011746618546385
aF-0.006448057573379309
aF-0.05530897257658456
aF-0.002640158890852517
aF-0.00275507210640712
aF-0.03431383947257214
aF-0.009778495445784454
aF-0.021216106842008257
aF-0.026452153229692018
aF0.005509068204588537
aF-0.020550094796301082
aF-0.008761284907300309
aF-0.008694024397423103
aF-0.006728221246671831
aF-0.04800976593111763
aF0.008726479039952835
aF-0.003247865231294094
aF-0.0530181668179889
aF-0.06204579098746581
aF-0.050954250071641276
aF-0.020417693803907625
aF-0.02752523485384555
aF-0.013700009298808647
aF0.012051051579819146
aF-0.05018164751169228
aF-0.053666807904804326
aF-0.04044652572912973
aF-0.011724592031153327
aF-0.03728133779497982
aF-0.05655494149063963
aF-0.06911385826960953
aF-0.03976533536746571
aF-0.06532036585861112
aF-0.04483293074289257
aF-0.017101909775261957
aF-0.015074657608289884
aF-0.038357213685078204
aF0.0015640538561067403
aF-0.00706952172814612
aF-0.054199931095876674
aF-0.0017916359087837373
aF-0.008713994233036856
aF-0.02581818354894672
aF-0.019228386929326973
aF-0.03235684000402935
aF-0.04605534712148051
aF0.009025219225304002
aF-0.01805169967962601
aF-0.02093356408827265
aF-0.005160521963616629
aF-0.0048706535575796005
aF-0.062363729477874705
aF0.0075926503341867445
aF0.0028147544447494083
aF-0.037100352367036044
aF-0.05976345236575832
aF-0.04412189967887612
aF-0.03247756375208356
aF-0.022744827597393578
aF-0.03368571403579727
aF-0.01223792554949506
aF-0.06084063288140602
aF-0.05503581160919437
aF-0.04893886113028171
aF-0.01626766839756197
aF-0.026776058777899715
aF-0.05783498469702667
aF-0.07866098473266306
aF-0.04960774837863702
aF-0.06041063608107013
aF-0.04694370080262659
aF-0.02076848609415208
aF-0.020197375160375623
aF-0.03967053801029815
aF-0.009116053904094184
aF-0.011375898749520826
aF-0.06311747887130659
aF-0.010786739357485477
aF-0.002525977891130214
aF-0.03360982044009922
aF-0.025561603232334203
aF-0.027094479939828667
aF-0.024503060684105047
aF-0.007715448640550528
aF-0.01443727199735167
aF-0.007847104588041347
aF-0.006133614344873837
aF-0.02116157113650035
aF-0.04368147973335206
aF0.0022393639222235973
aF0.004904399519848076
aF-0.05162025716673325
aF-0.06058124271372094
aF-0.056170665193199215
aF-0.02997579709442509
aF-0.025711698678791608
aF-0.028118125078497997
aF0.008993697039839783
aF-0.05693532076960619
aF-0.04248696935003034
aF-0.04748389708449622
aF-0.012208295243312699
aF-0.021889740813951498
aF-0.0462777866907764
aF-0.083999501212709
aF-0.041924846057824844
aF-0.04717675308987062
aF-0.04834256764746996
aF-0.0069924932037316615
aF-0.005770502406947789
aF-0.038004359960269844
aF0.00640980210546286
aF-0.013977233968071693
aF-0.05603199876580021
aF0.006830101557830937
aF0.009604108312363718
aF-0.03270572977172811
aF-0.023194519225416915
aF-0.032875721160381274
aF-0.04410179007977684
aF0.006031709425201418
aF-0.019133405776459184
aF-0.008066062054626946
aF-0.004372025749877012
aF-0.005289979223010155
aF-0.0463436413506193
aF0.013436757844923592
aF0.006398292875964403
aF-0.04940736766469953
aF-0.05781227925086489
aF-0.05761650426335952
aF-0.02984930271518509
aF-0.03258573489209232
aF-0.017483722439693303
aF0.011983175808386098
aF-0.0428329326490666
aF-0.043886014790814845
aF-0.03604792120818363
aF-0.008639298139200119
aF-0.039752292896455564
aF-0.05147466016538222
aF-0.07383464076517991
aF-0.06085645175701436
aF-0.05414166553150464
aF-0.04557214382733502
aF-0.01788826682690127
aF-0.02142105640311259
aF-0.026700841124889612
aF0.00621064502848798
aF-0.0054358422892776025
aF-0.06305841588655223
aF0.0003337597313027022
aF0.009378294968835495
aF-0.03344782903624796
aF-0.022260875784578076
aF-0.023821344156349178
aF-0.02733465263390588
aF0.0009852472112046662
aF-0.0031125599842004286
aF-0.01235135482309279
aF-0.007178747482015645
aF-0.004796527094556189
aF-0.04773766037171186
aF0.018327683196038957
aF-0.004047620753270352
aF-0.03432105696947015
aF-0.06978870300329515
aF-0.05546929051510469
aF-0.02668867947466592
aF-0.02793512303854568
aF-0.03736941117743698
aF-0.0019641068586710277
aF-0.055623389819093795
aF-0.05422654237359717
aF-0.03705663673042595
aF-0.01187961591005473
aF-0.025789359417706725
aF-0.066210332386023
aF-0.07178513882617184
aF-0.0652151567398656
aF-0.05605714402665785
aF-0.03444221613777255
aF-0.015144446904998433
aF-0.018289094137550994
aF-0.023814602982284373
aF0.003907762079967879
aF-0.026370936593383385
aF-0.061641709054647706
aF-0.004601483944468509
aF0.0003205039015734955
aF-0.052092409130946954
aF-0.0167385534173274
aF-0.03576840536068118
aF-0.022070398930693656
aF-0.007114623689203832
aF-0.01999384674990483
aF0.002776224533755994
aF-0.008210639359555757
aF-0.014504346432513138
aF-0.04566821485857705
aF0.002218950493214767
aF-0.008443676149755192
aF-0.03877261311944134
aF-0.06380595728248888
aF-0.06192687454718203
aF-0.03308124094592972
aF-0.03192405955444596
aF-0.015217491733498142
aF0.006039270412987165
aF-0.04735057697376188
aF-0.040799082280343506
aF-0.049908603706462315
aF-0.002927886613961735
aF-0.025231472003840405
aF-0.04455508633707468
aF-0.08630805504972766
aF-0.04268962500460727
aF-0.05967424118257919
aF-0.034297700888443625
aF-0.016185791460629574
aF-0.015476088011033243
aF-0.03299586275714635
aF-0.0008119894716450912
aF-0.008621520055343964
aF-0.06596988917477882
aF0.009672520061855547
aF-0.00704186770374465
aF-0.02024146391389385
aF-0.008322022234851545
aF-0.03254461929017436
aF-0.04018295232346226
aF0.0037852312627371706
aF-0.014241289097108225
aF-0.02268836250780088
aF-0.002871456361039063
aF0.00011804282804252794
aF-0.049055893137288864
aF0.00821976333006763
aF-0.0014275932331880058
aF-0.045345250260643934
aF-0.0526342960234173
aF-0.048079736581165274
aF-0.035791833663339254
aF-0.03460253002557836
aF-0.021777350275008482
aF0.007394481172762644
aF-0.05599548239411002
aF-0.05207794086088713
aF-0.04695534279957936
aF-0.005498451905881163
aF-0.022981771224684065
aF-0.05753385992789113
aF-0.0685165737775291
aF-0.051646121759746255
aF-0.05970546846035367
aF-0.03161438607612193
aF-0.020923626297061168
aF-0.022472970934437786
aF-0.0306489980752339
aF-0.0008512352914129585
aF-0.015979118371594138
aF-0.0654013802180308
aF0.010246411664257934
aF0.009417697696477817
aF-0.04008189413195624
aF-0.020700877698504917
aF-0.030568027694284676
aF-0.040027731329299404
aF-0.002131586991990881
aF-0.007020641998000213
aF-0.018414833157137087
aF-0.012229455572971316
aF-0.018467382925828776
aF-0.060447400030354065
aF0.008138970716580977
aF0.011090000239401009
aF-0.04216968345016779
aF-0.06759941177493761
aF-0.05163200854999882
aF-0.022607977299792525
aF-0.035232307253173695
aF-0.014267355582995316
aF-0.00750929177282831
aF-0.0631025730248518
aF-0.05716309962182284
aF-0.04541294290987273
aF-0.01685228418114935
aF-0.032848778466653746
aF-0.05417666956292641
aF-0.06690948196170816
aF-0.05343264706059561
aF-0.05499503344971021
aF-0.04650859507147703
aF-0.005305451486501665
aF-0.01696645744381562
aF-0.02718246046117721
aF-0.007735761294156169
aF-0.01457185968392224
aF-0.05576547572872609
aF0.003177063939738307
aF0.00045250724063836914
aF-0.02924204735507697
aF-0.014288648976641123
aF-0.02879829576080721
aF-0.04048229740554008
aF-0.0012877775630871537
aF-0.022793646004030093
aF-0.01653903167431897
aF-0.01964594400556095
aF-0.019478963410159023
aF-0.06132937935010649
aF0.002077388125327538
aF-6.430866551632684e-05
aF-0.0474037966288247
aF-0.05283298528052245
aF-0.048944978490477575
aF-0.031176145180382673
aF-0.04006210593070947
aF-0.029085304072631876
aF0.002266853691151851
aF-0.05632280077917688
aF-0.05867292010582278
aF-0.03841949165492358
aF-0.013084909923591164
aF-0.03200907462391487
aF-0.06521495382753734
aF-0.06834685437024325
aF-0.052692187507212815
aF-0.053033262774260015
aF-0.04812095891089537
aF-0.005082836879690426
aF-0.019245068187776368
aF-0.026649302388390955
aF0.007814519007057772
aF-0.009523937118220352
aF-0.06498238896324157
aF0.0008472969820950614
aF-0.012674114826524169
aF-0.02894964495391456
aF-0.022079173761220764
aF-0.03898355890373375
aF-0.024363122917406936
aF-0.00014185379008114726
aF-0.02215230020343972
aF-0.013769641500038975
aF-0.01426189068264481
aF-0.01890634007927077
aF-0.046564520499819566
aF0.009465193685659427
aF-0.004582033909461686
aF-0.047049160686918355
aF-0.06112134912065528
aF-0.04122976167465995
aF-0.026675087818463
aF-0.03470995341596911
aF-0.031034430414530127
aF-0.0130133807148368
aF-0.05406499212383233
aF-0.04507251139690177
aF-0.04036384249921376
aF-0.010101831948066142
aF-0.024767727286382313
aF-0.053242518725750095
aF-0.08085555577021353
aF-0.055046173594139124
aF-0.04659587071894745
aF-0.03857400771143333
aF-0.00745108394297258
aF-0.01578379772777776
aF-0.03740949630327284
aF0.003548002362845786
aF-0.01172610678149529
aF-0.0668504163773194
aF-0.01119086351512966
aF-0.01306747350079504
aF-0.050561538464607286
aF-0.009528186990397033
aF-0.03582939231836525
aF-0.02408462019067419
aF-0.011953501775849489
aF-0.009058713122883762
aF-0.002022315276581611
aF-0.01872991699348968
aF-0.011044665288583602
aF-0.04739434078287366
aF0.005234677575117688
aF-0.004548035941672196
aF-0.03453926252330806
aF-0.05779578699133217
aF-0.05209418243906842
aF-0.03142704855473123
aF-0.031329267160664094
aF-0.034420605289751154
aF-0.006967418457068535
aF-0.045621546049623596
aF-0.04577163850145105
aF-0.04575966377037048
aF-0.015589531958596517
aF-0.024248538236309177
aF-0.05467474438926888
aF-0.07242629585954258
aF-0.047466949813773876
aF-0.049620480866434696
aF-0.043101606960393384
aF-0.012666268205036002
aF-0.02205902159351922
aF-0.04067246934441587
aF0.0030625732217505084
aF-0.017731417495474872
aF-0.057446561693419475
aF0.010594298626320029
aF-0.003409469980504909
aF-0.04739910348548515
aF-0.02300244800216853
aF-0.028396745696075795
aF-0.024416481526644863
aF-0.0009661855205930347
aF-0.015916008539514505
aF-0.015528894406560374
aF-0.003979381550435459
aF-0.021764578440585824
aF-0.048445668492225175
aF0.008036973886955585
aF0.0043643452203321175
aF-0.039565793682602726
aF-0.06284023366457928
aF-0.05633019278436097
aF-0.033783449626400196
aF-0.025997920527862293
aF-0.01739103139897757
aF0.011786251508093029
aF-0.04202271483373959
aF-0.037511699435180006
aF-0.0547536271021125
aF-0.007578446832882718
aF-0.02199287669514913
aF-0.05939279729194713
aF-0.07638018005286372
aF-0.05134530245243998
aF-0.04643008034545756
aF-0.037286808122668505
aF-0.015571202251000444
aF-0.021835249489024808
aF-0.033348888549256994
aF-0.0038439462507440627
aF-0.010374275854509757
aF-0.05749937213696123
aF0.0123829544621098
aF0.010066662058555817
aF-0.030091530221726757
aF-0.01924656302917276
aF-0.02045020465374682
aF-0.04333720015254422
aF-0.001517115241348092
aF-0.01037923428875499
aF-0.005514128093741382
aF-0.01139466619507178
aF-0.01914841117048066
aF-0.05600097560615806
aF0.00653142057653544
aF0.008880625313550921
aF-0.04430196736750023
aF-0.06011353311942346
aF-0.058366376828009596
aF-0.029212267967123697
aF-0.034176219899773035
aF-0.017750957803805683
aF-0.003768847045489294
aF-0.049544481716506335
aF-0.043499760768035425
aF-0.05052343161060778
aF-0.019503312946374585
aF-0.02292901921301675
aF-0.06322426489911027
aF-0.08086361115760059
aF-0.048240485918767104
aF-0.046396966437045696
aF-0.0359041281152698
aF-0.015970500158325296
aF-0.024965000975515163
aF-0.024995195122327535
aF0.004173970805014542
aF-0.02209483826618743
aF-0.056381942679000915
aF-0.002420624680397452
aF-0.004072593899512724
aF-0.037071488925615674
aF-0.007526642312409337
aF-0.027266564811245
aF-0.03885437178082264
aF0.0027208704951441256
aF-0.004007449746505436
aF-0.013594259573467568
aF-0.0038603089708654074
aF-0.020283098979372822
aF-0.05291031681938259
aF0.013283539270240643
aF0.010845614924803501
aF-0.033709781314115374
aF-0.06029471532237716
aF-0.041553258668934584
aF-0.026350868518854896
aF-0.0401557046565122
aF-0.030493764124440312
aF0.005059344718705617
aF-0.04565920265513333
aF-0.05435639235599976
aF-0.04739423494526318
aF-0.015035747311390133
aF-0.0368543199881503
aF-0.059590368749057425
aF-0.07449891701605792
aF-0.0455495970379615
aF-0.05247643456941935
aF-0.05135373813569777
aF-0.011679646784751875
aF-0.005157850931249581
aF-0.029665216466583728
aF-0.005446951365197119
aF-0.012088853363300891
aF-0.054078474821252165
aF0.010997150242437265
aF-0.006728204841201515
aF-0.039362342924966216
aF-0.01560106334340825
aF-0.018086612656845802
aF-0.03327890137593359
aF0.010248516171485074
aF-0.008545333640659115
aF-0.019323191070434127
aF-0.02047709549846639
aF-0.02109768081921861
aF-0.04873475600580485
aF0.017042202822979496
aF0.005424913290419006
aF-0.037333289820260164
aF-0.061123731594666435
aF-0.05050670528906507
aF-0.017839504863199792
aF-0.03148718571580608
aF-0.02066759471371949
aF-0.0055962426700862265
aF-0.05278145811222338
aF-0.05008669306575851
aF-0.051908852231295016
aF-0.00992505676023198
aF-0.03921494901821388
aF-0.06088926454592366
aF-0.06968777165371579
aF-0.04694692024332024
aF-0.04484781859845979
aF-0.030165939597242567
aF-0.022573752621125952
aF-0.01990469949318545
aF-0.03605690362805403
aF-0.011369111940536114
aF-0.02569000572643075
aF-0.058797578794983346
aF-0.0033194013630601297
aF0.00659283850639839
aF-0.04028236850037936
aF-0.017029182397153467
aF-0.036203694666532685
aF-0.036712187471234725
aF0.004330962785509599
aF-0.01664943324235747
aF-0.012592983971154477
aF-0.010000644792634732
aF-0.008729043330050864
aF-0.04505721058722267
aF0.015673739142440045
aF-0.00847785025123262
aF-0.18507874564445387
aF-0.00878509243929072
aF-0.1846646468761701
aF-0.17702683192240054
aF-0.17597243319875822
aF-0.17256739624356196
aF-0.16901619210185226
aF-0.1851960360874908
aF-0.18669198379958057
aF-0.17782143294844782
aF-0.17935217516608892
aF-0.1663137119207207
aF-0.17511883245342616
aF-0.17618671864581814
aF-0.18070433460279417
aF-0.19472750917573323
aF-0.1696449472681458
aF-0.1780684593993052
aF-0.16801332173373731
aF-0.1728266030996068
aF-0.18579708389948854
aF-0.18785146069906222
aF-0.18347416014614043
aF-0.18237679413911523
aF-0.1824009008614492
aF-0.18773774262841014
aF-0.30114364637708896
aF0.0049617974086103075
aF-0.2932729578321594
aF-0.3009344737194401
aF-0.3047113962460884
aF-0.32438384411619076
aF-0.28731195229250456
aF-0.29960651167951635
aF-0.2993093803743199
aF-0.2765740900932809
aF-0.29810124487333617
aF-0.3097080496812293
aF-0.28266499029979236
aF-0.3091642123214812
aF-0.3123057565634556
aF-0.27433491507658303
aF-0.3157523202001074
aF-0.30222028366170695
aF-0.29385555281819453
aF-0.2888913658049887
aF-0.2812870439258609
aF-0.29596565569840216
aF-0.3130345287174458
aF-0.30186788844565765
aF-0.3072217521305625
aF-0.2929967536426922
a.