(lp0
(I0
(lp1
F1.0
aF1.0
aF1.0
aF1.0
aF1.0
aF0.0
aF1.0
aF1.0
aF1.0
aF0.0
aF1.0
aF1.0
aF1.0
aF1.0
aF0.0
aF1.0
aF0.0
aF0.0
aF1.0
aF0.0
aF1.0
aF1.0
aF0.0
aF0.0
aF1.0
aF1.0
aF0.0
aF1.0
aF1.0
aF0.0
aF0.0
aF1.0
aF1.0
aF1.0
aF0.0
aF1.0
atp2
a(I0
(lp3
F1.0
aF1.0
aF1.0
aF1.0
aF0.0
aF0.0
aF1.0
aF1.0
aF1.0
aF1.0
aF1.0
aF0.0
aF0.0
aF1.0
aF1.0
aF0.0
aF0.0
aF0.0
aF1.0
aF0.0
aF1.0
aF1.0
aF0.0
aF0.0
aF0.0
aF0.0
aF0.0
aF1.0
aF1.0
aF0.0
aF1.0
aF1.0
aF1.0
aF1.0
aF0.0
aF0.0
atp4
a(I0
(lp5
F1.0
aF1.0
aF0.0
aF0.0
aF0.0
aF1.0
aF0.0
aF1.0
aF1.0
aF0.0
aF1.0
aF1.0
aF1.0
aF1.0
aF1.0
aF0.0
aF0.0
aF1.0
aF1.0
aF1.0
aF0.0
aF1.0
aF0.0
aF1.0
aF1.0
aF1.0
aF0.0
aF1.0
aF0.0
aF1.0
aF1.0
aF1.0
aF0.0
aF1.0
aF0.0
aF0.0
atp6
a(I0
(lp7
F0.0
aF1.0
aF0.0
aF1.0
aF1.0
aF1.0
aF1.0
aF1.0
aF0.0
aF1.0
aF1.0
aF0.0
aF0.0
aF1.0
aF1.0
aF1.0
aF0.0
aF0.0
aF1.0
aF0.0
aF1.0
aF1.0
aF0.0
aF0.0
aF0.0
aF1.0
aF1.0
aF0.0
aF0.0
aF0.0
aF1.0
aF1.0
aF0.0
aF1.0
aF0.0
aF0.0
atp8
a(I0
(lp9
F1.0
aF1.0
aF0.0
aF1.0
aF1.0
aF0.0
aF1.0
aF1.0
aF0.0
aF0.0
aF0.0
aF1.0
aF1.0
aF0.0
aF0.0
aF0.0
aF1.0
aF1.0
aF1.0
aF0.0
aF1.0
aF1.0
aF0.0
aF0.0
aF0.0
aF0.0
aF0.0
aF0.0
aF0.0
aF0.0
aF0.0
aF1.0
aF0.0
aF1.0
aF0.0
aF0.0
atp10
a(I0
(lp11
F1.0
aF0.0
aF1.0
aF0.0
aF0.0
aF0.0
aF1.0
aF1.0
aF1.0
aF1.0
aF0.0
aF1.0
aF0.0
aF1.0
aF1.0
aF0.0
aF1.0
aF0.0
aF0.0
aF1.0
aF0.0
aF1.0
aF0.0
aF1.0
aF1.0
aF0.0
aF1.0
aF1.0
aF0.0
aF1.0
aF1.0
aF1.0
aF0.0
aF0.0
aF0.0
aF0.0
atp12
a(I0
(lp13
F0.0
aF1.0
aF0.0
aF1.0
aF0.0
aF0.0
aF0.0
aF0.0
aF0.0
aF1.0
aF1.0
aF1.0
aF1.0
aF0.0
aF1.0
aF0.0
aF0.0
aF0.0
aF1.0
aF0.0
aF0.0
aF1.0
aF0.0
aF0.0
aF1.0
aF1.0
aF1.0
aF1.0
aF0.0
aF1.0
aF0.0
aF0.0
aF0.0
aF1.0
aF0.0
aF0.0
atp14
a(I0
(lp15
F1.0
aF1.0
aF0.0
aF0.0
aF0.0
aF0.0
aF1.0
aF1.0
aF1.0
aF1.0
aF1.0
aF1.0
aF1.0
aF1.0
aF1.0
aF0.0
aF1.0
aF0.0
aF1.0
aF0.0
aF1.0
aF0.0
aF1.0
aF1.0
aF0.0
aF1.0
aF1.0
aF0.0
aF1.0
aF1.0
aF0.0
aF0.0
aF0.0
aF1.0
aF1.0
aF1.0
atp16
a(I0
(lp17
F1.0
aF1.0
aF0.0
aF1.0
aF1.0
aF0.0
aF1.0
aF0.0
aF1.0
aF1.0
aF1.0
aF1.0
aF1.0
aF1.0
aF1.0
aF1.0
aF0.0
aF1.0
aF1.0
aF0.0
aF0.0
aF1.0
aF0.0
aF0.0
aF1.0
aF1.0
aF1.0
aF1.0
aF0.0
aF1.0
aF1.0
aF0.0
aF0.0
aF1.0
aF0.0
aF0.0
atp18
a(I0
(lp19
F1.0
aF1.0
aF0.0
aF0.0
aF0.0
aF1.0
aF1.0
aF1.0
aF1.0
aF1.0
aF1.0
aF1.0
aF1.0
aF0.0
aF0.0
aF0.0
aF0.0
aF1.0
aF1.0
aF1.0
aF1.0
aF0.0
aF1.0
aF1.0
aF1.0
aF1.0
aF1.0
aF0.0
aF1.0
aF1.0
aF0.0
aF0.0
aF0.0
aF0.0
aF1.0
aF0.0
atp20
a(I0
(lp21
F0.0
aF1.0
aF0.0
aF1.0
aF0.0
aF0.0
aF1.0
aF1.0
aF1.0
aF1.0
aF1.0
aF1.0
aF1.0
aF1.0
aF1.0
aF1.0
aF0.0
aF0.0
aF1.0
aF0.0
aF0.0
aF1.0
aF0.0
aF1.0
aF0.0
aF0.0
aF0.0
aF1.0
aF1.0
aF1.0
aF1.0
aF1.0
aF1.0
aF0.0
aF0.0
aF0.0
atp22
a(I0
(lp23
F1.0
aF1.0
aF1.0
aF1.0
aF0.0
aF0.0
aF1.0
aF1.0
aF0.0
aF1.0
aF1.0
aF1.0
aF1.0
aF0.0
aF1.0
aF0.0
aF0.0
aF1.0
aF1.0
aF0.0
aF0.0
aF1.0
aF0.0
aF1.0
aF1.0
aF0.0
aF0.0
aF1.0
aF1.0
aF1.0
aF0.0
aF0.0
aF0.0
aF1.0
aF0.0
aF0.0
atp24
a(I1
(lp25
F0.0
aF1.0
aF1.0
aF1.0
aF0.0
aF0.0
aF1.0
aF0.0
aF1.0
aF1.0
aF0.0
aF1.0
aF0.0
aF1.0
aF1.0
aF1.0
aF0.0
aF0.0
aF1.0
aF0.0
aF0.0
aF0.0
aF0.0
aF0.0
aF1.0
aF1.0
aF1.0
aF1.0
aF1.0
aF0.0
aF1.0
aF1.0
aF0.0
aF1.0
aF0.0
aF0.0
atp26
a(I0
(lp27
F1.0
aF1.0
aF1.0
aF0.0
aF0.0
aF0.0
aF1.0
aF1.0
aF1.0
aF1.0
aF1.0
aF1.0
aF1.0
aF1.0
aF0.0
aF1.0
aF0.0
aF0.0
aF1.0
aF0.0
aF0.0
aF1.0
aF0.0
aF1.0
aF0.0
aF1.0
aF0.0
aF1.0
aF1.0
aF1.0
aF1.0
aF1.0
aF1.0
aF0.0
aF1.0
aF1.0
atp28
a(I0
(lp29
F0.0
aF1.0
aF0.0
aF1.0
aF0.0
aF0.0
aF1.0
aF1.0
aF1.0
aF1.0
aF1.0
aF0.0
aF1.0
aF1.0
aF1.0
aF1.0
aF1.0
aF0.0
aF0.0
aF0.0
aF0.0
aF1.0
aF0.0
aF1.0
aF1.0
aF0.0
aF1.0
aF1.0
aF1.0
aF1.0
aF1.0
aF1.0
aF0.0
aF1.0
aF0.0
aF0.0
atp30
a(I0
g29
tp31
a(I0
(lp32
F0.0
aF1.0
aF1.0
aF1.0
aF1.0
aF1.0
aF0.0
aF1.0
aF0.0
aF1.0
aF1.0
aF1.0
aF1.0
aF1.0
aF1.0
aF1.0
aF0.0
aF0.0
aF1.0
aF0.0
aF0.0
aF1.0
aF0.0
aF1.0
aF0.0
aF1.0
aF1.0
aF1.0
aF1.0
aF0.0
aF0.0
aF0.0
aF0.0
aF0.0
aF0.0
aF0.0
atp33
a(I0
g29
tp34
a(I0
g32
tp35
a(I0
(lp36
F1.0
aF0.0
aF1.0
aF1.0
aF1.0
aF1.0
aF1.0
aF0.0
aF1.0
aF1.0
aF0.0
aF1.0
aF1.0
aF0.0
aF0.0
aF0.0
aF0.0
aF0.0
aF1.0
aF0.0
aF0.0
aF1.0
aF0.0
aF0.0
aF0.0
aF0.0
aF1.0
aF1.0
aF1.0
aF0.0
aF1.0
aF0.0
aF0.0
aF1.0
aF1.0
aF0.0
atp37
a(I1
g29
tp38
a(I1
g32
tp39
a(I1
g36
tp40
a(I1
(lp41
F1.0
aF1.0
aF1.0
aF1.0
aF1.0
aF1.0
aF1.0
aF1.0
aF1.0
aF1.0
aF1.0
aF1.0
aF1.0
aF1.0
aF1.0
aF0.0
aF0.0
aF0.0
aF1.0
aF0.0
aF0.0
aF1.0
aF0.0
aF1.0
aF1.0
aF1.0
aF0.0
aF1.0
aF0.0
aF1.0
aF0.0
aF1.0
aF0.0
aF1.0
aF0.0
aF0.0
atp42
a(I0
(lp43
F1.0
aF1.0
aF1.0
aF1.0
aF1.0
aF1.0
aF1.0
aF1.0
aF0.0
aF1.0
aF1.0
aF1.0
aF1.0
aF0.0
aF0.0
aF1.0
aF0.0
aF0.0
aF1.0
aF0.0
aF0.0
aF0.0
aF0.0
aF0.0
aF1.0
aF1.0
aF1.0
aF1.0
aF0.0
aF0.0
aF1.0
aF1.0
aF0.0
aF0.0
aF1.0
aF0.0
atp44
a(I0
(lp45
F0.0
aF1.0
aF1.0
aF1.0
aF1.0
aF0.0
aF1.0
aF0.0
aF1.0
aF1.0
aF1.0
aF1.0
aF1.0
aF1.0
aF1.0
aF0.0
aF0.0
aF0.0
aF1.0
aF0.0
aF0.0
aF0.0
aF1.0
aF0.0
aF1.0
aF1.0
aF1.0
aF0.0
aF0.0
aF1.0
aF1.0
aF1.0
aF1.0
aF0.0
aF0.0
aF1.0
atp46
a(I1
(lp47
F1.0
aF1.0
aF0.0
aF1.0
aF0.0
aF0.0
aF1.0
aF1.0
aF0.0
aF0.0
aF0.0
aF1.0
aF0.0
aF1.0
aF0.0
aF1.0
aF0.0
aF0.0
aF0.0
aF0.0
aF0.0
aF1.0
aF0.0
aF1.0
aF0.0
aF1.0
aF1.0
aF1.0
aF1.0
aF1.0
aF1.0
aF0.0
aF0.0
aF1.0
aF1.0
aF0.0
atp48
a(I0
(lp49
F1.0
aF0.0
aF1.0
aF1.0
aF1.0
aF0.0
aF1.0
aF1.0
aF1.0
aF0.0
aF0.0
aF0.0
aF1.0
aF0.0
aF0.0
aF1.0
aF0.0
aF0.0
aF1.0
aF1.0
aF0.0
aF1.0
aF0.0
aF1.0
aF0.0
aF1.0
aF1.0
aF1.0
aF0.0
aF1.0
aF0.0
aF1.0
aF1.0
aF0.0
aF1.0
aF0.0
atp50
a(I0
(lp51
F0.0
aF1.0
aF1.0
aF1.0
aF0.0
aF1.0
aF1.0
aF1.0
aF1.0
aF1.0
aF1.0
aF1.0
aF0.0
aF1.0
aF1.0
aF1.0
aF1.0
aF1.0
aF1.0
aF1.0
aF1.0
aF1.0
aF1.0
aF0.0
aF0.0
aF0.0
aF1.0
aF0.0
aF1.0
aF1.0
aF0.0
aF0.0
aF0.0
aF0.0
aF0.0
aF1.0
atp52
a(I0
(lp53
F1.0
aF1.0
aF1.0
aF1.0
aF0.0
aF1.0
aF1.0
aF1.0
aF1.0
aF1.0
aF1.0
aF1.0
aF1.0
aF0.0
aF1.0
aF0.0
aF0.0
aF0.0
aF0.0
aF0.0
aF0.0
aF1.0
aF1.0
aF0.0
aF1.0
aF1.0
aF1.0
aF0.0
aF0.0
aF0.0
aF1.0
aF1.0
aF0.0
aF1.0
aF1.0
aF0.0
atp54
a(I0
(lp55
F1.0
aF1.0
aF1.0
aF0.0
aF0.0
aF0.0
aF1.0
aF0.0
aF1.0
aF1.0
aF0.0
aF1.0
aF1.0
aF0.0
aF1.0
aF0.0
aF0.0
aF0.0
aF1.0
aF1.0
aF0.0
aF0.0
aF1.0
aF0.0
aF1.0
aF1.0
aF1.0
aF1.0
aF0.0
aF0.0
aF1.0
aF0.0
aF0.0
aF1.0
aF0.0
aF0.0
atp56
a(I0
(lp57
F1.0
aF1.0
aF1.0
aF1.0
aF0.0
aF1.0
aF1.0
aF1.0
aF1.0
aF1.0
aF1.0
aF1.0
aF1.0
aF1.0
aF1.0
aF1.0
aF1.0
aF0.0
aF0.0
aF0.0
aF0.0
aF0.0
aF1.0
aF1.0
aF0.0
aF1.0
aF1.0
aF0.0
aF1.0
aF1.0
aF1.0
aF0.0
aF0.0
aF1.0
aF1.0
aF0.0
atp58
a(I0
(lp59
F1.0
aF1.0
aF0.0
aF1.0
aF0.0
aF0.0
aF1.0
aF0.0
aF1.0
aF1.0
aF1.0
aF1.0
aF1.0
aF1.0
aF0.0
aF1.0
aF0.0
aF0.0
aF1.0
aF1.0
aF0.0
aF1.0
aF0.0
aF1.0
aF1.0
aF0.0
aF1.0
aF0.0
aF1.0
aF0.0
aF1.0
aF0.0
aF1.0
aF0.0
aF1.0
aF0.0
atp60
a(I0
(lp61
F1.0
aF1.0
aF1.0
aF0.0
aF1.0
aF1.0
aF1.0
aF1.0
aF1.0
aF0.0
aF0.0
aF1.0
aF1.0
aF1.0
aF1.0
aF0.0
aF1.0
aF0.0
aF1.0
aF0.0
aF0.0
aF0.0
aF0.0
aF0.0
aF0.0
aF0.0
aF0.0
aF0.0
aF0.0
aF1.0
aF1.0
aF1.0
aF0.0
aF0.0
aF1.0
aF0.0
atp62
a(I0
(lp63
F1.0
aF1.0
aF1.0
aF1.0
aF1.0
aF1.0
aF0.0
aF1.0
aF1.0
aF1.0
aF1.0
aF1.0
aF1.0
aF1.0
aF1.0
aF0.0
aF1.0
aF0.0
aF1.0
aF0.0
aF0.0
aF1.0
aF0.0
aF0.0
aF1.0
aF1.0
aF1.0
aF1.0
aF1.0
aF0.0
aF1.0
aF0.0
aF0.0
aF1.0
aF0.0
aF0.0
atp64
a(I0
(lp65
F1.0
aF1.0
aF1.0
aF1.0
aF0.0
aF0.0
aF0.0
aF1.0
aF1.0
aF0.0
aF1.0
aF1.0
aF1.0
aF1.0
aF1.0
aF0.0
aF0.0
aF0.0
aF1.0
aF1.0
aF1.0
aF1.0
aF0.0
aF1.0
aF1.0
aF0.0
aF1.0
aF1.0
aF1.0
aF1.0
aF1.0
aF0.0
aF0.0
aF1.0
aF1.0
aF1.0
atp66
a(I0
(lp67
F1.0
aF1.0
aF1.0
aF1.0
aF1.0
aF0.0
aF0.0
aF1.0
aF0.0
aF0.0
aF0.0
aF0.0
aF1.0
aF1.0
aF1.0
aF0.0
aF0.0
aF0.0
aF1.0
aF0.0
aF0.0
aF1.0
aF0.0
aF1.0
aF0.0
aF1.0
aF1.0
aF1.0
aF1.0
aF0.0
aF1.0
aF1.0
aF0.0
aF1.0
aF1.0
aF1.0
atp68
a(I0
(lp69
F1.0
aF1.0
aF1.0
aF0.0
aF0.0
aF0.0
aF1.0
aF1.0
aF1.0
aF1.0
aF1.0
aF1.0
aF1.0
aF1.0
aF1.0
aF1.0
aF0.0
aF0.0
aF1.0
aF0.0
aF0.0
aF0.0
aF1.0
aF1.0
aF1.0
aF1.0
aF1.0
aF0.0
aF0.0
aF1.0
aF1.0
aF0.0
aF0.0
aF1.0
aF0.0
aF0.0
atp70
a(I0
(lp71
F1.0
aF1.0
aF1.0
aF1.0
aF0.0
aF0.0
aF1.0
aF1.0
aF1.0
aF1.0
aF1.0
aF1.0
aF1.0
aF1.0
aF1.0
aF1.0
aF0.0
aF1.0
aF1.0
aF0.0
aF1.0
aF1.0
aF0.0
aF0.0
aF1.0
aF1.0
aF1.0
aF1.0
aF1.0
aF1.0
aF0.0
aF0.0
aF0.0
aF0.0
aF1.0
aF0.0
atp72
a(I0
(lp73
F0.0
aF0.0
aF1.0
aF1.0
aF0.0
aF0.0
aF0.0
aF1.0
aF0.0
aF1.0
aF1.0
aF0.0
aF1.0
aF1.0
aF1.0
aF0.0
aF0.0
aF0.0
aF1.0
aF1.0
aF1.0
aF1.0
aF0.0
aF0.0
aF1.0
aF1.0
aF1.0
aF1.0
aF1.0
aF0.0
aF0.0
aF0.0
aF0.0
aF1.0
aF0.0
aF0.0
atp74
a(I0
(lp75
F1.0
aF1.0
aF0.0
aF0.0
aF1.0
aF0.0
aF0.0
aF1.0
aF1.0
aF1.0
aF1.0
aF0.0
aF0.0
aF1.0
aF1.0
aF0.0
aF0.0
aF0.0
aF1.0
aF0.0
aF0.0
aF1.0
aF0.0
aF1.0
aF1.0
aF1.0
aF1.0
aF0.0
aF0.0
aF0.0
aF0.0
aF0.0
aF0.0
aF1.0
aF0.0
aF0.0
atp76
a(I1
(lp77
F1.0
aF1.0
aF1.0
aF1.0
aF0.0
aF0.0
aF1.0
aF1.0
aF1.0
aF0.0
aF1.0
aF1.0
aF1.0
aF1.0
aF1.0
aF1.0
aF0.0
aF0.0
aF1.0
aF1.0
aF1.0
aF1.0
aF0.0
aF1.0
aF1.0
aF0.0
aF1.0
aF1.0
aF1.0
aF0.0
aF0.0
aF0.0
aF0.0
aF1.0
aF0.0
aF0.0
atp78
a(I0
(lp79
F0.0
aF1.0
aF1.0
aF0.0
aF0.0
aF0.0
aF1.0
aF1.0
aF1.0
aF0.0
aF0.0
aF1.0
aF1.0
aF1.0
aF1.0
aF0.0
aF1.0
aF0.0
aF1.0
aF0.0
aF0.0
aF1.0
aF0.0
aF0.0
aF1.0
aF1.0
aF1.0
aF1.0
aF1.0
aF0.0
aF0.0
aF0.0
aF1.0
aF0.0
aF0.0
aF1.0
atp80
a(I1
(lp81
F1.0
aF0.0
aF1.0
aF1.0
aF0.0
aF0.0
aF1.0
aF1.0
aF1.0
aF0.0
aF0.0
aF1.0
aF0.0
aF1.0
aF1.0
aF1.0
aF1.0
aF0.0
aF1.0
aF0.0
aF0.0
aF1.0
aF0.0
aF1.0
aF0.0
aF0.0
aF0.0
aF0.0
aF0.0
aF0.0
aF0.0
aF0.0
aF0.0
aF0.0
aF0.0
aF0.0
atp82
a(I0
(lp83
F1.0
aF0.0
aF1.0
aF1.0
aF0.0
aF0.0
aF0.0
aF1.0
aF0.0
aF1.0
aF1.0
aF1.0
aF1.0
aF0.0
aF0.0
aF1.0
aF1.0
aF0.0
aF1.0
aF1.0
aF0.0
aF1.0
aF0.0
aF0.0
aF0.0
aF1.0
aF1.0
aF0.0
aF1.0
aF0.0
aF1.0
aF0.0
aF0.0
aF1.0
aF0.0
aF0.0
atp84
a(I1
(lp85
F0.0
aF1.0
aF1.0
aF1.0
aF1.0
aF1.0
aF1.0
aF0.0
aF1.0
aF1.0
aF1.0
aF1.0
aF1.0
aF1.0
aF1.0
aF0.0
aF0.0
aF0.0
aF1.0
aF0.0
aF0.0
aF1.0
aF0.0
aF1.0
aF1.0
aF1.0
aF1.0
aF1.0
aF1.0
aF1.0
aF0.0
aF0.0
aF1.0
aF1.0
aF0.0
aF0.0
atp86
a(I1
(lp87
F1.0
aF0.0
aF1.0
aF0.0
aF0.0
aF0.0
aF1.0
aF1.0
aF1.0
aF1.0
aF1.0
aF0.0
aF1.0
aF1.0
aF1.0
aF1.0
aF0.0
aF0.0
aF1.0
aF1.0
aF0.0
aF0.0
aF0.0
aF0.0
aF1.0
aF1.0
aF1.0
aF1.0
aF0.0
aF0.0
aF0.0
aF0.0
aF0.0
aF1.0
aF0.0
aF0.0
atp88
a(I1
(lp89
F1.0
aF1.0
aF1.0
aF1.0
aF0.0
aF0.0
aF1.0
aF1.0
aF0.0
aF0.0
aF1.0
aF1.0
aF1.0
aF1.0
aF1.0
aF1.0
aF0.0
aF0.0
aF1.0
aF0.0
aF1.0
aF1.0
aF0.0
aF1.0
aF1.0
aF0.0
aF0.0
aF0.0
aF1.0
aF1.0
aF1.0
aF0.0
aF1.0
aF0.0
aF1.0
aF0.0
atp90
a(I0
(lp91
F1.0
aF0.0
aF1.0
aF1.0
aF0.0
aF1.0
aF0.0
aF0.0
aF1.0
aF0.0
aF1.0
aF1.0
aF1.0
aF0.0
aF1.0
aF0.0
aF1.0
aF1.0
aF1.0
aF0.0
aF0.0
aF1.0
aF0.0
aF0.0
aF1.0
aF1.0
aF1.0
aF0.0
aF1.0
aF1.0
aF0.0
aF1.0
aF0.0
aF0.0
aF1.0
aF1.0
atp92
a(I0
(lp93
F1.0
aF1.0
aF1.0
aF0.0
aF0.0
aF0.0
aF1.0
aF1.0
aF1.0
aF1.0
aF1.0
aF1.0
aF1.0
aF1.0
aF1.0
aF0.0
aF0.0
aF0.0
aF0.0
aF0.0
aF0.0
aF0.0
aF1.0
aF1.0
aF1.0
aF1.0
aF1.0
aF0.0
aF0.0
aF0.0
aF1.0
aF0.0
aF0.0
aF1.0
aF0.0
aF0.0
atp94
a(I0
(lp95
F1.0
aF1.0
aF1.0
aF0.0
aF0.0
aF0.0
aF1.0
aF1.0
aF0.0
aF0.0
aF0.0
aF1.0
aF1.0
aF1.0
aF1.0
aF1.0
aF1.0
aF0.0
aF1.0
aF0.0
aF0.0
aF1.0
aF1.0
aF0.0
aF0.0
aF1.0
aF1.0
aF1.0
aF1.0
aF1.0
aF0.0
aF0.0
aF0.0
aF1.0
aF1.0
aF0.0
atp96
a(I1
(lp97
F1.0
aF1.0
aF1.0
aF1.0
aF1.0
aF0.0
aF1.0
aF0.0
aF0.0
aF1.0
aF0.0
aF1.0
aF0.0
aF1.0
aF1.0
aF1.0
aF0.0
aF0.0
aF1.0
aF0.0
aF0.0
aF1.0
aF0.0
aF0.0
aF0.0
aF1.0
aF1.0
aF1.0
aF0.0
aF0.0
aF0.0
aF0.0
aF0.0
aF1.0
aF1.0
aF0.0
atp98
a(I1
(lp99
F1.0
aF1.0
aF1.0
aF0.0
aF0.0
aF0.0
aF1.0
aF0.0
aF1.0
aF1.0
aF0.0
aF0.0
aF1.0
aF0.0
aF1.0
aF1.0
aF0.0
aF0.0
aF1.0
aF0.0
aF0.0
aF1.0
aF0.0
aF0.0
aF0.0
aF1.0
aF0.0
aF0.0
aF1.0
aF0.0
aF1.0
aF1.0
aF0.0
aF1.0
aF1.0
aF0.0
atp100
a(I1
(lp101
F1.0
aF1.0
aF0.0
aF1.0
aF0.0
aF0.0
aF1.0
aF1.0
aF1.0
aF0.0
aF1.0
aF1.0
aF1.0
aF1.0
aF1.0
aF1.0
aF1.0
aF0.0
aF1.0
aF0.0
aF0.0
aF1.0
aF0.0
aF0.0
aF0.0
aF1.0
aF1.0
aF1.0
aF0.0
aF0.0
aF0.0
aF0.0
aF0.0
aF1.0
aF0.0
aF0.0
atp102
a(I0
(lp103
F1.0
aF0.0
aF1.0
aF1.0
aF0.0
aF1.0
aF1.0
aF1.0
aF1.0
aF1.0
aF1.0
aF1.0
aF1.0
aF1.0
aF1.0
aF1.0
aF0.0
aF0.0
aF1.0
aF1.0
aF0.0
aF0.0
aF0.0
aF0.0
aF0.0
aF1.0
aF1.0
aF0.0
aF1.0
aF0.0
aF0.0
aF0.0
aF0.0
aF0.0
aF0.0
aF0.0
atp104
a(I0
(lp105
F1.0
aF1.0
aF1.0
aF0.0
aF0.0
aF1.0
aF0.0
aF0.0
aF1.0
aF1.0
aF0.0
aF1.0
aF0.0
aF1.0
aF1.0
aF1.0
aF1.0
aF0.0
aF1.0
aF0.0
aF1.0
aF1.0
aF1.0
aF0.0
aF1.0
aF0.0
aF0.0
aF1.0
aF1.0
aF1.0
aF1.0
aF0.0
aF0.0
aF1.0
aF0.0
aF1.0
atp106
a(I1
g105
tp107
a(I1
(lp108
F0.0
aF1.0
aF1.0
aF0.0
aF0.0
aF0.0
aF1.0
aF1.0
aF1.0
aF1.0
aF0.0
aF1.0
aF1.0
aF0.0
aF1.0
aF1.0
aF1.0
aF0.0
aF1.0
aF0.0
aF0.0
aF1.0
aF1.0
aF0.0
aF1.0
aF0.0
aF1.0
aF1.0
aF1.0
aF0.0
aF1.0
aF1.0
aF0.0
aF1.0
aF0.0
aF0.0
atp109
a(I1
g105
tp110
a(I1
g108
tp111
a(I1
(lp112
F1.0
aF0.0
aF1.0
aF1.0
aF0.0
aF0.0
aF1.0
aF1.0
aF1.0
aF0.0
aF1.0
aF1.0
aF1.0
aF1.0
aF1.0
aF0.0
aF0.0
aF0.0
aF1.0
aF0.0
aF0.0
aF0.0
aF0.0
aF0.0
aF1.0
aF1.0
aF1.0
aF1.0
aF0.0
aF1.0
aF0.0
aF1.0
aF0.0
aF0.0
aF0.0
aF0.0
atp113
a(I0
(lp114
F0.0
aF1.0
aF1.0
aF1.0
aF0.0
aF0.0
aF1.0
aF0.0
aF1.0
aF1.0
aF1.0
aF0.0
aF1.0
aF1.0
aF1.0
aF1.0
aF0.0
aF0.0
aF0.0
aF0.0
aF0.0
aF1.0
aF0.0
aF0.0
aF0.0
aF0.0
aF0.0
aF1.0
aF1.0
aF0.0
aF0.0
aF0.0
aF0.0
aF1.0
aF0.0
aF0.0
atp115
a(I0
(lp116
F1.0
aF1.0
aF1.0
aF0.0
aF0.0
aF1.0
aF0.0
aF0.0
aF1.0
aF1.0
aF1.0
aF1.0
aF1.0
aF1.0
aF1.0
aF1.0
aF1.0
aF0.0
aF0.0
aF0.0
aF1.0
aF1.0
aF0.0
aF0.0
aF1.0
aF0.0
aF1.0
aF0.0
aF1.0
aF0.0
aF1.0
aF1.0
aF0.0
aF0.0
aF0.0
aF0.0
atp117
a(I0
(lp118
F1.0
aF0.0
aF1.0
aF0.0
aF0.0
aF0.0
aF1.0
aF1.0
aF1.0
aF1.0
aF1.0
aF1.0
aF1.0
aF1.0
aF1.0
aF0.0
aF0.0
aF0.0
aF1.0
aF1.0
aF0.0
aF1.0
aF1.0
aF1.0
aF0.0
aF0.0
aF1.0
aF1.0
aF0.0
aF1.0
aF1.0
aF1.0
aF0.0
aF0.0
aF0.0
aF0.0
atp119
a(I1
(lp120
F1.0
aF1.0
aF1.0
aF1.0
aF0.0
aF1.0
aF1.0
aF1.0
aF0.0
aF1.0
aF1.0
aF1.0
aF1.0
aF1.0
aF1.0
aF1.0
aF0.0
aF0.0
aF1.0
aF0.0
aF0.0
aF1.0
aF0.0
aF0.0
aF1.0
aF0.0
aF1.0
aF1.0
aF1.0
aF0.0
aF1.0
aF0.0
aF1.0
aF1.0
aF1.0
aF0.0
atp121
a(I0
(lp122
F1.0
aF1.0
aF1.0
aF1.0
aF1.0
aF1.0
aF0.0
aF1.0
aF1.0
aF1.0
aF1.0
aF1.0
aF1.0
aF1.0
aF0.0
aF1.0
aF0.0
aF1.0
aF1.0
aF0.0
aF1.0
aF1.0
aF0.0
aF1.0
aF1.0
aF0.0
aF1.0
aF0.0
aF0.0
aF1.0
aF0.0
aF0.0
aF0.0
aF1.0
aF0.0
aF0.0
atp123
a(I0
(lp124
F1.0
aF0.0
aF0.0
aF0.0
aF1.0
aF0.0
aF0.0
aF1.0
aF1.0
aF1.0
aF1.0
aF1.0
aF1.0
aF1.0
aF0.0
aF0.0
aF0.0
aF0.0
aF0.0
aF0.0
aF0.0
aF1.0
aF0.0
aF1.0
aF1.0
aF1.0
aF1.0
aF0.0
aF1.0
aF1.0
aF0.0
aF0.0
aF0.0
aF0.0
aF1.0
aF1.0
atp125
a(I1
(lp126
F1.0
aF1.0
aF0.0
aF1.0
aF0.0
aF1.0
aF1.0
aF0.0
aF1.0
aF1.0
aF0.0
aF0.0
aF1.0
aF1.0
aF1.0
aF0.0
aF0.0
aF1.0
aF1.0
aF0.0
aF0.0
aF1.0
aF0.0
aF0.0
aF0.0
aF1.0
aF1.0
aF1.0
aF1.0
aF1.0
aF1.0
aF1.0
aF0.0
aF0.0
aF0.0
aF0.0
atp127
a(I0
(lp128
F0.0
aF1.0
aF0.0
aF1.0
aF0.0
aF0.0
aF1.0
aF1.0
aF1.0
aF1.0
aF1.0
aF1.0
aF1.0
aF1.0
aF0.0
aF1.0
aF0.0
aF0.0
aF0.0
aF0.0
aF0.0
aF0.0
aF0.0
aF0.0
aF1.0
aF1.0
aF1.0
aF1.0
aF0.0
aF0.0
aF0.0
aF0.0
aF1.0
aF1.0
aF0.0
aF1.0
atp129
a(I0
(lp130
F1.0
aF0.0
aF1.0
aF1.0
aF1.0
aF1.0
aF1.0
aF0.0
aF1.0
aF1.0
aF1.0
aF1.0
aF0.0
aF0.0
aF1.0
aF0.0
aF0.0
aF0.0
aF0.0
aF0.0
aF0.0
aF1.0
aF1.0
aF1.0
aF0.0
aF1.0
aF1.0
aF1.0
aF1.0
aF1.0
aF1.0
aF0.0
aF0.0
aF1.0
aF1.0
aF1.0
atp131
a(I0
(lp132
F1.0
aF0.0
aF1.0
aF0.0
aF0.0
aF0.0
aF1.0
aF0.0
aF1.0
aF0.0
aF0.0
aF0.0
aF1.0
aF1.0
aF1.0
aF0.0
aF1.0
aF1.0
aF1.0
aF0.0
aF1.0
aF1.0
aF1.0
aF0.0
aF0.0
aF1.0
aF1.0
aF0.0
aF0.0
aF1.0
aF1.0
aF0.0
aF0.0
aF0.0
aF0.0
aF0.0
atp133
a(I0
(lp134
F1.0
aF1.0
aF1.0
aF1.0
aF0.0
aF0.0
aF1.0
aF1.0
aF1.0
aF0.0
aF0.0
aF1.0
aF1.0
aF1.0
aF0.0
aF1.0
aF0.0
aF0.0
aF1.0
aF1.0
aF0.0
aF1.0
aF1.0
aF0.0
aF0.0
aF0.0
aF0.0
aF1.0
aF0.0
aF0.0
aF0.0
aF1.0
aF0.0
aF1.0
aF0.0
aF1.0
atp135
a(I0
(lp136
F1.0
aF0.0
aF1.0
aF0.0
aF0.0
aF0.0
aF1.0
aF1.0
aF1.0
aF1.0
aF1.0
aF0.0
aF1.0
aF1.0
aF0.0
aF1.0
aF0.0
aF0.0
aF1.0
aF0.0
aF0.0
aF0.0
aF0.0
aF0.0
aF0.0
aF0.0
aF0.0
aF0.0
aF0.0
aF0.0
aF1.0
aF0.0
aF0.0
aF1.0
aF1.0
aF0.0
atp137
a(I0
(lp138
F1.0
aF1.0
aF1.0
aF0.0
aF1.0
aF1.0
aF1.0
aF0.0
aF1.0
aF0.0
aF1.0
aF0.0
aF1.0
aF0.0
aF1.0
aF0.0
aF1.0
aF0.0
aF1.0
aF0.0
aF0.0
aF1.0
aF0.0
aF1.0
aF1.0
aF1.0
aF1.0
aF0.0
aF1.0
aF1.0
aF0.0
aF1.0
aF0.0
aF1.0
aF1.0
aF0.0
atp139
a(I0
(lp140
F1.0
aF1.0
aF1.0
aF1.0
aF1.0
aF0.0
aF1.0
aF1.0
aF0.0
aF0.0
aF1.0
aF1.0
aF1.0
aF1.0
aF1.0
aF0.0
aF0.0
aF0.0
aF1.0
aF0.0
aF0.0
aF1.0
aF1.0
aF0.0
aF1.0
aF1.0
aF0.0
aF1.0
aF1.0
aF1.0
aF1.0
aF0.0
aF0.0
aF1.0
aF0.0
aF0.0
atp141
a(I1
(lp142
F1.0
aF0.0
aF0.0
aF1.0
aF0.0
aF0.0
aF1.0
aF1.0
aF0.0
aF0.0
aF0.0
aF1.0
aF0.0
aF1.0
aF0.0
aF0.0
aF0.0
aF0.0
aF0.0
aF0.0
aF1.0
aF1.0
aF1.0
aF1.0
aF0.0
aF0.0
aF1.0
aF1.0
aF1.0
aF1.0
aF0.0
aF0.0
aF0.0
aF1.0
aF0.0
aF1.0
atp143
a(I0
(lp144
F1.0
aF1.0
aF1.0
aF0.0
aF0.0
aF0.0
aF0.0
aF1.0
aF1.0
aF1.0
aF1.0
aF0.0
aF1.0
aF1.0
aF1.0
aF1.0
aF1.0
aF0.0
aF0.0
aF1.0
aF1.0
aF1.0
aF0.0
aF1.0
aF0.0
aF1.0
aF1.0
aF0.0
aF1.0
aF0.0
aF1.0
aF1.0
aF0.0
aF0.0
aF1.0
aF0.0
atp145
a(I0
(lp146
F1.0
aF1.0
aF1.0
aF1.0
aF0.0
aF0.0
aF0.0
aF1.0
aF1.0
aF0.0
aF1.0
aF1.0
aF1.0
aF1.0
aF1.0
aF0.0
aF1.0
aF0.0
aF1.0
aF0.0
aF0.0
aF0.0
aF0.0
aF0.0
aF0.0
aF1.0
aF1.0
aF0.0
aF1.0
aF0.0
aF0.0
aF0.0
aF0.0
aF1.0
aF1.0
aF0.0
atp147
a(I0
(lp148
F1.0
aF1.0
aF1.0
aF1.0
aF0.0
aF0.0
aF1.0
aF1.0
aF1.0
aF0.0
aF1.0
aF1.0
aF1.0
aF1.0
aF1.0
aF1.0
aF0.0
aF0.0
aF0.0
aF0.0
aF0.0
aF1.0
aF0.0
aF0.0
aF1.0
aF1.0
aF0.0
aF1.0
aF1.0
aF0.0
aF0.0
aF0.0
aF0.0
aF1.0
aF0.0
aF0.0
atp149
a(I0
(lp150
F1.0
aF0.0
aF0.0
aF1.0
aF0.0
aF0.0
aF0.0
aF0.0
aF0.0
aF0.0
aF1.0
aF1.0
aF0.0
aF1.0
aF0.0
aF1.0
aF0.0
aF0.0
aF1.0
aF0.0
aF0.0
aF1.0
aF0.0
aF1.0
aF1.0
aF1.0
aF1.0
aF0.0
aF0.0
aF0.0
aF0.0
aF1.0
aF1.0
aF1.0
aF0.0
aF0.0
atp151
a(I0
(lp152
F1.0
aF0.0
aF0.0
aF1.0
aF0.0
aF0.0
aF1.0
aF0.0
aF1.0
aF1.0
aF1.0
aF0.0
aF0.0
aF1.0
aF1.0
aF0.0
aF1.0
aF1.0
aF0.0
aF0.0
aF0.0
aF0.0
aF0.0
aF0.0
aF1.0
aF1.0
aF1.0
aF0.0
aF1.0
aF0.0
aF0.0
aF0.0
aF0.0
aF0.0
aF1.0
aF0.0
atp153
a(I0
(lp154
F0.0
aF1.0
aF1.0
aF0.0
aF0.0
aF1.0
aF1.0
aF1.0
aF1.0
aF1.0
aF0.0
aF0.0
aF1.0
aF0.0
aF1.0
aF0.0
aF0.0
aF0.0
aF0.0
aF0.0
aF0.0
aF0.0
aF0.0
aF1.0
aF1.0
aF1.0
aF1.0
aF0.0
aF1.0
aF1.0
aF0.0
aF0.0
aF0.0
aF1.0
aF0.0
aF0.0
atp155
a(I0
(lp156
F1.0
aF1.0
aF0.0
aF1.0
aF0.0
aF1.0
aF1.0
aF1.0
aF0.0
aF1.0
aF1.0
aF1.0
aF0.0
aF1.0
aF1.0
aF0.0
aF0.0
aF0.0
aF1.0
aF1.0
aF0.0
aF0.0
aF0.0
aF1.0
aF0.0
aF0.0
aF0.0
aF0.0
aF0.0
aF1.0
aF1.0
aF1.0
aF0.0
aF1.0
aF0.0
aF0.0
atp157
a(I1
(lp158
F1.0
aF1.0
aF1.0
aF1.0
aF0.0
aF1.0
aF1.0
aF1.0
aF1.0
aF1.0
aF1.0
aF1.0
aF1.0
aF1.0
aF1.0
aF1.0
aF0.0
aF0.0
aF1.0
aF1.0
aF0.0
aF1.0
aF1.0
aF1.0
aF0.0
aF1.0
aF0.0
aF0.0
aF1.0
aF1.0
aF1.0
aF0.0
aF1.0
aF0.0
aF1.0
aF0.0
atp159
a(I0
(lp160
F1.0
aF1.0
aF1.0
aF1.0
aF0.0
aF0.0
aF1.0
aF1.0
aF1.0
aF1.0
aF1.0
aF1.0
aF1.0
aF1.0
aF1.0
aF1.0
aF0.0
aF0.0
aF1.0
aF0.0
aF0.0
aF1.0
aF1.0
aF1.0
aF1.0
aF1.0
aF1.0
aF1.0
aF0.0
aF0.0
aF0.0
aF1.0
aF0.0
aF0.0
aF0.0
aF0.0
atp161
a(I0
(lp162
F1.0
aF0.0
aF1.0
aF1.0
aF0.0
aF1.0
aF0.0
aF1.0
aF1.0
aF1.0
aF1.0
aF1.0
aF1.0
aF1.0
aF1.0
aF1.0
aF0.0
aF0.0
aF0.0
aF0.0
aF0.0
aF1.0
aF1.0
aF1.0
aF0.0
aF0.0
aF1.0
aF1.0
aF1.0
aF1.0
aF1.0
aF1.0
aF0.0
aF1.0
aF0.0
aF0.0
atp163
a(I0
(lp164
F1.0
aF1.0
aF1.0
aF1.0
aF0.0
aF0.0
aF1.0
aF1.0
aF0.0
aF1.0
aF1.0
aF1.0
aF1.0
aF1.0
aF1.0
aF1.0
aF0.0
aF0.0
aF1.0
aF0.0
aF0.0
aF1.0
aF0.0
aF1.0
aF1.0
aF1.0
aF1.0
aF1.0
aF0.0
aF1.0
aF1.0
aF0.0
aF0.0
aF1.0
aF1.0
aF0.0
atp165
a(I1
(lp166
F1.0
aF1.0
aF1.0
aF1.0
aF0.0
aF0.0
aF0.0
aF1.0
aF1.0
aF0.0
aF1.0
aF1.0
aF1.0
aF1.0
aF0.0
aF1.0
aF1.0
aF0.0
aF1.0
aF0.0
aF0.0
aF1.0
aF0.0
aF0.0
aF0.0
aF1.0
aF1.0
aF0.0
aF1.0
aF0.0
aF0.0
aF0.0
aF0.0
aF1.0
aF0.0
aF0.0
atp167
a(I0
(lp168
F1.0
aF0.0
aF1.0
aF0.0
aF0.0
aF0.0
aF1.0
aF1.0
aF0.0
aF1.0
aF1.0
aF1.0
aF1.0
aF1.0
aF1.0
aF1.0
aF0.0
aF0.0
aF1.0
aF0.0
aF0.0
aF0.0
aF0.0
aF1.0
aF1.0
aF1.0
aF0.0
aF0.0
aF0.0
aF0.0
aF0.0
aF1.0
aF0.0
aF0.0
aF0.0
aF0.0
atp169
a(I0
(lp170
F1.0
aF1.0
aF0.0
aF1.0
aF0.0
aF0.0
aF1.0
aF1.0
aF1.0
aF1.0
aF0.0
aF1.0
aF0.0
aF1.0
aF1.0
aF0.0
aF0.0
aF0.0
aF1.0
aF0.0
aF0.0
aF1.0
aF0.0
aF0.0
aF0.0
aF1.0
aF1.0
aF0.0
aF0.0
aF1.0
aF1.0
aF0.0
aF0.0
aF1.0
aF0.0
aF0.0
atp171
a(I0
(lp172
F0.0
aF1.0
aF1.0
aF1.0
aF0.0
aF0.0
aF1.0
aF0.0
aF1.0
aF1.0
aF1.0
aF1.0
aF0.0
aF1.0
aF0.0
aF0.0
aF1.0
aF0.0
aF1.0
aF1.0
aF1.0
aF1.0
aF0.0
aF1.0
aF0.0
aF0.0
aF1.0
aF1.0
aF1.0
aF1.0
aF1.0
aF0.0
aF0.0
aF1.0
aF0.0
aF0.0
atp173
a(I0
(lp174
F1.0
aF0.0
aF1.0
aF0.0
aF1.0
aF1.0
aF1.0
aF1.0
aF0.0
aF1.0
aF0.0
aF1.0
aF1.0
aF1.0
aF0.0
aF1.0
aF0.0
aF0.0
aF0.0
aF0.0
aF0.0
aF0.0
aF1.0
aF1.0
aF0.0
aF0.0
aF1.0
aF0.0
aF1.0
aF1.0
aF0.0
aF0.0
aF0.0
aF0.0
aF0.0
aF1.0
atp175
a(I0
(lp176
F1.0
aF1.0
aF1.0
aF1.0
aF0.0
aF0.0
aF1.0
aF0.0
aF1.0
aF1.0
aF0.0
aF0.0
aF1.0
aF1.0
aF1.0
aF1.0
aF0.0
aF0.0
aF1.0
aF0.0
aF0.0
aF1.0
aF0.0
aF0.0
aF0.0
aF1.0
aF0.0
aF1.0
aF0.0
aF1.0
aF1.0
aF0.0
aF0.0
aF1.0
aF0.0
aF0.0
atp177
a(I1
(lp178
F1.0
aF0.0
aF1.0
aF1.0
aF1.0
aF0.0
aF1.0
aF1.0
aF1.0
aF0.0
aF1.0
aF1.0
aF1.0
aF0.0
aF1.0
aF0.0
aF0.0
aF0.0
aF1.0
aF0.0
aF0.0
aF1.0
aF0.0
aF0.0
aF0.0
aF0.0
aF0.0
aF0.0
aF1.0
aF0.0
aF1.0
aF1.0
aF0.0
aF0.0
aF0.0
aF0.0
atp179
a(I1
(lp180
F1.0
aF1.0
aF1.0
aF1.0
aF0.0
aF0.0
aF1.0
aF1.0
aF0.0
aF1.0
aF1.0
aF1.0
aF1.0
aF1.0
aF1.0
aF1.0
aF1.0
aF0.0
aF1.0
aF1.0
aF1.0
aF1.0
aF0.0
aF0.0
aF0.0
aF1.0
aF1.0
aF1.0
aF1.0
aF0.0
aF1.0
aF1.0
aF0.0
aF1.0
aF1.0
aF0.0
atp181
a(I0
(lp182
F0.0
aF1.0
aF1.0
aF1.0
aF0.0
aF1.0
aF1.0
aF1.0
aF1.0
aF1.0
aF0.0
aF0.0
aF1.0
aF1.0
aF0.0
aF1.0
aF1.0
aF0.0
aF1.0
aF0.0
aF0.0
aF1.0
aF0.0
aF0.0
aF1.0
aF1.0
aF0.0
aF1.0
aF0.0
aF0.0
aF0.0
aF0.0
aF1.0
aF1.0
aF0.0
aF1.0
atp183
a(I0
(lp184
F1.0
aF1.0
aF1.0
aF1.0
aF0.0
aF0.0
aF1.0
aF0.0
aF0.0
aF1.0
aF1.0
aF1.0
aF1.0
aF1.0
aF1.0
aF1.0
aF0.0
aF0.0
aF1.0
aF0.0
aF0.0
aF0.0
aF0.0
aF0.0
aF1.0
aF1.0
aF0.0
aF1.0
aF0.0
aF1.0
aF1.0
aF0.0
aF0.0
aF0.0
aF0.0
aF1.0
atp185
a(I0
(lp186
F1.0
aF1.0
aF0.0
aF1.0
aF0.0
aF0.0
aF1.0
aF1.0
aF0.0
aF1.0
aF1.0
aF1.0
aF1.0
aF0.0
aF1.0
aF0.0
aF0.0
aF0.0
aF1.0
aF0.0
aF0.0
aF1.0
aF1.0
aF0.0
aF1.0
aF1.0
aF1.0
aF0.0
aF1.0
aF0.0
aF0.0
aF0.0
aF0.0
aF1.0
aF0.0
aF0.0
atp187
a(I0
(lp188
F1.0
aF0.0
aF1.0
aF1.0
aF0.0
aF0.0
aF1.0
aF1.0
aF1.0
aF1.0
aF0.0
aF1.0
aF1.0
aF1.0
aF1.0
aF0.0
aF0.0
aF0.0
aF1.0
aF1.0
aF0.0
aF1.0
aF0.0
aF0.0
aF1.0
aF0.0
aF0.0
aF1.0
aF0.0
aF0.0
aF0.0
aF0.0
aF1.0
aF0.0
aF0.0
aF0.0
atp189
a(I0
(lp190
F1.0
aF1.0
aF1.0
aF1.0
aF1.0
aF0.0
aF1.0
aF1.0
aF1.0
aF0.0
aF1.0
aF1.0
aF1.0
aF0.0
aF1.0
aF0.0
aF0.0
aF0.0
aF1.0
aF1.0
aF1.0
aF0.0
aF0.0
aF1.0
aF0.0
aF1.0
aF1.0
aF0.0
aF0.0
aF1.0
aF0.0
aF0.0
aF1.0
aF1.0
aF1.0
aF0.0
atp191
a(I0
(lp192
F1.0
aF1.0
aF1.0
aF1.0
aF1.0
aF1.0
aF1.0
aF0.0
aF0.0
aF1.0
aF1.0
aF1.0
aF1.0
aF1.0
aF1.0
aF0.0
aF0.0
aF0.0
aF1.0
aF0.0
aF0.0
aF1.0
aF1.0
aF0.0
aF0.0
aF0.0
aF1.0
aF1.0
aF1.0
aF1.0
aF0.0
aF0.0
aF0.0
aF1.0
aF0.0
aF0.0
atp193
a(I0
(lp194
F1.0
aF0.0
aF1.0
aF1.0
aF1.0
aF0.0
aF1.0
aF1.0
aF1.0
aF1.0
aF1.0
aF1.0
aF0.0
aF1.0
aF1.0
aF1.0
aF0.0
aF0.0
aF1.0
aF1.0
aF1.0
aF1.0
aF1.0
aF0.0
aF0.0
aF1.0
aF1.0
aF1.0
aF0.0
aF1.0
aF0.0
aF0.0
aF0.0
aF1.0
aF0.0
aF0.0
atp195
a(I1
(lp196
F1.0
aF0.0
aF1.0
aF1.0
aF0.0
aF1.0
aF1.0
aF1.0
aF1.0
aF1.0
aF1.0
aF1.0
aF0.0
aF1.0
aF1.0
aF0.0
aF0.0
aF0.0
aF0.0
aF0.0
aF0.0
aF1.0
aF0.0
aF0.0
aF0.0
aF1.0
aF1.0
aF1.0
aF0.0
aF1.0
aF0.0
aF0.0
aF0.0
aF1.0
aF1.0
aF0.0
atp197
a(I1
g196
tp198
a(I1
(lp199
F1.0
aF1.0
aF1.0
aF0.0
aF0.0
aF0.0
aF0.0
aF1.0
aF0.0
aF1.0
aF1.0
aF1.0
aF1.0
aF1.0
aF0.0
aF0.0
aF0.0
aF0.0
aF1.0
aF0.0
aF0.0
aF1.0
aF1.0
aF0.0
aF1.0
aF1.0
aF1.0
aF1.0
aF0.0
aF0.0
aF1.0
aF0.0
aF0.0
aF0.0
aF0.0
aF0.0
atp200
a(I0
g196
tp201
a(I0
g199
tp202
a(I0
(lp203
F1.0
aF1.0
aF1.0
aF1.0
aF1.0
aF1.0
aF1.0
aF0.0
aF0.0
aF1.0
aF1.0
aF0.0
aF1.0
aF1.0
aF1.0
aF1.0
aF0.0
aF0.0
aF1.0
aF1.0
aF1.0
aF1.0
aF0.0
aF0.0
aF1.0
aF1.0
aF1.0
aF1.0
aF0.0
aF0.0
aF0.0
aF0.0
aF0.0
aF1.0
aF1.0
aF0.0
atp204
a(I0
(lp205
F1.0
aF1.0
aF1.0
aF1.0
aF0.0
aF0.0
aF1.0
aF0.0
aF1.0
aF1.0
aF1.0
aF1.0
aF1.0
aF1.0
aF1.0
aF0.0
aF0.0
aF0.0
aF0.0
aF1.0
aF0.0
aF1.0
aF1.0
aF0.0
aF0.0
aF1.0
aF1.0
aF1.0
aF1.0
aF0.0
aF1.0
aF1.0
aF0.0
aF1.0
aF0.0
aF1.0
atp206
a(I0
(lp207
F0.0
aF1.0
aF0.0
aF1.0
aF0.0
aF0.0
aF1.0
aF1.0
aF1.0
aF1.0
aF1.0
aF1.0
aF1.0
aF0.0
aF1.0
aF0.0
aF0.0
aF0.0
aF1.0
aF1.0
aF0.0
aF1.0
aF1.0
aF0.0
aF1.0
aF1.0
aF0.0
aF1.0
aF1.0
aF0.0
aF0.0
aF0.0
aF0.0
aF1.0
aF0.0
aF0.0
atp208
a(I0
(lp209
F1.0
aF0.0
aF1.0
aF0.0
aF0.0
aF0.0
aF1.0
aF0.0
aF1.0
aF0.0
aF1.0
aF0.0
aF1.0
aF0.0
aF1.0
aF0.0
aF1.0
aF0.0
aF1.0
aF0.0
aF0.0
aF1.0
aF1.0
aF1.0
aF1.0
aF1.0
aF1.0
aF1.0
aF1.0
aF1.0
aF1.0
aF1.0
aF0.0
aF1.0
aF1.0
aF0.0
atp210
a(I0
(lp211
F0.0
aF1.0
aF0.0
aF1.0
aF1.0
aF0.0
aF0.0
aF1.0
aF0.0
aF1.0
aF1.0
aF1.0
aF1.0
aF0.0
aF0.0
aF0.0
aF0.0
aF0.0
aF0.0
aF0.0
aF0.0
aF1.0
aF0.0
aF1.0
aF0.0
aF1.0
aF1.0
aF0.0
aF1.0
aF0.0
aF1.0
aF0.0
aF1.0
aF0.0
aF0.0
aF0.0
atp212
a(I0
g211
tp213
a(I0
(lp214
F1.0
aF1.0
aF0.0
aF1.0
aF0.0
aF0.0
aF0.0
aF1.0
aF1.0
aF1.0
aF1.0
aF1.0
aF1.0
aF1.0
aF1.0
aF0.0
aF0.0
aF0.0
aF1.0
aF0.0
aF1.0
aF1.0
aF0.0
aF0.0
aF0.0
aF1.0
aF1.0
aF1.0
aF0.0
aF0.0
aF0.0
aF0.0
aF0.0
aF1.0
aF0.0
aF0.0
atp215
a(I0
(lp216
F1.0
aF1.0
aF1.0
aF0.0
aF0.0
aF0.0
aF0.0
aF1.0
aF1.0
aF1.0
aF1.0
aF1.0
aF0.0
aF1.0
aF1.0
aF0.0
aF0.0
aF0.0
aF1.0
aF0.0
aF1.0
aF1.0
aF1.0
aF1.0
aF0.0
aF1.0
aF1.0
aF1.0
aF1.0
aF1.0
aF0.0
aF0.0
aF0.0
aF1.0
aF0.0
aF0.0
atp217
a(I1
(lp218
F1.0
aF1.0
aF0.0
aF1.0
aF1.0
aF0.0
aF1.0
aF1.0
aF1.0
aF0.0
aF1.0
aF1.0
aF1.0
aF1.0
aF1.0
aF1.0
aF1.0
aF0.0
aF1.0
aF0.0
aF0.0
aF1.0
aF1.0
aF0.0
aF0.0
aF1.0
aF1.0
aF1.0
aF1.0
aF0.0
aF1.0
aF1.0
aF0.0
aF1.0
aF1.0
aF0.0
atp219
a(I0
(lp220
F0.0
aF1.0
aF1.0
aF0.0
aF0.0
aF0.0
aF1.0
aF1.0
aF1.0
aF1.0
aF1.0
aF1.0
aF1.0
aF0.0
aF1.0
aF1.0
aF1.0
aF1.0
aF1.0
aF1.0
aF0.0
aF0.0
aF1.0
aF0.0
aF0.0
aF1.0
aF0.0
aF1.0
aF1.0
aF0.0
aF1.0
aF0.0
aF0.0
aF0.0
aF0.0
aF1.0
atp221
a(I0
(lp222
F1.0
aF0.0
aF0.0
aF1.0
aF0.0
aF0.0
aF0.0
aF1.0
aF1.0
aF1.0
aF1.0
aF0.0
aF1.0
aF1.0
aF1.0
aF0.0
aF1.0
aF0.0
aF1.0
aF0.0
aF0.0
aF1.0
aF1.0
aF0.0
aF0.0
aF1.0
aF1.0
aF0.0
aF0.0
aF0.0
aF0.0
aF0.0
aF0.0
aF0.0
aF1.0
aF0.0
atp223
a(I0
(lp224
F1.0
aF1.0
aF1.0
aF1.0
aF1.0
aF0.0
aF1.0
aF1.0
aF1.0
aF0.0
aF0.0
aF0.0
aF1.0
aF1.0
aF0.0
aF0.0
aF0.0
aF0.0
aF1.0
aF0.0
aF0.0
aF1.0
aF0.0
aF0.0
aF1.0
aF1.0
aF1.0
aF0.0
aF1.0
aF1.0
aF1.0
aF0.0
aF0.0
aF1.0
aF0.0
aF0.0
atp225
a(I1
g224
tp226
a(I1
(lp227
F1.0
aF1.0
aF1.0
aF1.0
aF1.0
aF1.0
aF1.0
aF1.0
aF1.0
aF1.0
aF1.0
aF1.0
aF0.0
aF0.0
aF0.0
aF1.0
aF0.0
aF1.0
aF1.0
aF0.0
aF0.0
aF0.0
aF1.0
aF1.0
aF1.0
aF1.0
aF1.0
aF1.0
aF0.0
aF1.0
aF1.0
aF0.0
aF0.0
aF0.0
aF1.0
aF1.0
atp228
a(I0
(lp229
F1.0
aF1.0
aF1.0
aF1.0
aF0.0
aF1.0
aF1.0
aF1.0
aF1.0
aF0.0
aF0.0
aF0.0
aF1.0
aF0.0
aF0.0
aF0.0
aF0.0
aF0.0
aF0.0
aF0.0
aF0.0
aF1.0
aF0.0
aF0.0
aF1.0
aF1.0
aF1.0
aF1.0
aF1.0
aF1.0
aF1.0
aF0.0
aF0.0
aF1.0
aF0.0
aF0.0
atp230
a(I0
(lp231
F1.0
aF1.0
aF0.0
aF1.0
aF1.0
aF1.0
aF1.0
aF0.0
aF1.0
aF1.0
aF1.0
aF0.0
aF1.0
aF1.0
aF1.0
aF0.0
aF0.0
aF0.0
aF0.0
aF1.0
aF1.0
aF0.0
aF1.0
aF0.0
aF1.0
aF0.0
aF0.0
aF0.0
aF1.0
aF0.0
aF1.0
aF1.0
aF0.0
aF1.0
aF1.0
aF0.0
atp232
a(I0
(lp233
F1.0
aF0.0
aF1.0
aF1.0
aF1.0
aF1.0
aF1.0
aF1.0
aF1.0
aF1.0
aF0.0
aF0.0
aF1.0
aF1.0
aF1.0
aF0.0
aF0.0
aF0.0
aF0.0
aF0.0
aF0.0
aF1.0
aF0.0
aF0.0
aF0.0
aF1.0
aF1.0
aF0.0
aF0.0
aF0.0
aF0.0
aF0.0
aF0.0
aF1.0
aF1.0
aF0.0
atp234
a(I0
(lp235
F0.0
aF0.0
aF1.0
aF1.0
aF0.0
aF0.0
aF0.0
aF1.0
aF1.0
aF0.0
aF0.0
aF1.0
aF1.0
aF1.0
aF0.0
aF0.0
aF0.0
aF0.0
aF1.0
aF0.0
aF1.0
aF1.0
aF0.0
aF1.0
aF1.0
aF1.0
aF1.0
aF0.0
aF1.0
aF1.0
aF0.0
aF0.0
aF0.0
aF1.0
aF0.0
aF0.0
atp236
a(I0
(lp237
F0.0
aF1.0
aF1.0
aF0.0
aF0.0
aF0.0
aF1.0
aF1.0
aF1.0
aF1.0
aF1.0
aF1.0
aF0.0
aF1.0
aF1.0
aF1.0
aF0.0
aF0.0
aF1.0
aF0.0
aF0.0
aF1.0
aF0.0
aF0.0
aF0.0
aF1.0
aF1.0
aF1.0
aF0.0
aF0.0
aF1.0
aF0.0
aF0.0
aF0.0
aF1.0
aF0.0
atp238
a(I0
(lp239
F1.0
aF1.0
aF1.0
aF1.0
aF0.0
aF0.0
aF1.0
aF1.0
aF0.0
aF1.0
aF1.0
aF1.0
aF1.0
aF1.0
aF0.0
aF0.0
aF0.0
aF0.0
aF1.0
aF0.0
aF0.0
aF1.0
aF0.0
aF0.0
aF1.0
aF0.0
aF1.0
aF0.0
aF0.0
aF1.0
aF1.0
aF0.0
aF0.0
aF0.0
aF0.0
aF0.0
atp240
a(I0
(lp241
F0.0
aF1.0
aF1.0
aF1.0
aF0.0
aF0.0
aF1.0
aF0.0
aF1.0
aF1.0
aF1.0
aF0.0
aF1.0
aF1.0
aF1.0
aF0.0
aF0.0
aF0.0
aF1.0
aF0.0
aF0.0
aF1.0
aF0.0
aF1.0
aF1.0
aF0.0
aF0.0
aF1.0
aF1.0
aF0.0
aF1.0
aF0.0
aF0.0
aF1.0
aF0.0
aF0.0
atp242
a(I0
(lp243
F1.0
aF1.0
aF1.0
aF1.0
aF0.0
aF1.0
aF1.0
aF0.0
aF1.0
aF1.0
aF1.0
aF1.0
aF1.0
aF1.0
aF1.0
aF0.0
aF1.0
aF1.0
aF1.0
aF1.0
aF0.0
aF0.0
aF0.0
aF1.0
aF0.0
aF1.0
aF1.0
aF0.0
aF1.0
aF1.0
aF0.0
aF1.0
aF0.0
aF0.0
aF0.0
aF0.0
atp244
a(I0
(lp245
F1.0
aF0.0
aF0.0
aF1.0
aF1.0
aF1.0
aF1.0
aF1.0
aF1.0
aF1.0
aF1.0
aF0.0
aF1.0
aF1.0
aF0.0
aF1.0
aF0.0
aF0.0
aF1.0
aF0.0
aF0.0
aF1.0
aF1.0
aF0.0
aF1.0
aF1.0
aF0.0
aF1.0
aF1.0
aF0.0
aF0.0
aF0.0
aF0.0
aF1.0
aF1.0
aF0.0
atp246
a(I0
(lp247
F1.0
aF1.0
aF1.0
aF1.0
aF0.0
aF0.0
aF0.0
aF1.0
aF0.0
aF1.0
aF1.0
aF1.0
aF1.0
aF1.0
aF1.0
aF1.0
aF0.0
aF0.0
aF1.0
aF0.0
aF0.0
aF0.0
aF1.0
aF0.0
aF1.0
aF1.0
aF1.0
aF1.0
aF1.0
aF1.0
aF0.0
aF0.0
aF0.0
aF0.0
aF1.0
aF0.0
atp248
a(I0
g247
tp249
a(I0
(lp250
F1.0
aF0.0
aF1.0
aF1.0
aF0.0
aF1.0
aF0.0
aF1.0
aF1.0
aF1.0
aF1.0
aF0.0
aF0.0
aF1.0
aF0.0
aF0.0
aF0.0
aF0.0
aF0.0
aF0.0
aF0.0
aF0.0
aF0.0
aF1.0
aF1.0
aF1.0
aF1.0
aF1.0
aF1.0
aF1.0
aF1.0
aF0.0
aF0.0
aF1.0
aF1.0
aF1.0
atp251
a(I0
g247
tp252
a(I0
g250
tp253
a(I0
(lp254
F1.0
aF1.0
aF1.0
aF1.0
aF0.0
aF0.0
aF1.0
aF1.0
aF1.0
aF0.0
aF0.0
aF1.0
aF0.0
aF0.0
aF0.0
aF1.0
aF1.0
aF1.0
aF1.0
aF1.0
aF0.0
aF1.0
aF0.0
aF0.0
aF1.0
aF1.0
aF1.0
aF0.0
aF0.0
aF0.0
aF1.0
aF0.0
aF0.0
aF0.0
aF0.0
aF0.0
atp255
a(I0
(lp256
F1.0
aF0.0
aF0.0
aF1.0
aF1.0
aF1.0
aF1.0
aF0.0
aF1.0
aF0.0
aF1.0
aF1.0
aF1.0
aF1.0
aF0.0
aF0.0
aF0.0
aF0.0
aF1.0
aF0.0
aF0.0
aF1.0
aF0.0
aF0.0
aF1.0
aF0.0
aF0.0
aF1.0
aF1.0
aF1.0
aF0.0
aF1.0
aF1.0
aF1.0
aF0.0
aF0.0
atp257
a(I0
(lp258
F1.0
aF1.0
aF1.0
aF0.0
aF0.0
aF0.0
aF0.0
aF0.0
aF0.0
aF1.0
aF1.0
aF0.0
aF1.0
aF1.0
aF1.0
aF1.0
aF1.0
aF0.0
aF1.0
aF0.0
aF0.0
aF0.0
aF1.0
aF1.0
aF0.0
aF1.0
aF1.0
aF1.0
aF1.0
aF1.0
aF0.0
aF0.0
aF0.0
aF1.0
aF0.0
aF0.0
atp259
a(I0
(lp260
F0.0
aF1.0
aF0.0
aF1.0
aF1.0
aF0.0
aF1.0
aF1.0
aF0.0
aF1.0
aF1.0
aF1.0
aF1.0
aF1.0
aF1.0
aF0.0
aF0.0
aF0.0
aF0.0
aF0.0
aF0.0
aF1.0
aF1.0
aF0.0
aF1.0
aF0.0
aF0.0
aF1.0
aF1.0
aF0.0
aF0.0
aF0.0
aF1.0
aF0.0
aF0.0
aF0.0
atp261
a(I0
(lp262
F1.0
aF1.0
aF1.0
aF1.0
aF0.0
aF0.0
aF1.0
aF1.0
aF1.0
aF1.0
aF0.0
aF0.0
aF1.0
aF1.0
aF1.0
aF1.0
aF0.0
aF0.0
aF0.0
aF0.0
aF0.0
aF1.0
aF1.0
aF0.0
aF1.0
aF1.0
aF1.0
aF1.0
aF1.0
aF1.0
aF1.0
aF1.0
aF0.0
aF1.0
aF0.0
aF1.0
atp263
a(I0
g262
tp264
a(I0
(lp265
F1.0
aF1.0
aF0.0
aF1.0
aF0.0
aF0.0
aF1.0
aF1.0
aF1.0
aF1.0
aF1.0
aF1.0
aF1.0
aF1.0
aF1.0
aF1.0
aF0.0
aF0.0
aF1.0
aF1.0
aF1.0
aF1.0
aF0.0
aF0.0
aF1.0
aF1.0
aF1.0
aF1.0
aF0.0
aF1.0
aF1.0
aF1.0
aF0.0
aF1.0
aF0.0
aF1.0
atp266
a(I0
(lp267
F0.0
aF1.0
aF1.0
aF0.0
aF0.0
aF0.0
aF1.0
aF1.0
aF1.0
aF1.0
aF1.0
aF1.0
aF1.0
aF1.0
aF1.0
aF0.0
aF0.0
aF0.0
aF0.0
aF0.0
aF1.0
aF1.0
aF1.0
aF0.0
aF1.0
aF1.0
aF1.0
aF0.0
aF1.0
aF1.0
aF1.0
aF0.0
aF0.0
aF0.0
aF1.0
aF0.0
atp268
a(I0
g267
tp269
a(I0
(lp270
F1.0
aF1.0
aF0.0
aF1.0
aF0.0
aF0.0
aF1.0
aF0.0
aF0.0
aF1.0
aF1.0
aF0.0
aF0.0
aF1.0
aF1.0
aF0.0
aF1.0
aF0.0
aF1.0
aF1.0
aF0.0
aF1.0
aF0.0
aF0.0
aF1.0
aF1.0
aF1.0
aF1.0
aF0.0
aF1.0
aF0.0
aF0.0
aF0.0
aF1.0
aF1.0
aF0.0
atp271
a(I0
g267
tp272
a(I0
g270
tp273
a(I0
(lp274
F1.0
aF0.0
aF1.0
aF1.0
aF1.0
aF0.0
aF1.0
aF1.0
aF1.0
aF0.0
aF0.0
aF1.0
aF0.0
aF1.0
aF1.0
aF1.0
aF0.0
aF0.0
aF0.0
aF0.0
aF0.0
aF1.0
aF0.0
aF1.0
aF0.0
aF1.0
aF0.0
aF1.0
aF1.0
aF1.0
aF0.0
aF0.0
aF0.0
aF1.0
aF1.0
aF1.0
atp275
a(I1
(lp276
F1.0
aF1.0
aF0.0
aF1.0
aF0.0
aF1.0
aF1.0
aF1.0
aF0.0
aF1.0
aF0.0
aF0.0
aF1.0
aF1.0
aF1.0
aF1.0
aF1.0
aF0.0
aF1.0
aF0.0
aF0.0
aF1.0
aF0.0
aF1.0
aF1.0
aF1.0
aF1.0
aF1.0
aF1.0
aF0.0
aF1.0
aF0.0
aF1.0
aF1.0
aF1.0
aF0.0
atp277
a(I0
(lp278
F1.0
aF1.0
aF1.0
aF1.0
aF0.0
aF1.0
aF1.0
aF1.0
aF1.0
aF0.0
aF1.0
aF0.0
aF0.0
aF1.0
aF0.0
aF0.0
aF0.0
aF0.0
aF1.0
aF1.0
aF0.0
aF0.0
aF1.0
aF1.0
aF1.0
aF1.0
aF1.0
aF0.0
aF1.0
aF1.0
aF1.0
aF0.0
aF0.0
aF0.0
aF0.0
aF0.0
atp279
a(I1
g278
tp280
a(I1
(lp281
F0.0
aF1.0
aF1.0
aF1.0
aF0.0
aF1.0
aF1.0
aF1.0
aF1.0
aF1.0
aF1.0
aF1.0
aF1.0
aF1.0
aF1.0
aF0.0
aF0.0
aF0.0
aF1.0
aF0.0
aF0.0
aF1.0
aF1.0
aF0.0
aF1.0
aF1.0
aF1.0
aF0.0
aF1.0
aF0.0
aF0.0
aF0.0
aF0.0
aF0.0
aF0.0
aF0.0
atp282
a(I0
g278
tp283
a(I0
g281
tp284
a(I0
(lp285
F1.0
aF1.0
aF1.0
aF1.0
aF0.0
aF0.0
aF1.0
aF0.0
aF0.0
aF1.0
aF1.0
aF1.0
aF1.0
aF1.0
aF1.0
aF0.0
aF0.0
aF1.0
aF1.0
aF1.0
aF1.0
aF0.0
aF0.0
aF0.0
aF0.0
aF1.0
aF1.0
aF0.0
aF1.0
aF0.0
aF1.0
aF0.0
aF0.0
aF1.0
aF1.0
aF0.0
atp286
a(I1
g278
tp287
a(I1
g281
tp288
a(I1
g285
tp289
a(I1
(lp290
F1.0
aF1.0
aF1.0
aF1.0
aF0.0
aF0.0
aF0.0
aF1.0
aF1.0
aF1.0
aF0.0
aF0.0
aF1.0
aF1.0
aF1.0
aF0.0
aF0.0
aF0.0
aF1.0
aF0.0
aF0.0
aF1.0
aF0.0
aF0.0
aF0.0
aF1.0
aF1.0
aF1.0
aF1.0
aF1.0
aF0.0
aF0.0
aF0.0
aF1.0
aF0.0
aF1.0
atp291
a(I0
g278
tp292
a(I0
g281
tp293
a(I0
g285
tp294
a(I0
g290
tp295
a(I0
(lp296
F1.0
aF1.0
aF1.0
aF1.0
aF1.0
aF0.0
aF1.0
aF0.0
aF1.0
aF1.0
aF1.0
aF1.0
aF0.0
aF0.0
aF1.0
aF0.0
aF0.0
aF0.0
aF1.0
aF0.0
aF0.0
aF1.0
aF0.0
aF0.0
aF1.0
aF1.0
aF0.0
aF0.0
aF0.0
aF1.0
aF0.0
aF0.0
aF0.0
aF0.0
aF1.0
aF1.0
atp297
a(I0
g278
tp298
a(I0
g281
tp299
a(I0
g285
tp300
a(I0
g290
tp301
a(I0
g296
tp302
a(I0
(lp303
F1.0
aF0.0
aF1.0
aF0.0
aF0.0
aF0.0
aF1.0
aF1.0
aF1.0
aF1.0
aF1.0
aF1.0
aF1.0
aF1.0
aF1.0
aF0.0
aF0.0
aF0.0
aF1.0
aF0.0
aF0.0
aF1.0
aF0.0
aF0.0
aF0.0
aF1.0
aF1.0
aF1.0
aF0.0
aF0.0
aF0.0
aF0.0
aF0.0
aF1.0
aF1.0
aF0.0
atp304
a(I0
(lp305
F0.0
aF1.0
aF1.0
aF1.0
aF0.0
aF0.0
aF1.0
aF1.0
aF1.0
aF1.0
aF1.0
aF1.0
aF0.0
aF1.0
aF1.0
aF1.0
aF1.0
aF0.0
aF1.0
aF1.0
aF1.0
aF1.0
aF0.0
aF0.0
aF1.0
aF1.0
aF1.0
aF1.0
aF1.0
aF0.0
aF1.0
aF0.0
aF0.0
aF0.0
aF0.0
aF0.0
atp306
a(I0
(lp307
F0.0
aF1.0
aF0.0
aF0.0
aF0.0
aF1.0
aF1.0
aF1.0
aF1.0
aF0.0
aF0.0
aF0.0
aF1.0
aF1.0
aF1.0
aF1.0
aF0.0
aF0.0
aF1.0
aF0.0
aF0.0
aF1.0
aF0.0
aF0.0
aF1.0
aF1.0
aF1.0
aF0.0
aF1.0
aF1.0
aF1.0
aF1.0
aF1.0
aF0.0
aF1.0
aF0.0
atp308
a(I0
(lp309
F0.0
aF1.0
aF1.0
aF1.0
aF0.0
aF1.0
aF1.0
aF1.0
aF1.0
aF1.0
aF1.0
aF1.0
aF1.0
aF1.0
aF1.0
aF0.0
aF0.0
aF0.0
aF1.0
aF1.0
aF1.0
aF1.0
aF0.0
aF0.0
aF1.0
aF1.0
aF1.0
aF1.0
aF0.0
aF1.0
aF1.0
aF1.0
aF0.0
aF1.0
aF1.0
aF0.0
atp310
a(I0
g309
tp311
a(I0
(lp312
F1.0
aF1.0
aF1.0
aF0.0
aF0.0
aF0.0
aF0.0
aF0.0
aF1.0
aF1.0
aF0.0
aF1.0
aF1.0
aF1.0
aF1.0
aF1.0
aF1.0
aF1.0
aF1.0
aF0.0
aF0.0
aF0.0
aF0.0
aF0.0
aF1.0
aF1.0
aF1.0
aF0.0
aF0.0
aF1.0
aF1.0
aF0.0
aF1.0
aF0.0
aF0.0
aF0.0
atp313
a(I0
(lp314
F1.0
aF1.0
aF1.0
aF0.0
aF0.0
aF1.0
aF0.0
aF1.0
aF0.0
aF1.0
aF1.0
aF1.0
aF1.0
aF1.0
aF1.0
aF0.0
aF0.0
aF0.0
aF1.0
aF1.0
aF0.0
aF1.0
aF0.0
aF0.0
aF1.0
aF0.0
aF0.0
aF0.0
aF1.0
aF0.0
aF1.0
aF0.0
aF0.0
aF0.0
aF0.0
aF0.0
atp315
a(I0
(lp316
F1.0
aF1.0
aF1.0
aF0.0
aF0.0
aF1.0
aF1.0
aF1.0
aF1.0
aF1.0
aF1.0
aF1.0
aF1.0
aF0.0
aF1.0
aF1.0
aF0.0
aF0.0
aF0.0
aF0.0
aF1.0
aF0.0
aF0.0
aF1.0
aF1.0
aF1.0
aF1.0
aF0.0
aF1.0
aF1.0
aF1.0
aF0.0
aF0.0
aF1.0
aF0.0
aF1.0
atp317
a(I0
g316
tp318
a(I0
(lp319
F1.0
aF1.0
aF1.0
aF1.0
aF0.0
aF1.0
aF1.0
aF1.0
aF1.0
aF1.0
aF1.0
aF1.0
aF1.0
aF1.0
aF1.0
aF1.0
aF1.0
aF0.0
aF0.0
aF0.0
aF1.0
aF1.0
aF0.0
aF1.0
aF0.0
aF1.0
aF1.0
aF0.0
aF0.0
aF0.0
aF0.0
aF0.0
aF0.0
aF1.0
aF0.0
aF0.0
atp320
a(I0
g316
tp321
a(I0
g319
tp322
a(I0
(lp323
F1.0
aF0.0
aF1.0
aF1.0
aF1.0
aF1.0
aF0.0
aF1.0
aF1.0
aF0.0
aF1.0
aF1.0
aF1.0
aF1.0
aF1.0
aF0.0
aF0.0
aF0.0
aF1.0
aF0.0
aF0.0
aF0.0
aF0.0
aF0.0
aF1.0
aF1.0
aF1.0
aF0.0
aF1.0
aF1.0
aF0.0
aF0.0
aF0.0
aF1.0
aF0.0
aF0.0
atp324
a(I0
g316
tp325
a(I0
g319
tp326
a(I0
g323
tp327
a(I0
(lp328
F1.0
aF0.0
aF1.0
aF1.0
aF0.0
aF1.0
aF0.0
aF0.0
aF1.0
aF1.0
aF0.0
aF1.0
aF1.0
aF0.0
aF1.0
aF0.0
aF1.0
aF0.0
aF0.0
aF0.0
aF0.0
aF1.0
aF0.0
aF1.0
aF0.0
aF0.0
aF1.0
aF1.0
aF1.0
aF0.0
aF1.0
aF1.0
aF1.0
aF1.0
aF0.0
aF0.0
atp329
a(I0
(lp330
F1.0
aF0.0
aF1.0
aF1.0
aF0.0
aF0.0
aF1.0
aF1.0
aF1.0
aF1.0
aF1.0
aF0.0
aF1.0
aF0.0
aF1.0
aF1.0
aF1.0
aF0.0
aF1.0
aF1.0
aF1.0
aF1.0
aF0.0
aF1.0
aF0.0
aF1.0
aF1.0
aF0.0
aF0.0
aF1.0
aF0.0
aF0.0
aF0.0
aF1.0
aF0.0
aF0.0
atp331
a(I1
(lp332
F1.0
aF0.0
aF1.0
aF1.0
aF0.0
aF0.0
aF1.0
aF1.0
aF1.0
aF0.0
aF1.0
aF1.0
aF1.0
aF1.0
aF1.0
aF1.0
aF0.0
aF0.0
aF1.0
aF1.0
aF1.0
aF1.0
aF0.0
aF0.0
aF1.0
aF1.0
aF1.0
aF1.0
aF1.0
aF0.0
aF1.0
aF1.0
aF1.0
aF0.0
aF1.0
aF0.0
atp333
a(I0
(lp334
F1.0
aF0.0
aF0.0
aF0.0
aF0.0
aF0.0
aF0.0
aF1.0
aF1.0
aF0.0
aF0.0
aF0.0
aF1.0
aF1.0
aF1.0
aF0.0
aF0.0
aF0.0
aF1.0
aF0.0
aF1.0
aF1.0
aF1.0
aF0.0
aF0.0
aF0.0
aF0.0
aF1.0
aF0.0
aF0.0
aF0.0
aF0.0
aF1.0
aF0.0
aF0.0
aF0.0
atp335
a(I0
(lp336
F1.0
aF0.0
aF0.0
aF1.0
aF0.0
aF1.0
aF0.0
aF1.0
aF1.0
aF0.0
aF1.0
aF1.0
aF1.0
aF0.0
aF1.0
aF0.0
aF0.0
aF0.0
aF0.0
aF0.0
aF0.0
aF1.0
aF1.0
aF1.0
aF1.0
aF1.0
aF1.0
aF1.0
aF0.0
aF1.0
aF0.0
aF0.0
aF0.0
aF1.0
aF0.0
aF0.0
atp337
a(I0
(lp338
F0.0
aF0.0
aF1.0
aF0.0
aF0.0
aF0.0
aF1.0
aF1.0
aF1.0
aF1.0
aF1.0
aF0.0
aF0.0
aF1.0
aF1.0
aF1.0
aF0.0
aF1.0
aF1.0
aF1.0
aF1.0
aF1.0
aF1.0
aF1.0
aF1.0
aF1.0
aF1.0
aF1.0
aF1.0
aF1.0
aF0.0
aF1.0
aF0.0
aF1.0
aF0.0
aF0.0
atp339
a(I0
(lp340
F1.0
aF0.0
aF0.0
aF1.0
aF0.0
aF0.0
aF1.0
aF1.0
aF0.0
aF1.0
aF1.0
aF1.0
aF1.0
aF1.0
aF1.0
aF0.0
aF0.0
aF0.0
aF1.0
aF1.0
aF0.0
aF1.0
aF1.0
aF0.0
aF1.0
aF1.0
aF1.0
aF1.0
aF1.0
aF1.0
aF0.0
aF0.0
aF0.0
aF1.0
aF1.0
aF1.0
atp341
a(I0
(lp342
F1.0
aF1.0
aF1.0
aF1.0
aF1.0
aF1.0
aF1.0
aF0.0
aF1.0
aF0.0
aF0.0
aF0.0
aF1.0
aF1.0
aF1.0
aF0.0
aF0.0
aF0.0
aF1.0
aF0.0
aF0.0
aF1.0
aF1.0
aF0.0
aF0.0
aF1.0
aF1.0
aF1.0
aF1.0
aF1.0
aF1.0
aF0.0
aF1.0
aF1.0
aF1.0
aF0.0
atp343
a(I1
(lp344
F1.0
aF1.0
aF1.0
aF0.0
aF0.0
aF0.0
aF1.0
aF1.0
aF1.0
aF1.0
aF0.0
aF0.0
aF1.0
aF1.0
aF0.0
aF1.0
aF0.0
aF1.0
aF0.0
aF0.0
aF0.0
aF1.0
aF0.0
aF1.0
aF0.0
aF1.0
aF1.0
aF1.0
aF1.0
aF1.0
aF1.0
aF0.0
aF0.0
aF0.0
aF0.0
aF0.0
atp345
a(I0
g344
tp346
a(I0
(lp347
F0.0
aF0.0
aF0.0
aF0.0
aF0.0
aF1.0
aF1.0
aF1.0
aF0.0
aF0.0
aF0.0
aF1.0
aF0.0
aF1.0
aF0.0
aF0.0
aF1.0
aF0.0
aF0.0
aF0.0
aF0.0
aF1.0
aF0.0
aF1.0
aF1.0
aF0.0
aF0.0
aF1.0
aF1.0
aF1.0
aF0.0
aF0.0
aF0.0
aF0.0
aF1.0
aF0.0
atp348
a(I0
(lp349
F1.0
aF1.0
aF0.0
aF1.0
aF1.0
aF0.0
aF1.0
aF1.0
aF1.0
aF0.0
aF1.0
aF1.0
aF1.0
aF1.0
aF1.0
aF1.0
aF0.0
aF0.0
aF0.0
aF0.0
aF0.0
aF1.0
aF0.0
aF1.0
aF1.0
aF1.0
aF1.0
aF0.0
aF0.0
aF1.0
aF1.0
aF0.0
aF0.0
aF0.0
aF0.0
aF0.0
atp350
a(I0
(lp351
F1.0
aF1.0
aF1.0
aF1.0
aF0.0
aF1.0
aF1.0
aF1.0
aF1.0
aF1.0
aF1.0
aF1.0
aF1.0
aF1.0
aF1.0
aF1.0
aF1.0
aF0.0
aF1.0
aF0.0
aF0.0
aF1.0
aF1.0
aF0.0
aF0.0
aF1.0
aF1.0
aF1.0
aF1.0
aF0.0
aF0.0
aF1.0
aF1.0
aF0.0
aF0.0
aF0.0
atp352
a(I0
(lp353
F1.0
aF0.0
aF1.0
aF1.0
aF0.0
aF0.0
aF1.0
aF0.0
aF1.0
aF0.0
aF1.0
aF1.0
aF1.0
aF1.0
aF1.0
aF0.0
aF0.0
aF0.0
aF1.0
aF0.0
aF0.0
aF1.0
aF0.0
aF0.0
aF0.0
aF0.0
aF0.0
aF0.0
aF0.0
aF0.0
aF0.0
aF1.0
aF0.0
aF0.0
aF0.0
aF0.0
atp354
a(I0
(lp355
F1.0
aF1.0
aF1.0
aF0.0
aF0.0
aF0.0
aF1.0
aF1.0
aF1.0
aF1.0
aF1.0
aF1.0
aF1.0
aF1.0
aF1.0
aF1.0
aF0.0
aF0.0
aF1.0
aF0.0
aF1.0
aF1.0
aF1.0
aF1.0
aF1.0
aF1.0
aF1.0
aF0.0
aF1.0
aF0.0
aF0.0
aF0.0
aF0.0
aF1.0
aF0.0
aF0.0
atp356
a(I0
(lp357
F1.0
aF1.0
aF1.0
aF1.0
aF0.0
aF1.0
aF1.0
aF1.0
aF1.0
aF1.0
aF1.0
aF1.0
aF1.0
aF0.0
aF0.0
aF1.0
aF0.0
aF0.0
aF0.0
aF0.0
aF1.0
aF1.0
aF1.0
aF0.0
aF1.0
aF0.0
aF1.0
aF0.0
aF1.0
aF1.0
aF0.0
aF1.0
aF0.0
aF1.0
aF1.0
aF0.0
atp358
a(I0
(lp359
F1.0
aF1.0
aF0.0
aF0.0
aF0.0
aF0.0
aF1.0
aF1.0
aF0.0
aF0.0
aF0.0
aF0.0
aF1.0
aF1.0
aF0.0
aF1.0
aF1.0
aF0.0
aF0.0
aF0.0
aF1.0
aF1.0
aF0.0
aF0.0
aF0.0
aF0.0
aF0.0
aF1.0
aF1.0
aF0.0
aF1.0
aF1.0
aF0.0
aF0.0
aF1.0
aF0.0
atp360
a(I0
(lp361
F0.0
aF1.0
aF1.0
aF1.0
aF0.0
aF0.0
aF1.0
aF1.0
aF1.0
aF0.0
aF0.0
aF1.0
aF1.0
aF0.0
aF1.0
aF0.0
aF1.0
aF1.0
aF0.0
aF0.0
aF0.0
aF1.0
aF1.0
aF1.0
aF1.0
aF1.0
aF0.0
aF1.0
aF1.0
aF0.0
aF0.0
aF0.0
aF0.0
aF1.0
aF0.0
aF0.0
atp362
a(I0
(lp363
F0.0
aF1.0
aF1.0
aF0.0
aF0.0
aF0.0
aF0.0
aF1.0
aF0.0
aF0.0
aF1.0
aF1.0
aF1.0
aF1.0
aF1.0
aF1.0
aF1.0
aF0.0
aF1.0
aF0.0
aF0.0
aF1.0
aF0.0
aF1.0
aF0.0
aF1.0
aF1.0
aF0.0
aF0.0
aF1.0
aF1.0
aF1.0
aF1.0
aF1.0
aF0.0
aF0.0
atp364
a(I0
(lp365
F1.0
aF1.0
aF1.0
aF1.0
aF1.0
aF0.0
aF1.0
aF1.0
aF1.0
aF1.0
aF1.0
aF1.0
aF1.0
aF0.0
aF1.0
aF0.0
aF0.0
aF0.0
aF1.0
aF1.0
aF0.0
aF1.0
aF0.0
aF1.0
aF1.0
aF0.0
aF0.0
aF0.0
aF1.0
aF1.0
aF0.0
aF0.0
aF0.0
aF1.0
aF1.0
aF0.0
atp366
a(I0
(lp367
F1.0
aF0.0
aF0.0
aF1.0
aF0.0
aF0.0
aF1.0
aF0.0
aF0.0
aF1.0
aF1.0
aF1.0
aF1.0
aF1.0
aF1.0
aF1.0
aF1.0
aF0.0
aF1.0
aF0.0
aF0.0
aF1.0
aF0.0
aF1.0
aF1.0
aF1.0
aF1.0
aF1.0
aF0.0
aF0.0
aF1.0
aF0.0
aF0.0
aF1.0
aF0.0
aF0.0
atp368
a(I0
(lp369
F1.0
aF1.0
aF1.0
aF0.0
aF0.0
aF0.0
aF1.0
aF1.0
aF1.0
aF1.0
aF1.0
aF0.0
aF1.0
aF0.0
aF1.0
aF0.0
aF0.0
aF0.0
aF0.0
aF0.0
aF1.0
aF1.0
aF1.0
aF0.0
aF0.0
aF0.0
aF1.0
aF1.0
aF0.0
aF0.0
aF0.0
aF0.0
aF0.0
aF1.0
aF1.0
aF0.0
atp370
a(I0
g369
tp371
a(I0
(lp372
F1.0
aF0.0
aF1.0
aF1.0
aF1.0
aF1.0
aF1.0
aF0.0
aF1.0
aF0.0
aF1.0
aF1.0
aF1.0
aF0.0
aF1.0
aF0.0
aF0.0
aF1.0
aF1.0
aF1.0
aF0.0
aF1.0
aF1.0
aF0.0
aF1.0
aF1.0
aF0.0
aF1.0
aF1.0
aF0.0
aF0.0
aF0.0
aF0.0
aF1.0
aF0.0
aF1.0
atp373
a(I0
g369
tp374
a(I0
g372
tp375
a(I0
(lp376
F1.0
aF1.0
aF1.0
aF1.0
aF0.0
aF1.0
aF1.0
aF0.0
aF1.0
aF1.0
aF1.0
aF1.0
aF1.0
aF0.0
aF0.0
aF0.0
aF0.0
aF1.0
aF1.0
aF1.0
aF1.0
aF1.0
aF0.0
aF0.0
aF0.0
aF0.0
aF0.0
aF0.0
aF1.0
aF1.0
aF0.0
aF0.0
aF1.0
aF1.0
aF0.0
aF0.0
atp377
a(I0
(lp378
F1.0
aF1.0
aF1.0
aF1.0
aF0.0
aF0.0
aF1.0
aF0.0
aF0.0
aF1.0
aF1.0
aF0.0
aF1.0
aF1.0
aF1.0
aF0.0
aF1.0
aF0.0
aF1.0
aF0.0
aF0.0
aF1.0
aF0.0
aF1.0
aF0.0
aF1.0
aF1.0
aF1.0
aF0.0
aF1.0
aF1.0
aF1.0
aF0.0
aF0.0
aF0.0
aF0.0
atp379
a(I0
(lp380
F1.0
aF1.0
aF1.0
aF1.0
aF0.0
aF0.0
aF1.0
aF0.0
aF1.0
aF0.0
aF1.0
aF0.0
aF0.0
aF1.0
aF1.0
aF1.0
aF0.0
aF0.0
aF1.0
aF0.0
aF0.0
aF0.0
aF1.0
aF1.0
aF0.0
aF0.0
aF0.0
aF1.0
aF1.0
aF1.0
aF0.0
aF0.0
aF0.0
aF1.0
aF0.0
aF0.0
atp381
a(I0
(lp382
F1.0
aF0.0
aF1.0
aF0.0
aF0.0
aF0.0
aF0.0
aF0.0
aF1.0
aF0.0
aF0.0
aF0.0
aF1.0
aF1.0
aF0.0
aF0.0
aF1.0
aF0.0
aF1.0
aF0.0
aF0.0
aF1.0
aF0.0
aF1.0
aF0.0
aF1.0
aF0.0
aF1.0
aF0.0
aF1.0
aF1.0
aF0.0
aF0.0
aF1.0
aF1.0
aF0.0
atp383
a(I0
g382
tp384
a(I0
(lp385
F0.0
aF1.0
aF1.0
aF1.0
aF0.0
aF0.0
aF1.0
aF0.0
aF1.0
aF1.0
aF0.0
aF1.0
aF1.0
aF0.0
aF1.0
aF0.0
aF0.0
aF0.0
aF1.0
aF0.0
aF1.0
aF1.0
aF0.0
aF0.0
aF0.0
aF1.0
aF0.0
aF1.0
aF1.0
aF1.0
aF1.0
aF1.0
aF0.0
aF1.0
aF0.0
aF0.0
atp386
a(I0
(lp387
F1.0
aF1.0
aF1.0
aF0.0
aF0.0
aF0.0
aF1.0
aF1.0
aF0.0
aF0.0
aF1.0
aF1.0
aF1.0
aF0.0
aF1.0
aF1.0
aF0.0
aF0.0
aF0.0
aF0.0
aF0.0
aF1.0
aF1.0
aF0.0
aF0.0
aF1.0
aF1.0
aF1.0
aF0.0
aF0.0
aF0.0
aF0.0
aF1.0
aF1.0
aF0.0
aF0.0
atp388
a(I0
(lp389
F1.0
aF0.0
aF0.0
aF0.0
aF1.0
aF0.0
aF0.0
aF1.0
aF1.0
aF1.0
aF1.0
aF1.0
aF0.0
aF0.0
aF1.0
aF0.0
aF0.0
aF0.0
aF1.0
aF0.0
aF0.0
aF1.0
aF0.0
aF0.0
aF0.0
aF0.0
aF0.0
aF1.0
aF1.0
aF0.0
aF0.0
aF0.0
aF1.0
aF1.0
aF0.0
aF0.0
atp390
a(I0
(lp391
F1.0
aF0.0
aF1.0
aF0.0
aF1.0
aF1.0
aF1.0
aF1.0
aF0.0
aF1.0
aF1.0
aF1.0
aF0.0
aF1.0
aF1.0
aF1.0
aF0.0
aF0.0
aF1.0
aF0.0
aF0.0
aF1.0
aF1.0
aF1.0
aF1.0
aF1.0
aF1.0
aF1.0
aF1.0
aF1.0
aF0.0
aF0.0
aF0.0
aF1.0
aF0.0
aF0.0
atp392
a(I0
(lp393
F0.0
aF1.0
aF1.0
aF1.0
aF0.0
aF0.0
aF1.0
aF1.0
aF1.0
aF1.0
aF1.0
aF1.0
aF1.0
aF1.0
aF1.0
aF0.0
aF0.0
aF1.0
aF1.0
aF1.0
aF1.0
aF1.0
aF0.0
aF0.0
aF0.0
aF0.0
aF1.0
aF0.0
aF0.0
aF0.0
aF0.0
aF0.0
aF0.0
aF1.0
aF0.0
aF0.0
atp394
a(I0
(lp395
F0.0
aF0.0
aF1.0
aF1.0
aF0.0
aF0.0
aF1.0
aF1.0
aF1.0
aF0.0
aF1.0
aF1.0
aF1.0
aF1.0
aF1.0
aF0.0
aF0.0
aF0.0
aF1.0
aF0.0
aF1.0
aF0.0
aF0.0
aF1.0
aF1.0
aF1.0
aF1.0
aF0.0
aF0.0
aF1.0
aF1.0
aF1.0
aF1.0
aF1.0
aF0.0
aF1.0
atp396
a(I0
(lp397
F1.0
aF1.0
aF1.0
aF0.0
aF0.0
aF0.0
aF0.0
aF1.0
aF0.0
aF0.0
aF0.0
aF1.0
aF1.0
aF1.0
aF1.0
aF0.0
aF0.0
aF0.0
aF1.0
aF0.0
aF0.0
aF1.0
aF0.0
aF1.0
aF0.0
aF1.0
aF1.0
aF1.0
aF0.0
aF1.0
aF1.0
aF0.0
aF1.0
aF1.0
aF0.0
aF0.0
atp398
a(I0
(lp399
F0.0
aF1.0
aF1.0
aF1.0
aF1.0
aF0.0
aF1.0
aF1.0
aF0.0
aF1.0
aF1.0
aF1.0
aF1.0
aF0.0
aF1.0
aF0.0
aF0.0
aF0.0
aF1.0
aF0.0
aF0.0
aF1.0
aF1.0
aF0.0
aF1.0
aF1.0
aF1.0
aF1.0
aF1.0
aF1.0
aF0.0
aF0.0
aF1.0
aF0.0
aF0.0
aF1.0
atp400
a(I0
(lp401
F1.0
aF1.0
aF1.0
aF1.0
aF0.0
aF0.0
aF1.0
aF0.0
aF1.0
aF0.0
aF1.0
aF1.0
aF0.0
aF1.0
aF1.0
aF1.0
aF0.0
aF1.0
aF1.0
aF0.0
aF0.0
aF1.0
aF0.0
aF1.0
aF1.0
aF1.0
aF1.0
aF1.0
aF0.0
aF1.0
aF1.0
aF0.0
aF1.0
aF0.0
aF0.0
aF1.0
atp402
a(I0
(lp403
F1.0
aF1.0
aF1.0
aF1.0
aF1.0
aF1.0
aF1.0
aF1.0
aF0.0
aF0.0
aF0.0
aF1.0
aF0.0
aF1.0
aF0.0
aF0.0
aF0.0
aF0.0
aF1.0
aF0.0
aF0.0
aF1.0
aF1.0
aF1.0
aF1.0
aF1.0
aF1.0
aF0.0
aF1.0
aF0.0
aF1.0
aF0.0
aF0.0
aF0.0
aF1.0
aF1.0
atp404
a(I0
(lp405
F1.0
aF1.0
aF0.0
aF0.0
aF1.0
aF1.0
aF0.0
aF1.0
aF1.0
aF0.0
aF1.0
aF1.0
aF1.0
aF1.0
aF1.0
aF1.0
aF1.0
aF0.0
aF0.0
aF0.0
aF0.0
aF1.0
aF0.0
aF0.0
aF0.0
aF0.0
aF0.0
aF1.0
aF1.0
aF0.0
aF1.0
aF0.0
aF0.0
aF0.0
aF1.0
aF0.0
atp406
a(I0
(lp407
F1.0
aF1.0
aF1.0
aF1.0
aF0.0
aF1.0
aF1.0
aF1.0
aF1.0
aF1.0
aF1.0
aF1.0
aF1.0
aF1.0
aF0.0
aF0.0
aF0.0
aF0.0
aF0.0
aF0.0
aF0.0
aF0.0
aF1.0
aF0.0
aF0.0
aF1.0
aF1.0
aF1.0
aF1.0
aF0.0
aF0.0
aF0.0
aF0.0
aF1.0
aF0.0
aF0.0
atp408
a(I1
(lp409
F1.0
aF0.0
aF1.0
aF1.0
aF0.0
aF0.0
aF1.0
aF0.0
aF0.0
aF1.0
aF1.0
aF1.0
aF0.0
aF1.0
aF1.0
aF0.0
aF0.0
aF0.0
aF1.0
aF0.0
aF1.0
aF0.0
aF0.0
aF1.0
aF0.0
aF0.0
aF0.0
aF1.0
aF1.0
aF1.0
aF1.0
aF1.0
aF0.0
aF1.0
aF0.0
aF0.0
atp410
a(I0
(lp411
F1.0
aF1.0
aF0.0
aF1.0
aF0.0
aF0.0
aF1.0
aF1.0
aF1.0
aF1.0
aF1.0
aF1.0
aF1.0
aF0.0
aF1.0
aF1.0
aF0.0
aF0.0
aF1.0
aF1.0
aF1.0
aF1.0
aF0.0
aF0.0
aF0.0
aF0.0
aF1.0
aF1.0
aF0.0
aF0.0
aF0.0
aF0.0
aF0.0
aF1.0
aF0.0
aF0.0
atp412
a(I0
g411
tp413
a(I0
(lp414
F0.0
aF1.0
aF0.0
aF1.0
aF0.0
aF0.0
aF1.0
aF1.0
aF0.0
aF1.0
aF1.0
aF1.0
aF1.0
aF1.0
aF1.0
aF1.0
aF0.0
aF0.0
aF1.0
aF0.0
aF0.0
aF1.0
aF0.0
aF0.0
aF0.0
aF0.0
aF1.0
aF0.0
aF0.0
aF0.0
aF0.0
aF0.0
aF0.0
aF1.0
aF0.0
aF0.0
atp415
a(I0
g411
tp416
a(I0
g414
tp417
a(I0
(lp418
F0.0
aF0.0
aF1.0
aF0.0
aF0.0
aF1.0
aF1.0
aF0.0
aF1.0
aF0.0
aF1.0
aF1.0
aF1.0
aF1.0
aF0.0
aF0.0
aF0.0
aF0.0
aF0.0
aF0.0
aF0.0
aF1.0
aF0.0
aF1.0
aF1.0
aF1.0
aF0.0
aF1.0
aF0.0
aF1.0
aF1.0
aF1.0
aF0.0
aF1.0
aF1.0
aF1.0
atp419
a(I0
(lp420
F0.0
aF1.0
aF1.0
aF1.0
aF0.0
aF0.0
aF1.0
aF1.0
aF1.0
aF0.0
aF0.0
aF0.0
aF1.0
aF1.0
aF1.0
aF0.0
aF0.0
aF0.0
aF1.0
aF1.0
aF0.0
aF0.0
aF1.0
aF0.0
aF0.0
aF0.0
aF1.0
aF1.0
aF1.0
aF0.0
aF0.0
aF0.0
aF0.0
aF1.0
aF0.0
aF0.0
atp421
a(I0
(lp422
F0.0
aF0.0
aF0.0
aF0.0
aF0.0
aF0.0
aF1.0
aF1.0
aF1.0
aF0.0
aF0.0
aF1.0
aF1.0
aF0.0
aF1.0
aF1.0
aF0.0
aF0.0
aF1.0
aF1.0
aF1.0
aF1.0
aF0.0
aF0.0
aF1.0
aF1.0
aF1.0
aF0.0
aF1.0
aF0.0
aF0.0
aF0.0
aF0.0
aF0.0
aF0.0
aF0.0
atp423
a(I0
g422
tp424
a(I0
(lp425
F0.0
aF1.0
aF1.0
aF1.0
aF1.0
aF1.0
aF1.0
aF1.0
aF1.0
aF0.0
aF0.0
aF0.0
aF1.0
aF0.0
aF0.0
aF1.0
aF0.0
aF1.0
aF0.0
aF0.0
aF0.0
aF1.0
aF1.0
aF1.0
aF0.0
aF1.0
aF1.0
aF1.0
aF0.0
aF1.0
aF1.0
aF1.0
aF1.0
aF0.0
aF1.0
aF1.0
atp426
a(I0
g422
tp427
a(I0
g425
tp428
a(I0
(lp429
F1.0
aF0.0
aF1.0
aF0.0
aF0.0
aF0.0
aF1.0
aF1.0
aF0.0
aF0.0
aF1.0
aF0.0
aF1.0
aF1.0
aF1.0
aF1.0
aF0.0
aF0.0
aF0.0
aF0.0
aF0.0
aF1.0
aF0.0
aF1.0
aF1.0
aF1.0
aF0.0
aF0.0
aF1.0
aF1.0
aF0.0
aF0.0
aF0.0
aF0.0
aF0.0
aF0.0
atp430
a(I0
(lp431
F1.0
aF1.0
aF1.0
aF1.0
aF1.0
aF0.0
aF1.0
aF1.0
aF1.0
aF1.0
aF1.0
aF0.0
aF0.0
aF0.0
aF0.0
aF0.0
aF0.0
aF0.0
aF0.0
aF0.0
aF1.0
aF0.0
aF0.0
aF1.0
aF1.0
aF1.0
aF1.0
aF0.0
aF0.0
aF0.0
aF0.0
aF1.0
aF0.0
aF0.0
aF0.0
aF1.0
atp432
a(I0
(lp433
F1.0
aF0.0
aF1.0
aF0.0
aF1.0
aF0.0
aF0.0
aF1.0
aF1.0
aF1.0
aF1.0
aF0.0
aF0.0
aF1.0
aF1.0
aF1.0
aF0.0
aF0.0
aF1.0
aF0.0
aF0.0
aF0.0
aF0.0
aF1.0
aF0.0
aF1.0
aF1.0
aF0.0
aF0.0
aF1.0
aF0.0
aF0.0
aF0.0
aF0.0
aF1.0
aF0.0
atp434
a(I0
(lp435
F1.0
aF1.0
aF1.0
aF1.0
aF0.0
aF0.0
aF1.0
aF1.0
aF0.0
aF1.0
aF1.0
aF1.0
aF1.0
aF1.0
aF1.0
aF1.0
aF0.0
aF0.0
aF1.0
aF1.0
aF1.0
aF1.0
aF1.0
aF1.0
aF0.0
aF1.0
aF1.0
aF1.0
aF1.0
aF0.0
aF1.0
aF0.0
aF0.0
aF0.0
aF0.0
aF1.0
atp436
a(I0
(lp437
F1.0
aF0.0
aF0.0
aF0.0
aF0.0
aF0.0
aF1.0
aF1.0
aF1.0
aF0.0
aF0.0
aF0.0
aF1.0
aF1.0
aF1.0
aF1.0
aF0.0
aF0.0
aF0.0
aF0.0
aF0.0
aF0.0
aF0.0
aF0.0
aF1.0
aF1.0
aF1.0
aF1.0
aF0.0
aF1.0
aF0.0
aF0.0
aF0.0
aF1.0
aF0.0
aF0.0
atp438
a(I0
(lp439
F1.0
aF1.0
aF1.0
aF1.0
aF1.0
aF0.0
aF0.0
aF0.0
aF1.0
aF1.0
aF1.0
aF1.0
aF1.0
aF1.0
aF1.0
aF1.0
aF0.0
aF0.0
aF1.0
aF0.0
aF0.0
aF1.0
aF1.0
aF1.0
aF1.0
aF1.0
aF1.0
aF1.0
aF1.0
aF0.0
aF0.0
aF1.0
aF0.0
aF0.0
aF0.0
aF0.0
atp440
a(I0
(lp441
F1.0
aF1.0
aF1.0
aF1.0
aF0.0
aF1.0
aF1.0
aF1.0
aF1.0
aF0.0
aF1.0
aF1.0
aF0.0
aF1.0
aF1.0
aF1.0
aF0.0
aF0.0
aF1.0
aF1.0
aF0.0
aF1.0
aF0.0
aF0.0
aF0.0
aF1.0
aF1.0
aF0.0
aF0.0
aF0.0
aF0.0
aF0.0
aF0.0
aF0.0
aF0.0
aF1.0
atp442
a(I0
(lp443
F1.0
aF1.0
aF1.0
aF1.0
aF1.0
aF1.0
aF0.0
aF1.0
aF0.0
aF1.0
aF1.0
aF1.0
aF1.0
aF0.0
aF0.0
aF1.0
aF1.0
aF1.0
aF1.0
aF0.0
aF0.0
aF0.0
aF1.0
aF0.0
aF0.0
aF0.0
aF0.0
aF0.0
aF1.0
aF1.0
aF1.0
aF1.0
aF0.0
aF0.0
aF1.0
aF1.0
atp444
a(I1
g443
tp445
a(I1
(lp446
F0.0
aF1.0
aF1.0
aF1.0
aF0.0
aF0.0
aF1.0
aF1.0
aF1.0
aF0.0
aF1.0
aF1.0
aF1.0
aF1.0
aF1.0
aF0.0
aF0.0
aF0.0
aF1.0
aF0.0
aF0.0
aF1.0
aF0.0
aF0.0
aF1.0
aF1.0
aF1.0
aF1.0
aF1.0
aF1.0
aF1.0
aF0.0
aF0.0
aF0.0
aF1.0
aF0.0
atp447
a(I0
(lp448
F1.0
aF0.0
aF0.0
aF1.0
aF0.0
aF0.0
aF1.0
aF1.0
aF0.0
aF1.0
aF0.0
aF0.0
aF1.0
aF1.0
aF0.0
aF0.0
aF0.0
aF1.0
aF1.0
aF0.0
aF1.0
aF1.0
aF1.0
aF0.0
aF0.0
aF1.0
aF1.0
aF1.0
aF1.0
aF0.0
aF0.0
aF0.0
aF0.0
aF0.0
aF0.0
aF0.0
atp449
a(I0
g448
tp450
a(I0
(lp451
F1.0
aF1.0
aF1.0
aF1.0
aF1.0
aF1.0
aF1.0
aF1.0
aF1.0
aF1.0
aF0.0
aF1.0
aF0.0
aF1.0
aF1.0
aF0.0
aF0.0
aF0.0
aF0.0
aF1.0
aF1.0
aF1.0
aF1.0
aF0.0
aF0.0
aF1.0
aF1.0
aF0.0
aF0.0
aF0.0
aF1.0
aF0.0
aF0.0
aF0.0
aF0.0
aF1.0
atp452
a(I0
g448
tp453
a(I0
g451
tp454
a(I0
(lp455
F0.0
aF1.0
aF1.0
aF0.0
aF0.0
aF1.0
aF1.0
aF1.0
aF1.0
aF1.0
aF1.0
aF0.0
aF1.0
aF1.0
aF1.0
aF0.0
aF0.0
aF0.0
aF1.0
aF0.0
aF1.0
aF0.0
aF0.0
aF1.0
aF0.0
aF1.0
aF1.0
aF1.0
aF0.0
aF1.0
aF1.0
aF1.0
aF1.0
aF1.0
aF0.0
aF0.0
atp456
a(I0
g448
tp457
a(I0
g451
tp458
a(I0
g455
tp459
a(I0
(lp460
F1.0
aF1.0
aF1.0
aF1.0
aF0.0
aF0.0
aF1.0
aF1.0
aF0.0
aF0.0
aF0.0
aF1.0
aF1.0
aF0.0
aF1.0
aF0.0
aF0.0
aF0.0
aF0.0
aF1.0
aF0.0
aF1.0
aF1.0
aF0.0
aF0.0
aF1.0
aF1.0
aF0.0
aF0.0
aF1.0
aF1.0
aF0.0
aF1.0
aF0.0
aF0.0
aF0.0
atp461
a(I0
g448
tp462
a(I0
g451
tp463
a(I0
g455
tp464
a(I0
g460
tp465
a(I0
(lp466
F1.0
aF1.0
aF1.0
aF1.0
aF1.0
aF0.0
aF1.0
aF1.0
aF0.0
aF1.0
aF1.0
aF1.0
aF1.0
aF1.0
aF1.0
aF1.0
aF1.0
aF0.0
aF1.0
aF0.0
aF1.0
aF1.0
aF1.0
aF1.0
aF1.0
aF0.0
aF1.0
aF1.0
aF1.0
aF0.0
aF1.0
aF1.0
aF0.0
aF1.0
aF0.0
aF0.0
atp467
a(I0
(lp468
F1.0
aF1.0
aF1.0
aF1.0
aF0.0
aF0.0
aF1.0
aF1.0
aF0.0
aF0.0
aF1.0
aF0.0
aF0.0
aF1.0
aF1.0
aF0.0
aF0.0
aF0.0
aF0.0
aF0.0
aF0.0
aF1.0
aF0.0
aF1.0
aF1.0
aF1.0
aF1.0
aF0.0
aF1.0
aF1.0
aF0.0
aF0.0
aF0.0
aF0.0
aF0.0
aF0.0
atp469
a(I0
g468
tp470
a(I0
(lp471
F1.0
aF1.0
aF0.0
aF1.0
aF1.0
aF1.0
aF1.0
aF1.0
aF1.0
aF1.0
aF1.0
aF1.0
aF1.0
aF1.0
aF1.0
aF0.0
aF0.0
aF0.0
aF1.0
aF0.0
aF0.0
aF1.0
aF0.0
aF0.0
aF1.0
aF1.0
aF1.0
aF1.0
aF1.0
aF1.0
aF1.0
aF0.0
aF0.0
aF1.0
aF0.0
aF0.0
atp472
a(I1
(lp473
F1.0
aF1.0
aF0.0
aF1.0
aF0.0
aF1.0
aF1.0
aF1.0
aF1.0
aF1.0
aF1.0
aF1.0
aF1.0
aF1.0
aF1.0
aF0.0
aF0.0
aF0.0
aF0.0
aF1.0
aF0.0
aF0.0
aF0.0
aF0.0
aF1.0
aF1.0
aF1.0
aF0.0
aF1.0
aF0.0
aF1.0
aF0.0
aF0.0
aF1.0
aF0.0
aF0.0
atp474
a(I0
(lp475
F1.0
aF1.0
aF1.0
aF1.0
aF1.0
aF1.0
aF1.0
aF1.0
aF0.0
aF1.0
aF0.0
aF0.0
aF0.0
aF1.0
aF1.0
aF0.0
aF1.0
aF1.0
aF1.0
aF0.0
aF0.0
aF1.0
aF0.0
aF1.0
aF0.0
aF1.0
aF0.0
aF1.0
aF0.0
aF1.0
aF1.0
aF0.0
aF0.0
aF0.0
aF0.0
aF0.0
atp476
a(I0
(lp477
F0.0
aF1.0
aF1.0
aF0.0
aF0.0
aF0.0
aF1.0
aF1.0
aF0.0
aF0.0
aF1.0
aF1.0
aF1.0
aF1.0
aF1.0
aF1.0
aF0.0
aF0.0
aF1.0
aF0.0
aF0.0
aF0.0
aF0.0
aF1.0
aF1.0
aF1.0
aF0.0
aF0.0
aF0.0
aF1.0
aF1.0
aF1.0
aF1.0
aF0.0
aF0.0
aF0.0
atp478
a(I0
(lp479
F1.0
aF1.0
aF0.0
aF1.0
aF0.0
aF0.0
aF0.0
aF1.0
aF1.0
aF1.0
aF1.0
aF1.0
aF1.0
aF1.0
aF1.0
aF1.0
aF0.0
aF0.0
aF1.0
aF0.0
aF0.0
aF1.0
aF1.0
aF0.0
aF0.0
aF1.0
aF1.0
aF1.0
aF1.0
aF0.0
aF0.0
aF0.0
aF1.0
aF0.0
aF0.0
aF0.0
atp480
a(I0
(lp481
F1.0
aF1.0
aF1.0
aF0.0
aF0.0
aF0.0
aF0.0
aF1.0
aF1.0
aF1.0
aF0.0
aF0.0
aF1.0
aF1.0
aF1.0
aF0.0
aF0.0
aF0.0
aF1.0
aF1.0
aF0.0
aF1.0
aF0.0
aF0.0
aF0.0
aF1.0
aF1.0
aF1.0
aF1.0
aF0.0
aF1.0
aF1.0
aF0.0
aF1.0
aF0.0
aF0.0
atp482
a(I0
(lp483
F1.0
aF1.0
aF1.0
aF1.0
aF0.0
aF0.0
aF0.0
aF1.0
aF1.0
aF0.0
aF1.0
aF1.0
aF1.0
aF1.0
aF1.0
aF0.0
aF1.0
aF0.0
aF1.0
aF1.0
aF0.0
aF1.0
aF0.0
aF1.0
aF1.0
aF1.0
aF1.0
aF1.0
aF1.0
aF1.0
aF0.0
aF0.0
aF0.0
aF1.0
aF1.0
aF0.0
atp484
a(I0
(lp485
F1.0
aF1.0
aF0.0
aF1.0
aF1.0
aF0.0
aF1.0
aF1.0
aF0.0
aF1.0
aF1.0
aF1.0
aF1.0
aF1.0
aF1.0
aF1.0
aF0.0
aF1.0
aF1.0
aF0.0
aF0.0
aF1.0
aF0.0
aF0.0
aF1.0
aF1.0
aF0.0
aF0.0
aF0.0
aF0.0
aF1.0
aF0.0
aF0.0
aF1.0
aF0.0
aF0.0
atp486
a(I0
(lp487
F1.0
aF1.0
aF1.0
aF0.0
aF1.0
aF1.0
aF1.0
aF0.0
aF1.0
aF0.0
aF0.0
aF1.0
aF1.0
aF0.0
aF1.0
aF0.0
aF1.0
aF1.0
aF1.0
aF0.0
aF0.0
aF1.0
aF0.0
aF1.0
aF1.0
aF1.0
aF1.0
aF0.0
aF0.0
aF0.0
aF1.0
aF1.0
aF0.0
aF0.0
aF0.0
aF0.0
atp488
a(I0
g487
tp489
a(I0
(lp490
F0.0
aF1.0
aF0.0
aF1.0
aF0.0
aF0.0
aF1.0
aF0.0
aF1.0
aF0.0
aF0.0
aF1.0
aF1.0
aF1.0
aF1.0
aF1.0
aF0.0
aF1.0
aF1.0
aF0.0
aF0.0
aF1.0
aF0.0
aF0.0
aF0.0
aF0.0
aF1.0
aF1.0
aF1.0
aF0.0
aF0.0
aF0.0
aF0.0
aF1.0
aF1.0
aF0.0
atp491
a(I0
(lp492
F1.0
aF1.0
aF1.0
aF1.0
aF0.0
aF0.0
aF1.0
aF0.0
aF1.0
aF1.0
aF1.0
aF1.0
aF1.0
aF1.0
aF1.0
aF1.0
aF0.0
aF0.0
aF1.0
aF0.0
aF1.0
aF0.0
aF0.0
aF1.0
aF0.0
aF1.0
aF0.0
aF1.0
aF1.0
aF1.0
aF1.0
aF1.0
aF1.0
aF0.0
aF0.0
aF0.0
atp493
a(I1
(lp494
F1.0
aF1.0
aF1.0
aF1.0
aF0.0
aF0.0
aF1.0
aF0.0
aF1.0
aF1.0
aF1.0
aF1.0
aF1.0
aF1.0
aF1.0
aF1.0
aF1.0
aF0.0
aF1.0
aF0.0
aF0.0
aF1.0
aF1.0
aF1.0
aF1.0
aF1.0
aF1.0
aF1.0
aF1.0
aF0.0
aF1.0
aF0.0
aF0.0
aF0.0
aF1.0
aF1.0
atp495
a(I0
(lp496
F0.0
aF1.0
aF1.0
aF1.0
aF0.0
aF0.0
aF1.0
aF0.0
aF1.0
aF1.0
aF0.0
aF0.0
aF1.0
aF1.0
aF1.0
aF1.0
aF0.0
aF0.0
aF1.0
aF1.0
aF0.0
aF1.0
aF0.0
aF1.0
aF1.0
aF1.0
aF1.0
aF0.0
aF0.0
aF1.0
aF1.0
aF0.0
aF0.0
aF0.0
aF0.0
aF1.0
atp497
a(I1
g496
tp498
a(I1
(lp499
F1.0
aF1.0
aF1.0
aF1.0
aF0.0
aF0.0
aF1.0
aF1.0
aF1.0
aF0.0
aF1.0
aF0.0
aF1.0
aF1.0
aF1.0
aF1.0
aF1.0
aF0.0
aF1.0
aF0.0
aF0.0
aF1.0
aF1.0
aF1.0
aF0.0
aF0.0
aF1.0
aF1.0
aF1.0
aF1.0
aF0.0
aF0.0
aF0.0
aF0.0
aF0.0
aF0.0
atp500
a(I1
g496
tp501
a(I1
g499
tp502
a(I1
(lp503
F1.0
aF0.0
aF1.0
aF1.0
aF1.0
aF1.0
aF1.0
aF1.0
aF1.0
aF1.0
aF1.0
aF1.0
aF1.0
aF1.0
aF1.0
aF0.0
aF0.0
aF0.0
aF1.0
aF0.0
aF0.0
aF0.0
aF0.0
aF1.0
aF1.0
aF1.0
aF0.0
aF1.0
aF0.0
aF1.0
aF1.0
aF1.0
aF0.0
aF1.0
aF0.0
aF0.0
atp504
a(I0
g496
tp505
a(I0
g499
tp506
a(I0
g503
tp507
a(I0
(lp508
F1.0
aF1.0
aF0.0
aF1.0
aF0.0
aF0.0
aF1.0
aF0.0
aF1.0
aF1.0
aF1.0
aF1.0
aF1.0
aF1.0
aF1.0
aF0.0
aF0.0
aF0.0
aF1.0
aF0.0
aF0.0
aF1.0
aF0.0
aF0.0
aF0.0
aF1.0
aF1.0
aF1.0
aF1.0
aF1.0
aF1.0
aF0.0
aF0.0
aF1.0
aF0.0
aF0.0
atp509
a(I0
g496
tp510
a(I0
g499
tp511
a(I0
g503
tp512
a(I0
g508
tp513
a(I0
(lp514
F1.0
aF1.0
aF1.0
aF1.0
aF0.0
aF0.0
aF1.0
aF1.0
aF1.0
aF0.0
aF1.0
aF1.0
aF1.0
aF1.0
aF1.0
aF0.0
aF1.0
aF0.0
aF1.0
aF1.0
aF1.0
aF1.0
aF1.0
aF1.0
aF0.0
aF1.0
aF0.0
aF1.0
aF1.0
aF1.0
aF0.0
aF1.0
aF0.0
aF1.0
aF1.0
aF1.0
atp515
a(I0
(lp516
F1.0
aF1.0
aF1.0
aF1.0
aF1.0
aF1.0
aF1.0
aF1.0
aF1.0
aF1.0
aF1.0
aF1.0
aF1.0
aF1.0
aF0.0
aF0.0
aF0.0
aF0.0
aF0.0
aF0.0
aF0.0
aF1.0
aF1.0
aF0.0
aF0.0
aF0.0
aF0.0
aF1.0
aF0.0
aF0.0
aF1.0
aF1.0
aF1.0
aF1.0
aF0.0
aF0.0
atp517
a(I0
g516
tp518
a(I0
(lp519
F1.0
aF1.0
aF1.0
aF1.0
aF1.0
aF0.0
aF1.0
aF0.0
aF1.0
aF1.0
aF1.0
aF1.0
aF0.0
aF1.0
aF1.0
aF0.0
aF0.0
aF0.0
aF1.0
aF1.0
aF1.0
aF1.0
aF0.0
aF0.0
aF1.0
aF1.0
aF1.0
aF1.0
aF1.0
aF0.0
aF1.0
aF0.0
aF0.0
aF1.0
aF0.0
aF0.0
atp520
a(I0
(lp521
F1.0
aF0.0
aF0.0
aF1.0
aF1.0
aF1.0
aF0.0
aF1.0
aF1.0
aF0.0
aF0.0
aF0.0
aF1.0
aF1.0
aF1.0
aF1.0
aF1.0
aF0.0
aF1.0
aF0.0
aF1.0
aF0.0
aF1.0
aF1.0
aF0.0
aF1.0
aF1.0
aF0.0
aF1.0
aF1.0
aF1.0
aF0.0
aF0.0
aF0.0
aF1.0
aF0.0
atp522
a(I0
g521
tp523
a(I0
(lp524
F1.0
aF1.0
aF1.0
aF0.0
aF0.0
aF0.0
aF1.0
aF1.0
aF0.0
aF0.0
aF0.0
aF0.0
aF1.0
aF1.0
aF1.0
aF1.0
aF0.0
aF1.0
aF1.0
aF1.0
aF1.0
aF0.0
aF1.0
aF1.0
aF1.0
aF0.0
aF0.0
aF0.0
aF1.0
aF1.0
aF0.0
aF0.0
aF0.0
aF0.0
aF0.0
aF1.0
atp525
a(I0
(lp526
F1.0
aF0.0
aF1.0
aF0.0
aF1.0
aF0.0
aF1.0
aF1.0
aF1.0
aF1.0
aF1.0
aF1.0
aF1.0
aF1.0
aF1.0
aF1.0
aF1.0
aF0.0
aF1.0
aF0.0
aF0.0
aF1.0
aF0.0
aF0.0
aF0.0
aF1.0
aF0.0
aF1.0
aF0.0
aF0.0
aF0.0
aF0.0
aF0.0
aF1.0
aF0.0
aF0.0
atp527
a(I1
(lp528
F1.0
aF1.0
aF1.0
aF1.0
aF0.0
aF1.0
aF1.0
aF1.0
aF1.0
aF1.0
aF1.0
aF1.0
aF0.0
aF0.0
aF1.0
aF0.0
aF1.0
aF0.0
aF1.0
aF0.0
aF0.0
aF1.0
aF0.0
aF0.0
aF1.0
aF1.0
aF1.0
aF0.0
aF0.0
aF1.0
aF1.0
aF0.0
aF0.0
aF1.0
aF0.0
aF1.0
atp529
a(I0
(lp530
F1.0
aF1.0
aF0.0
aF1.0
aF0.0
aF0.0
aF0.0
aF1.0
aF1.0
aF1.0
aF0.0
aF0.0
aF1.0
aF1.0
aF0.0
aF0.0
aF0.0
aF0.0
aF1.0
aF1.0
aF0.0
aF1.0
aF0.0
aF0.0
aF1.0
aF1.0
aF1.0
aF1.0
aF0.0
aF1.0
aF1.0
aF0.0
aF0.0
aF1.0
aF0.0
aF0.0
atp531
a(I0
(lp532
F1.0
aF1.0
aF0.0
aF0.0
aF0.0
aF0.0
aF1.0
aF1.0
aF1.0
aF0.0
aF0.0
aF1.0
aF0.0
aF0.0
aF1.0
aF1.0
aF0.0
aF0.0
aF1.0
aF0.0
aF0.0
aF1.0
aF0.0
aF0.0
aF1.0
aF1.0
aF1.0
aF0.0
aF0.0
aF1.0
aF1.0
aF0.0
aF0.0
aF1.0
aF0.0
aF0.0
atp533
a(I0
(lp534
F0.0
aF1.0
aF1.0
aF1.0
aF1.0
aF0.0
aF1.0
aF1.0
aF1.0
aF0.0
aF1.0
aF1.0
aF1.0
aF0.0
aF1.0
aF1.0
aF0.0
aF0.0
aF1.0
aF1.0
aF1.0
aF1.0
aF0.0
aF1.0
aF1.0
aF1.0
aF0.0
aF1.0
aF0.0
aF1.0
aF1.0
aF0.0
aF0.0
aF1.0
aF0.0
aF1.0
atp535
a(I0
g534
tp536
a(I0
(lp537
F1.0
aF1.0
aF1.0
aF0.0
aF0.0
aF1.0
aF0.0
aF0.0
aF1.0
aF0.0
aF0.0
aF0.0
aF1.0
aF1.0
aF1.0
aF1.0
aF0.0
aF0.0
aF0.0
aF1.0
aF0.0
aF0.0
aF1.0
aF1.0
aF1.0
aF0.0
aF0.0
aF0.0
aF1.0
aF1.0
aF0.0
aF0.0
aF0.0
aF1.0
aF0.0
aF0.0
atp538
a(I0
g534
tp539
a(I0
g537
tp540
a(I0
(lp541
F1.0
aF1.0
aF1.0
aF1.0
aF0.0
aF0.0
aF1.0
aF1.0
aF1.0
aF0.0
aF0.0
aF1.0
aF0.0
aF0.0
aF0.0
aF1.0
aF0.0
aF0.0
aF0.0
aF0.0
aF0.0
aF1.0
aF0.0
aF0.0
aF0.0
aF1.0
aF0.0
aF1.0
aF1.0
aF1.0
aF1.0
aF0.0
aF0.0
aF1.0
aF1.0
aF0.0
atp542
a(I0
(lp543
F1.0
aF1.0
aF0.0
aF0.0
aF1.0
aF1.0
aF0.0
aF1.0
aF1.0
aF1.0
aF1.0
aF0.0
aF0.0
aF1.0
aF1.0
aF0.0
aF0.0
aF0.0
aF1.0
aF0.0
aF0.0
aF1.0
aF1.0
aF1.0
aF1.0
aF0.0
aF1.0
aF0.0
aF0.0
aF0.0
aF0.0
aF0.0
aF0.0
aF1.0
aF0.0
aF0.0
atp544
a(I0
(lp545
F1.0
aF1.0
aF1.0
aF1.0
aF0.0
aF0.0
aF0.0
aF1.0
aF1.0
aF1.0
aF0.0
aF1.0
aF0.0
aF1.0
aF0.0
aF0.0
aF0.0
aF1.0
aF1.0
aF0.0
aF0.0
aF1.0
aF1.0
aF1.0
aF1.0
aF1.0
aF1.0
aF1.0
aF1.0
aF1.0
aF1.0
aF0.0
aF0.0
aF1.0
aF1.0
aF1.0
atp546
a(I0
(lp547
F1.0
aF1.0
aF1.0
aF1.0
aF0.0
aF0.0
aF0.0
aF1.0
aF0.0
aF1.0
aF1.0
aF1.0
aF0.0
aF1.0
aF1.0
aF1.0
aF0.0
aF0.0
aF1.0
aF1.0
aF0.0
aF0.0
aF1.0
aF1.0
aF1.0
aF1.0
aF0.0
aF0.0
aF1.0
aF0.0
aF1.0
aF0.0
aF0.0
aF0.0
aF0.0
aF0.0
atp548
a(I1
(lp549
F1.0
aF1.0
aF1.0
aF0.0
aF0.0
aF0.0
aF1.0
aF1.0
aF1.0
aF0.0
aF1.0
aF1.0
aF1.0
aF1.0
aF0.0
aF1.0
aF1.0
aF1.0
aF0.0
aF0.0
aF0.0
aF1.0
aF1.0
aF1.0
aF1.0
aF1.0
aF1.0
aF1.0
aF1.0
aF0.0
aF0.0
aF0.0
aF0.0
aF0.0
aF1.0
aF0.0
atp550
a(I0
g549
tp551
a(I0
(lp552
F1.0
aF1.0
aF1.0
aF0.0
aF0.0
aF0.0
aF0.0
aF0.0
aF1.0
aF0.0
aF1.0
aF1.0
aF1.0
aF1.0
aF1.0
aF1.0
aF1.0
aF0.0
aF1.0
aF1.0
aF1.0
aF1.0
aF1.0
aF0.0
aF1.0
aF1.0
aF1.0
aF0.0
aF1.0
aF1.0
aF0.0
aF0.0
aF0.0
aF1.0
aF0.0
aF0.0
atp553
a(I0
(lp554
F0.0
aF1.0
aF1.0
aF1.0
aF0.0
aF0.0
aF0.0
aF1.0
aF1.0
aF1.0
aF1.0
aF1.0
aF1.0
aF1.0
aF1.0
aF0.0
aF0.0
aF1.0
aF1.0
aF0.0
aF0.0
aF0.0
aF0.0
aF1.0
aF1.0
aF1.0
aF1.0
aF1.0
aF0.0
aF1.0
aF0.0
aF1.0
aF0.0
aF0.0
aF0.0
aF0.0
atp555
a(I0
g554
tp556
a(I0
(lp557
F0.0
aF0.0
aF1.0
aF1.0
aF1.0
aF1.0
aF1.0
aF1.0
aF1.0
aF1.0
aF1.0
aF1.0
aF0.0
aF1.0
aF1.0
aF0.0
aF0.0
aF0.0
aF1.0
aF0.0
aF0.0
aF1.0
aF0.0
aF1.0
aF1.0
aF1.0
aF1.0
aF0.0
aF1.0
aF0.0
aF0.0
aF0.0
aF1.0
aF0.0
aF1.0
aF0.0
atp558
a(I0
(lp559
F0.0
aF1.0
aF1.0
aF1.0
aF0.0
aF0.0
aF0.0
aF0.0
aF0.0
aF1.0
aF1.0
aF1.0
aF1.0
aF1.0
aF0.0
aF1.0
aF1.0
aF1.0
aF1.0
aF1.0
aF0.0
aF1.0
aF1.0
aF1.0
aF0.0
aF0.0
aF0.0
aF0.0
aF1.0
aF0.0
aF1.0
aF1.0
aF0.0
aF0.0
aF1.0
aF0.0
atp560
a(I0
(lp561
F0.0
aF0.0
aF1.0
aF1.0
aF1.0
aF1.0
aF1.0
aF0.0
aF1.0
aF0.0
aF1.0
aF1.0
aF1.0
aF1.0
aF1.0
aF0.0
aF0.0
aF1.0
aF1.0
aF1.0
aF1.0
aF1.0
aF0.0
aF0.0
aF1.0
aF1.0
aF1.0
aF1.0
aF1.0
aF1.0
aF0.0
aF0.0
aF0.0
aF1.0
aF0.0
aF1.0
atp562
a(I0
(lp563
F1.0
aF0.0
aF1.0
aF1.0
aF0.0
aF0.0
aF1.0
aF1.0
aF1.0
aF0.0
aF0.0
aF0.0
aF1.0
aF0.0
aF1.0
aF1.0
aF1.0
aF0.0
aF0.0
aF1.0
aF1.0
aF1.0
aF0.0
aF1.0
aF0.0
aF1.0
aF1.0
aF0.0
aF0.0
aF0.0
aF1.0
aF1.0
aF0.0
aF1.0
aF0.0
aF0.0
atp564
a(I0
(lp565
F0.0
aF0.0
aF1.0
aF0.0
aF0.0
aF1.0
aF1.0
aF1.0
aF1.0
aF0.0
aF0.0
aF0.0
aF1.0
aF1.0
aF0.0
aF1.0
aF0.0
aF1.0
aF1.0
aF1.0
aF0.0
aF1.0
aF0.0
aF1.0
aF1.0
aF1.0
aF0.0
aF1.0
aF0.0
aF1.0
aF1.0
aF0.0
aF0.0
aF1.0
aF0.0
aF0.0
atp566
a(I1
g565
tp567
a(I1
(lp568
F1.0
aF1.0
aF1.0
aF1.0
aF0.0
aF0.0
aF0.0
aF0.0
aF1.0
aF1.0
aF1.0
aF0.0
aF1.0
aF1.0
aF1.0
aF0.0
aF0.0
aF0.0
aF1.0
aF0.0
aF0.0
aF1.0
aF0.0
aF0.0
aF0.0
aF0.0
aF0.0
aF1.0
aF0.0
aF1.0
aF1.0
aF1.0
aF0.0
aF0.0
aF1.0
aF0.0
atp569
a(I0
(lp570
F1.0
aF1.0
aF1.0
aF1.0
aF1.0
aF1.0
aF1.0
aF0.0
aF1.0
aF0.0
aF0.0
aF1.0
aF1.0
aF0.0
aF1.0
aF1.0
aF0.0
aF0.0
aF1.0
aF1.0
aF1.0
aF1.0
aF0.0
aF1.0
aF1.0
aF1.0
aF1.0
aF1.0
aF0.0
aF1.0
aF1.0
aF0.0
aF0.0
aF0.0
aF0.0
aF0.0
atp571
a(I0
(lp572
F0.0
aF1.0
aF1.0
aF1.0
aF1.0
aF1.0
aF1.0
aF1.0
aF1.0
aF0.0
aF0.0
aF1.0
aF1.0
aF1.0
aF0.0
aF0.0
aF0.0
aF0.0
aF1.0
aF1.0
aF0.0
aF1.0
aF1.0
aF0.0
aF0.0
aF1.0
aF1.0
aF1.0
aF1.0
aF1.0
aF0.0
aF1.0
aF0.0
aF1.0
aF0.0
aF0.0
atp573
a(I0
(lp574
F1.0
aF1.0
aF1.0
aF0.0
aF0.0
aF0.0
aF1.0
aF0.0
aF0.0
aF1.0
aF1.0
aF1.0
aF1.0
aF0.0
aF1.0
aF1.0
aF0.0
aF0.0
aF1.0
aF0.0
aF1.0
aF1.0
aF0.0
aF1.0
aF1.0
aF0.0
aF1.0
aF0.0
aF0.0
aF1.0
aF1.0
aF0.0
aF0.0
aF1.0
aF0.0
aF0.0
atp575
a(I1
(lp576
F1.0
aF1.0
aF1.0
aF1.0
aF0.0
aF0.0
aF1.0
aF1.0
aF1.0
aF1.0
aF1.0
aF1.0
aF0.0
aF0.0
aF1.0
aF1.0
aF0.0
aF0.0
aF0.0
aF0.0
aF1.0
aF1.0
aF1.0
aF0.0
aF0.0
aF1.0
aF1.0
aF0.0
aF1.0
aF0.0
aF1.0
aF1.0
aF0.0
aF1.0
aF1.0
aF0.0
atp577
a(I0
(lp578
F1.0
aF1.0
aF1.0
aF1.0
aF0.0
aF1.0
aF1.0
aF1.0
aF1.0
aF1.0
aF1.0
aF1.0
aF1.0
aF0.0
aF1.0
aF0.0
aF0.0
aF0.0
aF1.0
aF0.0
aF0.0
aF1.0
aF0.0
aF1.0
aF0.0
aF1.0
aF1.0
aF1.0
aF1.0
aF1.0
aF1.0
aF1.0
aF0.0
aF1.0
aF1.0
aF0.0
atp579
a(I0
(lp580
F1.0
aF0.0
aF1.0
aF0.0
aF1.0
aF0.0
aF1.0
aF1.0
aF1.0
aF0.0
aF1.0
aF1.0
aF1.0
aF1.0
aF1.0
aF1.0
aF0.0
aF0.0
aF1.0
aF1.0
aF0.0
aF0.0
aF1.0
aF1.0
aF1.0
aF1.0
aF1.0
aF0.0
aF1.0
aF0.0
aF1.0
aF0.0
aF0.0
aF0.0
aF0.0
aF0.0
atp581
a(I0
(lp582
F1.0
aF1.0
aF1.0
aF1.0
aF1.0
aF0.0
aF1.0
aF1.0
aF1.0
aF1.0
aF1.0
aF0.0
aF0.0
aF1.0
aF0.0
aF1.0
aF1.0
aF1.0
aF1.0
aF0.0
aF0.0
aF0.0
aF0.0
aF0.0
aF1.0
aF1.0
aF1.0
aF0.0
aF1.0
aF0.0
aF1.0
aF0.0
aF0.0
aF1.0
aF1.0
aF0.0
atp583
a(I0
(lp584
F1.0
aF1.0
aF1.0
aF1.0
aF0.0
aF1.0
aF1.0
aF1.0
aF1.0
aF0.0
aF0.0
aF0.0
aF1.0
aF1.0
aF1.0
aF0.0
aF1.0
aF0.0
aF0.0
aF0.0
aF0.0
aF1.0
aF0.0
aF0.0
aF1.0
aF0.0
aF0.0
aF0.0
aF1.0
aF1.0
aF0.0
aF1.0
aF0.0
aF1.0
aF1.0
aF0.0
atp585
a(I0
g584
tp586
a(I0
(lp587
F1.0
aF1.0
aF1.0
aF1.0
aF0.0
aF1.0
aF1.0
aF1.0
aF1.0
aF1.0
aF1.0
aF0.0
aF1.0
aF0.0
aF1.0
aF1.0
aF0.0
aF0.0
aF1.0
aF1.0
aF1.0
aF1.0
aF0.0
aF0.0
aF1.0
aF1.0
aF1.0
aF1.0
aF1.0
aF0.0
aF1.0
aF0.0
aF0.0
aF1.0
aF1.0
aF1.0
atp588
a(I0
g584
tp589
a(I0
g587
tp590
a(I0
(lp591
F1.0
aF1.0
aF1.0
aF1.0
aF0.0
aF0.0
aF1.0
aF1.0
aF1.0
aF1.0
aF1.0
aF0.0
aF1.0
aF1.0
aF1.0
aF1.0
aF0.0
aF0.0
aF1.0
aF0.0
aF1.0
aF1.0
aF0.0
aF1.0
aF1.0
aF1.0
aF1.0
aF0.0
aF0.0
aF1.0
aF0.0
aF0.0
aF0.0
aF1.0
aF0.0
aF0.0
atp592
a(I0
(lp593
F1.0
aF1.0
aF0.0
aF1.0
aF0.0
aF0.0
aF1.0
aF0.0
aF1.0
aF1.0
aF0.0
aF1.0
aF0.0
aF1.0
aF1.0
aF1.0
aF0.0
aF0.0
aF0.0
aF0.0
aF0.0
aF1.0
aF0.0
aF1.0
aF1.0
aF1.0
aF1.0
aF0.0
aF1.0
aF1.0
aF1.0
aF0.0
aF0.0
aF0.0
aF1.0
aF0.0
atp594
a(I0
g593
tp595
a(I0
(lp596
F1.0
aF1.0
aF1.0
aF1.0
aF0.0
aF1.0
aF0.0
aF1.0
aF1.0
aF0.0
aF1.0
aF1.0
aF1.0
aF1.0
aF1.0
aF1.0
aF1.0
aF0.0
aF0.0
aF0.0
aF1.0
aF1.0
aF0.0
aF0.0
aF0.0
aF1.0
aF1.0
aF0.0
aF1.0
aF0.0
aF0.0
aF0.0
aF0.0
aF1.0
aF0.0
aF0.0
atp597
a(I0
g593
tp598
a(I0
g596
tp599
a(I0
(lp600
F1.0
aF1.0
aF1.0
aF1.0
aF0.0
aF0.0
aF1.0
aF1.0
aF1.0
aF0.0
aF0.0
aF1.0
aF1.0
aF1.0
aF1.0
aF1.0
aF0.0
aF0.0
aF1.0
aF1.0
aF0.0
aF1.0
aF0.0
aF0.0
aF1.0
aF1.0
aF1.0
aF1.0
aF1.0
aF1.0
aF1.0
aF1.0
aF1.0
aF1.0
aF0.0
aF0.0
atp601
a(I0
(lp602
F1.0
aF1.0
aF1.0
aF1.0
aF0.0
aF0.0
aF1.0
aF0.0
aF1.0
aF1.0
aF1.0
aF1.0
aF1.0
aF1.0
aF0.0
aF1.0
aF1.0
aF0.0
aF0.0
aF0.0
aF1.0
aF1.0
aF1.0
aF1.0
aF1.0
aF1.0
aF1.0
aF0.0
aF1.0
aF1.0
aF0.0
aF0.0
aF0.0
aF1.0
aF1.0
aF0.0
atp603
a(I0
(lp604
F0.0
aF1.0
aF1.0
aF0.0
aF0.0
aF0.0
aF1.0
aF1.0
aF1.0
aF1.0
aF1.0
aF1.0
aF1.0
aF1.0
aF1.0
aF0.0
aF0.0
aF0.0
aF1.0
aF1.0
aF0.0
aF1.0
aF0.0
aF0.0
aF1.0
aF1.0
aF1.0
aF1.0
aF0.0
aF1.0
aF0.0
aF0.0
aF0.0
aF1.0
aF0.0
aF1.0
atp605
a(I1
(lp606
F1.0
aF1.0
aF1.0
aF1.0
aF0.0
aF0.0
aF1.0
aF1.0
aF1.0
aF0.0
aF1.0
aF1.0
aF1.0
aF1.0
aF1.0
aF1.0
aF1.0
aF0.0
aF1.0
aF0.0
aF1.0
aF1.0
aF1.0
aF0.0
aF1.0
aF1.0
aF0.0
aF0.0
aF1.0
aF0.0
aF1.0
aF0.0
aF0.0
aF1.0
aF0.0
aF0.0
atp607
a(I0
g606
tp608
a(I0
(lp609
F1.0
aF1.0
aF1.0
aF1.0
aF0.0
aF0.0
aF1.0
aF1.0
aF1.0
aF0.0
aF0.0
aF1.0
aF1.0
aF1.0
aF0.0
aF1.0
aF1.0
aF0.0
aF0.0
aF0.0
aF0.0
aF0.0
aF0.0
aF0.0
aF1.0
aF1.0
aF1.0
aF1.0
aF0.0
aF1.0
aF1.0
aF0.0
aF0.0
aF1.0
aF0.0
aF0.0
atp610
a(I0
g606
tp611
a(I0
g609
tp612
a(I0
(lp613
F1.0
aF1.0
aF1.0
aF0.0
aF0.0
aF0.0
aF1.0
aF1.0
aF1.0
aF0.0
aF1.0
aF1.0
aF1.0
aF1.0
aF1.0
aF1.0
aF0.0
aF0.0
aF1.0
aF0.0
aF0.0
aF1.0
aF1.0
aF1.0
aF1.0
aF1.0
aF1.0
aF1.0
aF1.0
aF1.0
aF0.0
aF0.0
aF0.0
aF1.0
aF1.0
aF0.0
atp614
a(I0
(lp615
F1.0
aF0.0
aF0.0
aF0.0
aF0.0
aF0.0
aF1.0
aF1.0
aF0.0
aF1.0
aF1.0
aF0.0
aF0.0
aF1.0
aF0.0
aF0.0
aF0.0
aF0.0
aF1.0
aF1.0
aF0.0
aF1.0
aF0.0
aF1.0
aF1.0
aF1.0
aF1.0
aF1.0
aF0.0
aF1.0
aF1.0
aF0.0
aF0.0
aF1.0
aF0.0
aF0.0
atp616
a(I0
(lp617
F1.0
aF0.0
aF1.0
aF0.0
aF1.0
aF0.0
aF1.0
aF1.0
aF0.0
aF1.0
aF1.0
aF1.0
aF1.0
aF1.0
aF0.0
aF1.0
aF0.0
aF0.0
aF1.0
aF1.0
aF1.0
aF1.0
aF1.0
aF0.0
aF1.0
aF1.0
aF0.0
aF1.0
aF1.0
aF1.0
aF1.0
aF1.0
aF0.0
aF0.0
aF0.0
aF0.0
atp618
a(I0
(lp619
F0.0
aF1.0
aF0.0
aF1.0
aF1.0
aF1.0
aF1.0
aF1.0
aF1.0
aF1.0
aF1.0
aF0.0
aF1.0
aF1.0
aF1.0
aF0.0
aF0.0
aF0.0
aF1.0
aF0.0
aF0.0
aF1.0
aF1.0
aF0.0
aF1.0
aF1.0
aF1.0
aF1.0
aF1.0
aF0.0
aF1.0
aF0.0
aF0.0
aF0.0
aF0.0
aF0.0
atp620
a(I0
(lp621
F1.0
aF1.0
aF0.0
aF1.0
aF1.0
aF0.0
aF1.0
aF1.0
aF1.0
aF1.0
aF0.0
aF0.0
aF1.0
aF1.0
aF0.0
aF1.0
aF1.0
aF0.0
aF1.0
aF1.0
aF1.0
aF1.0
aF0.0
aF0.0
aF0.0
aF1.0
aF1.0
aF0.0
aF0.0
aF1.0
aF1.0
aF0.0
aF0.0
aF0.0
aF1.0
aF0.0
atp622
a(I0
g621
tp623
a(I0
(lp624
F1.0
aF1.0
aF1.0
aF1.0
aF1.0
aF1.0
aF0.0
aF1.0
aF0.0
aF0.0
aF1.0
aF1.0
aF1.0
aF1.0
aF1.0
aF1.0
aF0.0
aF0.0
aF1.0
aF0.0
aF0.0
aF1.0
aF0.0
aF1.0
aF0.0
aF1.0
aF0.0
aF0.0
aF1.0
aF1.0
aF0.0
aF0.0
aF0.0
aF1.0
aF1.0
aF0.0
atp625
a(I0
(lp626
F1.0
aF0.0
aF1.0
aF1.0
aF0.0
aF0.0
aF1.0
aF1.0
aF1.0
aF0.0
aF1.0
aF1.0
aF1.0
aF1.0
aF0.0
aF1.0
aF1.0
aF1.0
aF0.0
aF0.0
aF0.0
aF1.0
aF0.0
aF0.0
aF0.0
aF0.0
aF0.0
aF1.0
aF0.0
aF1.0
aF0.0
aF0.0
aF0.0
aF0.0
aF0.0
aF0.0
atp627
a(I0
(lp628
F1.0
aF1.0
aF1.0
aF0.0
aF0.0
aF0.0
aF1.0
aF1.0
aF1.0
aF1.0
aF1.0
aF1.0
aF1.0
aF1.0
aF1.0
aF1.0
aF1.0
aF0.0
aF0.0
aF0.0
aF0.0
aF1.0
aF0.0
aF0.0
aF1.0
aF0.0
aF0.0
aF1.0
aF1.0
aF0.0
aF0.0
aF0.0
aF0.0
aF1.0
aF0.0
aF0.0
atp629
a(I0
(lp630
F1.0
aF0.0
aF0.0
aF0.0
aF0.0
aF0.0
aF0.0
aF1.0
aF1.0
aF0.0
aF0.0
aF1.0
aF1.0
aF1.0
aF1.0
aF0.0
aF0.0
aF0.0
aF0.0
aF0.0
aF1.0
aF0.0
aF1.0
aF0.0
aF0.0
aF0.0
aF0.0
aF0.0
aF0.0
aF1.0
aF0.0
aF0.0
aF1.0
aF1.0
aF0.0
aF0.0
atp631
a(I0
g630
tp632
a(I0
(lp633
F1.0
aF1.0
aF1.0
aF1.0
aF1.0
aF0.0
aF1.0
aF1.0
aF1.0
aF1.0
aF1.0
aF1.0
aF0.0
aF1.0
aF1.0
aF1.0
aF1.0
aF0.0
aF1.0
aF0.0
aF0.0
aF1.0
aF0.0
aF1.0
aF1.0
aF1.0
aF0.0
aF1.0
aF1.0
aF1.0
aF1.0
aF0.0
aF0.0
aF1.0
aF0.0
aF0.0
atp634
a(I0
(lp635
F1.0
aF1.0
aF1.0
aF0.0
aF0.0
aF0.0
aF0.0
aF0.0
aF0.0
aF1.0
aF1.0
aF1.0
aF0.0
aF1.0
aF1.0
aF1.0
aF1.0
aF1.0
aF1.0
aF1.0
aF0.0
aF1.0
aF0.0
aF1.0
aF0.0
aF1.0
aF0.0
aF0.0
aF1.0
aF1.0
aF0.0
aF0.0
aF0.0
aF0.0
aF1.0
aF0.0
atp636
a(I0
(lp637
F1.0
aF1.0
aF0.0
aF1.0
aF0.0
aF1.0
aF1.0
aF1.0
aF1.0
aF0.0
aF1.0
aF0.0
aF1.0
aF0.0
aF1.0
aF0.0
aF0.0
aF1.0
aF1.0
aF0.0
aF0.0
aF1.0
aF1.0
aF1.0
aF0.0
aF1.0
aF1.0
aF1.0
aF1.0
aF1.0
aF0.0
aF0.0
aF0.0
aF1.0
aF0.0
aF0.0
atp638
a(I0
(lp639
F0.0
aF1.0
aF1.0
aF1.0
aF0.0
aF0.0
aF1.0
aF1.0
aF1.0
aF0.0
aF1.0
aF1.0
aF1.0
aF1.0
aF1.0
aF0.0
aF0.0
aF0.0
aF0.0
aF0.0
aF0.0
aF1.0
aF0.0
aF1.0
aF0.0
aF0.0
aF1.0
aF1.0
aF0.0
aF0.0
aF1.0
aF0.0
aF0.0
aF0.0
aF0.0
aF0.0
atp640
a(I1
g639
tp641
a(I1
(lp642
F1.0
aF0.0
aF1.0
aF1.0
aF0.0
aF1.0
aF1.0
aF1.0
aF1.0
aF1.0
aF0.0
aF1.0
aF0.0
aF0.0
aF1.0
aF1.0
aF0.0
aF0.0
aF1.0
aF1.0
aF0.0
aF1.0
aF1.0
aF0.0
aF0.0
aF1.0
aF0.0
aF0.0
aF1.0
aF0.0
aF0.0
aF0.0
aF0.0
aF1.0
aF1.0
aF0.0
atp643
a(I0
(lp644
F1.0
aF1.0
aF1.0
aF1.0
aF0.0
aF0.0
aF1.0
aF1.0
aF0.0
aF1.0
aF1.0
aF1.0
aF1.0
aF1.0
aF1.0
aF1.0
aF1.0
aF0.0
aF0.0
aF0.0
aF1.0
aF1.0
aF0.0
aF0.0
aF0.0
aF0.0
aF0.0
aF0.0
aF1.0
aF0.0
aF0.0
aF0.0
aF1.0
aF0.0
aF0.0
aF0.0
atp645
a(I0
(lp646
F1.0
aF1.0
aF0.0
aF1.0
aF0.0
aF1.0
aF1.0
aF1.0
aF1.0
aF0.0
aF1.0
aF1.0
aF0.0
aF1.0
aF0.0
aF1.0
aF0.0
aF0.0
aF1.0
aF0.0
aF0.0
aF0.0
aF0.0
aF0.0
aF1.0
aF1.0
aF1.0
aF1.0
aF0.0
aF0.0
aF1.0
aF1.0
aF1.0
aF1.0
aF0.0
aF1.0
atp647
a(I0
(lp648
F1.0
aF1.0
aF1.0
aF1.0
aF0.0
aF1.0
aF1.0
aF0.0
aF1.0
aF1.0
aF1.0
aF1.0
aF0.0
aF1.0
aF1.0
aF1.0
aF1.0
aF1.0
aF1.0
aF1.0
aF1.0
aF1.0
aF0.0
aF1.0
aF1.0
aF1.0
aF1.0
aF1.0
aF0.0
aF1.0
aF0.0
aF0.0
aF0.0
aF1.0
aF0.0
aF1.0
atp649
a(I0
(lp650
F1.0
aF1.0
aF1.0
aF1.0
aF0.0
aF0.0
aF1.0
aF1.0
aF1.0
aF0.0
aF0.0
aF1.0
aF1.0
aF1.0
aF1.0
aF0.0
aF0.0
aF0.0
aF1.0
aF1.0
aF1.0
aF1.0
aF1.0
aF1.0
aF1.0
aF1.0
aF0.0
aF1.0
aF0.0
aF1.0
aF1.0
aF0.0
aF1.0
aF1.0
aF1.0
aF1.0
atp651
a(I0
(lp652
F1.0
aF1.0
aF0.0
aF0.0
aF0.0
aF0.0
aF1.0
aF1.0
aF0.0
aF1.0
aF0.0
aF0.0
aF1.0
aF0.0
aF0.0
aF0.0
aF1.0
aF1.0
aF1.0
aF0.0
aF1.0
aF1.0
aF0.0
aF1.0
aF0.0
aF1.0
aF1.0
aF1.0
aF0.0
aF1.0
aF0.0
aF0.0
aF0.0
aF1.0
aF1.0
aF0.0
atp653
a(I0
(lp654
F0.0
aF0.0
aF1.0
aF1.0
aF0.0
aF0.0
aF1.0
aF1.0
aF1.0
aF0.0
aF0.0
aF1.0
aF1.0
aF1.0
aF1.0
aF0.0
aF0.0
aF0.0
aF1.0
aF0.0
aF0.0
aF1.0
aF0.0
aF1.0
aF1.0
aF1.0
aF1.0
aF0.0
aF0.0
aF1.0
aF1.0
aF1.0
aF0.0
aF1.0
aF0.0
aF1.0
atp655
a(I0
(lp656
F1.0
aF1.0
aF0.0
aF1.0
aF1.0
aF1.0
aF1.0
aF1.0
aF1.0
aF1.0
aF1.0
aF1.0
aF1.0
aF1.0
aF1.0
aF1.0
aF0.0
aF0.0
aF1.0
aF1.0
aF0.0
aF1.0
aF0.0
aF1.0
aF1.0
aF1.0
aF0.0
aF0.0
aF0.0
aF0.0
aF1.0
aF0.0
aF0.0
aF0.0
aF1.0
aF0.0
atp657
a(I0
(lp658
F1.0
aF1.0
aF0.0
aF1.0
aF0.0
aF0.0
aF1.0
aF0.0
aF0.0
aF0.0
aF1.0
aF1.0
aF1.0
aF1.0
aF1.0
aF0.0
aF0.0
aF0.0
aF1.0
aF0.0
aF0.0
aF1.0
aF0.0
aF0.0
aF1.0
aF1.0
aF1.0
aF1.0
aF1.0
aF1.0
aF0.0
aF0.0
aF0.0
aF1.0
aF1.0
aF0.0
atp659
a(I0
(lp660
F1.0
aF0.0
aF0.0
aF1.0
aF1.0
aF1.0
aF0.0
aF0.0
aF1.0
aF0.0
aF1.0
aF0.0
aF1.0
aF1.0
aF1.0
aF1.0
aF1.0
aF0.0
aF1.0
aF1.0
aF0.0
aF1.0
aF1.0
aF1.0
aF1.0
aF0.0
aF1.0
aF0.0
aF0.0
aF1.0
aF1.0
aF0.0
aF0.0
aF0.0
aF0.0
aF0.0
atp661
a(I0
(lp662
F1.0
aF1.0
aF1.0
aF0.0
aF0.0
aF0.0
aF1.0
aF0.0
aF0.0
aF1.0
aF0.0
aF0.0
aF1.0
aF1.0
aF1.0
aF0.0
aF0.0
aF0.0
aF1.0
aF0.0
aF0.0
aF1.0
aF1.0
aF1.0
aF1.0
aF1.0
aF1.0
aF0.0
aF1.0
aF1.0
aF0.0
aF0.0
aF1.0
aF0.0
aF0.0
aF0.0
atp663
a(I0
(lp664
F1.0
aF1.0
aF1.0
aF1.0
aF1.0
aF1.0
aF1.0
aF1.0
aF0.0
aF1.0
aF1.0
aF1.0
aF1.0
aF1.0
aF1.0
aF0.0
aF0.0
aF0.0
aF0.0
aF1.0
aF0.0
aF1.0
aF1.0
aF0.0
aF1.0
aF1.0
aF1.0
aF0.0
aF1.0
aF1.0
aF0.0
aF0.0
aF0.0
aF0.0
aF0.0
aF0.0
atp665
a(I0
(lp666
F1.0
aF0.0
aF1.0
aF1.0
aF0.0
aF0.0
aF0.0
aF1.0
aF0.0
aF0.0
aF1.0
aF1.0
aF1.0
aF1.0
aF0.0
aF0.0
aF0.0
aF0.0
aF1.0
aF1.0
aF0.0
aF1.0
aF0.0
aF0.0
aF1.0
aF1.0
aF1.0
aF0.0
aF1.0
aF0.0
aF0.0
aF0.0
aF0.0
aF0.0
aF1.0
aF1.0
atp667
a(I1
(lp668
F0.0
aF0.0
aF1.0
aF1.0
aF0.0
aF0.0
aF1.0
aF1.0
aF1.0
aF1.0
aF1.0
aF0.0
aF1.0
aF1.0
aF0.0
aF0.0
aF0.0
aF0.0
aF0.0
aF0.0
aF0.0
aF1.0
aF0.0
aF0.0
aF1.0
aF1.0
aF0.0
aF1.0
aF1.0
aF1.0
aF0.0
aF0.0
aF0.0
aF1.0
aF0.0
aF0.0
atp669
a(I0
(lp670
F1.0
aF1.0
aF0.0
aF1.0
aF0.0
aF0.0
aF0.0
aF1.0
aF1.0
aF0.0
aF0.0
aF1.0
aF1.0
aF1.0
aF1.0
aF0.0
aF0.0
aF0.0
aF1.0
aF1.0
aF0.0
aF0.0
aF0.0
aF0.0
aF0.0
aF1.0
aF1.0
aF0.0
aF0.0
aF0.0
aF0.0
aF0.0
aF0.0
aF1.0
aF0.0
aF0.0
atp671
a(I1
g670
tp672
a(I1
(lp673
F1.0
aF0.0
aF1.0
aF0.0
aF0.0
aF1.0
aF0.0
aF1.0
aF1.0
aF0.0
aF0.0
aF0.0
aF1.0
aF1.0
aF1.0
aF1.0
aF0.0
aF0.0
aF0.0
aF0.0
aF0.0
aF1.0
aF0.0
aF0.0
aF0.0
aF1.0
aF1.0
aF1.0
aF0.0
aF0.0
aF0.0
aF0.0
aF1.0
aF0.0
aF0.0
aF0.0
atp674
a(I1
g670
tp675
a(I1
g673
tp676
a(I1
(lp677
F1.0
aF1.0
aF1.0
aF1.0
aF0.0
aF0.0
aF1.0
aF0.0
aF1.0
aF0.0
aF1.0
aF1.0
aF0.0
aF1.0
aF1.0
aF0.0
aF0.0
aF0.0
aF1.0
aF1.0
aF1.0
aF1.0
aF0.0
aF1.0
aF1.0
aF1.0
aF1.0
aF1.0
aF1.0
aF1.0
aF1.0
aF0.0
aF0.0
aF1.0
aF0.0
aF0.0
atp678
a(I0
g670
tp679
a(I0
g673
tp680
a(I0
g677
tp681
a(I0
(lp682
F1.0
aF0.0
aF1.0
aF0.0
aF0.0
aF1.0
aF0.0
aF0.0
aF1.0
aF1.0
aF1.0
aF1.0
aF1.0
aF1.0
aF1.0
aF1.0
aF0.0
aF0.0
aF0.0
aF1.0
aF0.0
aF1.0
aF0.0
aF1.0
aF1.0
aF1.0
aF1.0
aF1.0
aF1.0
aF1.0
aF1.0
aF1.0
aF0.0
aF1.0
aF0.0
aF0.0
atp683
a(I1
(lp684
F1.0
aF1.0
aF1.0
aF1.0
aF0.0
aF1.0
aF1.0
aF1.0
aF1.0
aF0.0
aF0.0
aF1.0
aF1.0
aF0.0
aF0.0
aF1.0
aF1.0
aF0.0
aF1.0
aF1.0
aF1.0
aF1.0
aF0.0
aF0.0
aF1.0
aF1.0
aF0.0
aF1.0
aF1.0
aF1.0
aF0.0
aF0.0
aF0.0
aF1.0
aF0.0
aF0.0
atp685
a(I0
(lp686
F0.0
aF1.0
aF1.0
aF1.0
aF0.0
aF0.0
aF1.0
aF1.0
aF1.0
aF0.0
aF1.0
aF1.0
aF1.0
aF1.0
aF1.0
aF1.0
aF0.0
aF0.0
aF0.0
aF0.0
aF0.0
aF0.0
aF1.0
aF0.0
aF0.0
aF1.0
aF0.0
aF0.0
aF0.0
aF0.0
aF1.0
aF0.0
aF0.0
aF0.0
aF0.0
aF0.0
atp687
a(I1
g686
tp688
a(I1
(lp689
F1.0
aF1.0
aF1.0
aF0.0
aF0.0
aF1.0
aF0.0
aF1.0
aF1.0
aF1.0
aF1.0
aF1.0
aF0.0
aF1.0
aF1.0
aF1.0
aF1.0
aF0.0
aF1.0
aF0.0
aF0.0
aF1.0
aF1.0
aF0.0
aF1.0
aF1.0
aF0.0
aF1.0
aF1.0
aF1.0
aF1.0
aF0.0
aF0.0
aF1.0
aF0.0
aF0.0
atp690
a(I0
g686
tp691
a(I0
g689
tp692
a(I0
(lp693
F1.0
aF1.0
aF1.0
aF1.0
aF0.0
aF1.0
aF1.0
aF1.0
aF1.0
aF1.0
aF1.0
aF1.0
aF1.0
aF1.0
aF1.0
aF1.0
aF1.0
aF0.0
aF1.0
aF1.0
aF0.0
aF1.0
aF0.0
aF1.0
aF1.0
aF1.0
aF1.0
aF0.0
aF1.0
aF1.0
aF1.0
aF1.0
aF0.0
aF1.0
aF1.0
aF0.0
atp694
a(I0
g686
tp695
a(I0
g689
tp696
a(I0
g693
tp697
a(I0
(lp698
F0.0
aF1.0
aF1.0
aF1.0
aF1.0
aF1.0
aF0.0
aF1.0
aF1.0
aF1.0
aF1.0
aF1.0
aF1.0
aF1.0
aF1.0
aF1.0
aF0.0
aF0.0
aF1.0
aF0.0
aF1.0
aF1.0
aF0.0
aF1.0
aF0.0
aF0.0
aF0.0
aF1.0
aF0.0
aF0.0
aF1.0
aF1.0
aF0.0
aF1.0
aF0.0
aF0.0
atp699
a(I0
g686
tp700
a(I0
g689
tp701
a(I0
g693
tp702
a(I0
g698
tp703
a(I0
(lp704
F0.0
aF1.0
aF0.0
aF1.0
aF0.0
aF0.0
aF1.0
aF1.0
aF1.0
aF0.0
aF0.0
aF1.0
aF1.0
aF1.0
aF1.0
aF1.0
aF0.0
aF0.0
aF0.0
aF1.0
aF0.0
aF1.0
aF0.0
aF1.0
aF0.0
aF0.0
aF1.0
aF1.0
aF0.0
aF1.0
aF0.0
aF0.0
aF0.0
aF1.0
aF0.0
aF1.0
atp705
a(I1
(lp706
F1.0
aF1.0
aF1.0
aF1.0
aF0.0
aF0.0
aF1.0
aF1.0
aF1.0
aF1.0
aF1.0
aF1.0
aF1.0
aF1.0
aF1.0
aF1.0
aF0.0
aF0.0
aF1.0
aF1.0
aF1.0
aF0.0
aF0.0
aF0.0
aF0.0
aF0.0
aF1.0
aF0.0
aF0.0
aF1.0
aF1.0
aF0.0
aF0.0
aF1.0
aF0.0
aF1.0
atp707
a(I0
g706
tp708
a(I0
(lp709
F1.0
aF0.0
aF0.0
aF1.0
aF0.0
aF0.0
aF1.0
aF1.0
aF1.0
aF0.0
aF1.0
aF1.0
aF0.0
aF1.0
aF1.0
aF1.0
aF0.0
aF1.0
aF1.0
aF1.0
aF1.0
aF1.0
aF0.0
aF0.0
aF1.0
aF1.0
aF1.0
aF0.0
aF0.0
aF1.0
aF1.0
aF1.0
aF0.0
aF0.0
aF0.0
aF0.0
atp710
a(I0
g706
tp711
a(I0
g709
tp712
a(I0
(lp713
F0.0
aF1.0
aF1.0
aF1.0
aF1.0
aF1.0
aF1.0
aF1.0
aF1.0
aF1.0
aF1.0
aF0.0
aF0.0
aF1.0
aF1.0
aF1.0
aF1.0
aF0.0
aF1.0
aF0.0
aF1.0
aF1.0
aF0.0
aF0.0
aF0.0
aF1.0
aF1.0
aF1.0
aF0.0
aF0.0
aF1.0
aF1.0
aF0.0
aF0.0
aF1.0
aF0.0
atp714
a(I0
(lp715
F1.0
aF1.0
aF1.0
aF1.0
aF1.0
aF1.0
aF1.0
aF0.0
aF1.0
aF0.0
aF0.0
aF1.0
aF1.0
aF1.0
aF1.0
aF1.0
aF1.0
aF1.0
aF0.0
aF0.0
aF0.0
aF1.0
aF0.0
aF0.0
aF1.0
aF1.0
aF0.0
aF1.0
aF0.0
aF1.0
aF0.0
aF0.0
aF0.0
aF1.0
aF0.0
aF0.0
atp716
a(I0
(lp717
F1.0
aF1.0
aF0.0
aF0.0
aF0.0
aF0.0
aF1.0
aF1.0
aF1.0
aF1.0
aF0.0
aF1.0
aF0.0
aF1.0
aF1.0
aF1.0
aF0.0
aF0.0
aF1.0
aF0.0
aF0.0
aF0.0
aF1.0
aF0.0
aF1.0
aF0.0
aF0.0
aF0.0
aF1.0
aF0.0
aF0.0
aF0.0
aF0.0
aF0.0
aF0.0
aF0.0
atp718
a(I1
g717
tp719
a(I1
(lp720
F1.0
aF0.0
aF1.0
aF1.0
aF0.0
aF0.0
aF1.0
aF1.0
aF1.0
aF1.0
aF1.0
aF1.0
aF1.0
aF1.0
aF0.0
aF1.0
aF0.0
aF0.0
aF0.0
aF0.0
aF1.0
aF1.0
aF0.0
aF1.0
aF1.0
aF0.0
aF0.0
aF1.0
aF0.0
aF0.0
aF1.0
aF0.0
aF0.0
aF1.0
aF0.0
aF0.0
atp721
a(I0
g717
tp722
a(I0
g720
tp723
a(I0
(lp724
F1.0
aF1.0
aF1.0
aF1.0
aF0.0
aF0.0
aF1.0
aF1.0
aF0.0
aF1.0
aF0.0
aF1.0
aF1.0
aF1.0
aF0.0
aF1.0
aF0.0
aF0.0
aF1.0
aF0.0
aF0.0
aF0.0
aF1.0
aF1.0
aF0.0
aF0.0
aF0.0
aF0.0
aF1.0
aF1.0
aF1.0
aF0.0
aF0.0
aF0.0
aF1.0
aF0.0
atp725
a(I0
g717
tp726
a(I0
g720
tp727
a(I0
g724
tp728
a(I0
(lp729
F1.0
aF0.0
aF1.0
aF0.0
aF0.0
aF0.0
aF1.0
aF0.0
aF0.0
aF0.0
aF1.0
aF1.0
aF1.0
aF1.0
aF1.0
aF0.0
aF0.0
aF0.0
aF0.0
aF0.0
aF0.0
aF1.0
aF0.0
aF1.0
aF1.0
aF1.0
aF0.0
aF1.0
aF0.0
aF1.0
aF0.0
aF0.0
aF0.0
aF0.0
aF0.0
aF0.0
atp730
a(I0
(lp731
F1.0
aF1.0
aF1.0
aF1.0
aF0.0
aF1.0
aF1.0
aF1.0
aF0.0
aF0.0
aF0.0
aF1.0
aF1.0
aF1.0
aF0.0
aF1.0
aF0.0
aF0.0
aF1.0
aF0.0
aF0.0
aF1.0
aF0.0
aF1.0
aF0.0
aF1.0
aF1.0
aF0.0
aF1.0
aF1.0
aF0.0
aF0.0
aF0.0
aF0.0
aF0.0
aF0.0
atp732
a(I1
(lp733
F1.0
aF1.0
aF1.0
aF0.0
aF0.0
aF0.0
aF1.0
aF1.0
aF1.0
aF1.0
aF1.0
aF0.0
aF1.0
aF1.0
aF1.0
aF0.0
aF0.0
aF0.0
aF1.0
aF0.0
aF0.0
aF1.0
aF0.0
aF1.0
aF0.0
aF0.0
aF0.0
aF0.0
aF1.0
aF1.0
aF0.0
aF0.0
aF0.0
aF0.0
aF1.0
aF0.0
atp734
a(I0
(lp735
F1.0
aF1.0
aF1.0
aF0.0
aF0.0
aF0.0
aF0.0
aF1.0
aF1.0
aF1.0
aF1.0
aF1.0
aF0.0
aF1.0
aF1.0
aF0.0
aF1.0
aF0.0
aF1.0
aF0.0
aF0.0
aF1.0
aF1.0
aF1.0
aF0.0
aF0.0
aF1.0
aF1.0
aF1.0
aF0.0
aF1.0
aF1.0
aF1.0
aF1.0
aF0.0
aF0.0
atp736
a(I0
(lp737
F1.0
aF1.0
aF1.0
aF1.0
aF0.0
aF0.0
aF1.0
aF1.0
aF1.0
aF0.0
aF1.0
aF0.0
aF1.0
aF0.0
aF1.0
aF1.0
aF0.0
aF0.0
aF1.0
aF0.0
aF0.0
aF1.0
aF0.0
aF1.0
aF0.0
aF1.0
aF1.0
aF1.0
aF1.0
aF1.0
aF1.0
aF1.0
aF0.0
aF0.0
aF1.0
aF0.0
atp738
a(I0
g737
tp739
a(I0
(lp740
F1.0
aF1.0
aF0.0
aF1.0
aF0.0
aF0.0
aF1.0
aF1.0
aF0.0
aF1.0
aF1.0
aF1.0
aF1.0
aF1.0
aF1.0
aF1.0
aF0.0
aF0.0
aF0.0
aF0.0
aF1.0
aF0.0
aF1.0
aF0.0
aF1.0
aF1.0
aF1.0
aF0.0
aF1.0
aF0.0
aF1.0
aF0.0
aF0.0
aF1.0
aF0.0
aF0.0
atp741
a(I1
(lp742
F1.0
aF1.0
aF1.0
aF0.0
aF0.0
aF0.0
aF1.0
aF1.0
aF1.0
aF0.0
aF1.0
aF0.0
aF1.0
aF1.0
aF1.0
aF1.0
aF0.0
aF0.0
aF1.0
aF0.0
aF0.0
aF0.0
aF0.0
aF0.0
aF1.0
aF1.0
aF1.0
aF1.0
aF1.0
aF0.0
aF1.0
aF0.0
aF0.0
aF0.0
aF0.0
aF0.0
atp743
a(I1
(lp744
F1.0
aF1.0
aF1.0
aF1.0
aF1.0
aF0.0
aF1.0
aF1.0
aF1.0
aF0.0
aF1.0
aF0.0
aF1.0
aF1.0
aF1.0
aF1.0
aF0.0
aF0.0
aF1.0
aF0.0
aF0.0
aF1.0
aF0.0
aF0.0
aF1.0
aF1.0
aF0.0
aF1.0
aF0.0
aF1.0
aF1.0
aF0.0
aF1.0
aF1.0
aF0.0
aF0.0
atp745
a(I0
(lp746
F1.0
aF1.0
aF1.0
aF1.0
aF1.0
aF0.0
aF1.0
aF0.0
aF1.0
aF1.0
aF0.0
aF0.0
aF1.0
aF1.0
aF1.0
aF1.0
aF0.0
aF0.0
aF1.0
aF0.0
aF0.0
aF1.0
aF1.0
aF0.0
aF0.0
aF1.0
aF1.0
aF0.0
aF1.0
aF0.0
aF1.0
aF0.0
aF0.0
aF1.0
aF0.0
aF0.0
atp747
a(I0
(lp748
F1.0
aF1.0
aF0.0
aF1.0
aF1.0
aF0.0
aF1.0
aF1.0
aF1.0
aF1.0
aF1.0
aF1.0
aF1.0
aF0.0
aF1.0
aF1.0
aF1.0
aF0.0
aF1.0
aF0.0
aF0.0
aF1.0
aF0.0
aF0.0
aF1.0
aF1.0
aF1.0
aF1.0
aF1.0
aF0.0
aF1.0
aF1.0
aF0.0
aF1.0
aF0.0
aF1.0
atp749
a(I0
(lp750
F1.0
aF1.0
aF1.0
aF1.0
aF1.0
aF1.0
aF1.0
aF1.0
aF1.0
aF0.0
aF1.0
aF1.0
aF0.0
aF1.0
aF0.0
aF0.0
aF0.0
aF1.0
aF1.0
aF0.0
aF0.0
aF0.0
aF0.0
aF0.0
aF0.0
aF1.0
aF0.0
aF1.0
aF0.0
aF0.0
aF0.0
aF0.0
aF0.0
aF0.0
aF1.0
aF0.0
atp751
a(I0
(lp752
F1.0
aF1.0
aF1.0
aF0.0
aF0.0
aF0.0
aF1.0
aF0.0
aF0.0
aF1.0
aF0.0
aF1.0
aF1.0
aF0.0
aF1.0
aF0.0
aF0.0
aF0.0
aF1.0
aF1.0
aF0.0
aF0.0
aF0.0
aF1.0
aF1.0
aF0.0
aF1.0
aF0.0
aF0.0
aF1.0
aF1.0
aF0.0
aF0.0
aF1.0
aF0.0
aF0.0
atp753
a(I0
(lp754
F1.0
aF1.0
aF1.0
aF1.0
aF0.0
aF0.0
aF0.0
aF1.0
aF1.0
aF1.0
aF1.0
aF1.0
aF1.0
aF0.0
aF0.0
aF1.0
aF1.0
aF1.0
aF1.0
aF0.0
aF0.0
aF1.0
aF0.0
aF0.0
aF0.0
aF1.0
aF1.0
aF1.0
aF0.0
aF0.0
aF1.0
aF0.0
aF0.0
aF0.0
aF0.0
aF0.0
atp755
a(I0
(lp756
F0.0
aF1.0
aF1.0
aF1.0
aF0.0
aF0.0
aF1.0
aF1.0
aF1.0
aF0.0
aF1.0
aF1.0
aF1.0
aF1.0
aF1.0
aF0.0
aF0.0
aF1.0
aF1.0
aF0.0
aF0.0
aF1.0
aF0.0
aF0.0
aF1.0
aF0.0
aF0.0
aF1.0
aF0.0
aF0.0
aF0.0
aF0.0
aF0.0
aF1.0
aF0.0
aF0.0
atp757
a(I0
g756
tp758
a(I0
(lp759
F1.0
aF0.0
aF0.0
aF1.0
aF1.0
aF1.0
aF1.0
aF0.0
aF1.0
aF0.0
aF0.0
aF0.0
aF1.0
aF1.0
aF1.0
aF0.0
aF0.0
aF0.0
aF1.0
aF1.0
aF1.0
aF1.0
aF0.0
aF1.0
aF1.0
aF1.0
aF1.0
aF1.0
aF1.0
aF1.0
aF1.0
aF0.0
aF0.0
aF0.0
aF0.0
aF0.0
atp760
a(I0
(lp761
F1.0
aF1.0
aF1.0
aF1.0
aF0.0
aF0.0
aF1.0
aF1.0
aF0.0
aF1.0
aF1.0
aF1.0
aF1.0
aF0.0
aF0.0
aF1.0
aF1.0
aF0.0
aF1.0
aF1.0
aF0.0
aF1.0
aF0.0
aF1.0
aF0.0
aF1.0
aF1.0
aF0.0
aF0.0
aF1.0
aF1.0
aF0.0
aF1.0
aF0.0
aF0.0
aF0.0
atp762
a(I1
(lp763
F1.0
aF1.0
aF1.0
aF1.0
aF0.0
aF0.0
aF1.0
aF0.0
aF0.0
aF0.0
aF0.0
aF1.0
aF0.0
aF0.0
aF0.0
aF1.0
aF0.0
aF0.0
aF0.0
aF0.0
aF0.0
aF1.0
aF1.0
aF0.0
aF1.0
aF1.0
aF1.0
aF1.0
aF1.0
aF1.0
aF0.0
aF0.0
aF0.0
aF1.0
aF0.0
aF0.0
atp764
a(I1
g763
tp765
a(I1
(lp766
F0.0
aF1.0
aF1.0
aF1.0
aF1.0
aF1.0
aF0.0
aF1.0
aF1.0
aF1.0
aF0.0
aF1.0
aF1.0
aF1.0
aF1.0
aF0.0
aF0.0
aF0.0
aF0.0
aF0.0
aF0.0
aF0.0
aF0.0
aF0.0
aF0.0
aF1.0
aF1.0
aF1.0
aF0.0
aF0.0
aF0.0
aF0.0
aF0.0
aF1.0
aF1.0
aF0.0
atp767
a(I1
g763
tp768
a(I1
g766
tp769
a(I1
(lp770
F1.0
aF0.0
aF1.0
aF1.0
aF0.0
aF1.0
aF1.0
aF1.0
aF1.0
aF0.0
aF1.0
aF1.0
aF0.0
aF1.0
aF0.0
aF1.0
aF0.0
aF0.0
aF0.0
aF0.0
aF1.0
aF1.0
aF0.0
aF0.0
aF0.0
aF1.0
aF1.0
aF1.0
aF1.0
aF0.0
aF1.0
aF0.0
aF1.0
aF1.0
aF1.0
aF0.0
atp771
a(I0
(lp772
F1.0
aF1.0
aF1.0
aF1.0
aF0.0
aF1.0
aF0.0
aF1.0
aF1.0
aF0.0
aF0.0
aF1.0
aF1.0
aF0.0
aF0.0
aF1.0
aF0.0
aF0.0
aF0.0
aF0.0
aF0.0
aF1.0
aF1.0
aF0.0
aF1.0
aF1.0
aF1.0
aF0.0
aF0.0
aF1.0
aF1.0
aF0.0
aF0.0
aF1.0
aF0.0
aF0.0
atp773
a(I0
(lp774
F1.0
aF1.0
aF1.0
aF0.0
aF0.0
aF0.0
aF1.0
aF1.0
aF1.0
aF1.0
aF1.0
aF1.0
aF1.0
aF1.0
aF1.0
aF1.0
aF0.0
aF0.0
aF1.0
aF0.0
aF0.0
aF1.0
aF0.0
aF0.0
aF0.0
aF1.0
aF1.0
aF1.0
aF0.0
aF0.0
aF0.0
aF0.0
aF0.0
aF0.0
aF0.0
aF0.0
atp775
a(I0
g774
tp776
a(I0
(lp777
F1.0
aF1.0
aF1.0
aF1.0
aF1.0
aF0.0
aF0.0
aF1.0
aF0.0
aF0.0
aF1.0
aF1.0
aF1.0
aF1.0
aF1.0
aF0.0
aF0.0
aF0.0
aF1.0
aF0.0
aF0.0
aF1.0
aF0.0
aF1.0
aF0.0
aF0.0
aF0.0
aF0.0
aF0.0
aF1.0
aF1.0
aF0.0
aF1.0
aF1.0
aF0.0
aF0.0
atp778
a(I0
g774
tp779
a(I0
g777
tp780
a(I0
(lp781
F1.0
aF1.0
aF1.0
aF0.0
aF0.0
aF0.0
aF1.0
aF1.0
aF1.0
aF0.0
aF0.0
aF1.0
aF0.0
aF0.0
aF1.0
aF0.0
aF0.0
aF0.0
aF1.0
aF0.0
aF0.0
aF1.0
aF0.0
aF0.0
aF1.0
aF1.0
aF1.0
aF0.0
aF0.0
aF1.0
aF1.0
aF0.0
aF0.0
aF0.0
aF0.0
aF0.0
atp782
a(I0
(lp783
F1.0
aF1.0
aF1.0
aF1.0
aF0.0
aF0.0
aF1.0
aF0.0
aF1.0
aF0.0
aF0.0
aF1.0
aF1.0
aF1.0
aF1.0
aF0.0
aF0.0
aF0.0
aF1.0
aF0.0
aF0.0
aF1.0
aF1.0
aF1.0
aF0.0
aF0.0
aF1.0
aF0.0
aF0.0
aF1.0
aF1.0
aF0.0
aF0.0
aF1.0
aF0.0
aF1.0
atp784
a(I0
g783
tp785
a(I0
(lp786
F0.0
aF1.0
aF0.0
aF1.0
aF0.0
aF0.0
aF1.0
aF1.0
aF1.0
aF0.0
aF0.0
aF0.0
aF1.0
aF1.0
aF0.0
aF0.0
aF0.0
aF0.0
aF0.0
aF0.0
aF0.0
aF1.0
aF0.0
aF0.0
aF0.0
aF0.0
aF0.0
aF1.0
aF1.0
aF0.0
aF1.0
aF0.0
aF0.0
aF0.0
aF0.0
aF1.0
atp787
a(I0
g783
tp788
a(I0
g786
tp789
a(I0
(lp790
F1.0
aF0.0
aF1.0
aF0.0
aF0.0
aF0.0
aF0.0
aF1.0
aF1.0
aF0.0
aF1.0
aF1.0
aF1.0
aF1.0
aF0.0
aF1.0
aF0.0
aF0.0
aF1.0
aF0.0
aF0.0
aF1.0
aF0.0
aF1.0
aF0.0
aF0.0
aF1.0
aF1.0
aF0.0
aF1.0
aF0.0
aF0.0
aF0.0
aF1.0
aF1.0
aF0.0
atp791
a(I0
(lp792
F1.0
aF1.0
aF1.0
aF1.0
aF1.0
aF0.0
aF1.0
aF1.0
aF1.0
aF1.0
aF0.0
aF0.0
aF1.0
aF0.0
aF1.0
aF1.0
aF0.0
aF0.0
aF1.0
aF0.0
aF0.0
aF1.0
aF0.0
aF0.0
aF1.0
aF1.0
aF1.0
aF1.0
aF0.0
aF0.0
aF0.0
aF0.0
aF0.0
aF0.0
aF0.0
aF0.0
atp793
a(I0
(lp794
F1.0
aF1.0
aF0.0
aF1.0
aF1.0
aF0.0
aF1.0
aF1.0
aF0.0
aF1.0
aF1.0
aF1.0
aF1.0
aF1.0
aF1.0
aF1.0
aF1.0
aF0.0
aF1.0
aF0.0
aF0.0
aF0.0
aF0.0
aF0.0
aF1.0
aF1.0
aF1.0
aF1.0
aF0.0
aF1.0
aF1.0
aF0.0
aF0.0
aF1.0
aF0.0
aF0.0
atp795
a(I0
g794
tp796
a(I0
(lp797
F1.0
aF1.0
aF1.0
aF1.0
aF0.0
aF1.0
aF0.0
aF0.0
aF1.0
aF1.0
aF1.0
aF1.0
aF1.0
aF1.0
aF1.0
aF1.0
aF1.0
aF0.0
aF0.0
aF1.0
aF0.0
aF1.0
aF1.0
aF1.0
aF1.0
aF1.0
aF1.0
aF0.0
aF1.0
aF1.0
aF1.0
aF0.0
aF1.0
aF1.0
aF0.0
aF1.0
atp798
a(I0
g794
tp799
a(I0
g797
tp800
a(I0
(lp801
F1.0
aF1.0
aF1.0
aF1.0
aF0.0
aF0.0
aF1.0
aF1.0
aF1.0
aF1.0
aF1.0
aF1.0
aF1.0
aF1.0
aF1.0
aF0.0
aF1.0
aF0.0
aF1.0
aF0.0
aF0.0
aF1.0
aF0.0
aF1.0
aF0.0
aF1.0
aF1.0
aF1.0
aF0.0
aF1.0
aF0.0
aF0.0
aF0.0
aF1.0
aF0.0
aF0.0
atp802
a(I0
g794
tp803
a(I0
g797
tp804
a(I0
g801
tp805
a(I0
(lp806
F0.0
aF1.0
aF1.0
aF1.0
aF1.0
aF0.0
aF1.0
aF0.0
aF0.0
aF0.0
aF1.0
aF0.0
aF1.0
aF1.0
aF1.0
aF1.0
aF1.0
aF0.0
aF1.0
aF1.0
aF0.0
aF1.0
aF0.0
aF0.0
aF1.0
aF1.0
aF0.0
aF1.0
aF1.0
aF0.0
aF1.0
aF0.0
aF0.0
aF1.0
aF1.0
aF0.0
atp807
a(I0
g794
tp808
a(I0
g797
tp809
a(I0
g801
tp810
a(I0
g806
tp811
a(I0
(lp812
F0.0
aF1.0
aF0.0
aF1.0
aF0.0
aF0.0
aF0.0
aF1.0
aF1.0
aF0.0
aF0.0
aF1.0
aF1.0
aF1.0
aF1.0
aF1.0
aF0.0
aF0.0
aF0.0
aF0.0
aF0.0
aF1.0
aF0.0
aF0.0
aF0.0
aF1.0
aF1.0
aF0.0
aF0.0
aF1.0
aF1.0
aF0.0
aF0.0
aF1.0
aF0.0
aF0.0
atp813
a(I0
(lp814
F1.0
aF0.0
aF1.0
aF1.0
aF1.0
aF1.0
aF1.0
aF1.0
aF1.0
aF1.0
aF1.0
aF1.0
aF1.0
aF1.0
aF0.0
aF0.0
aF0.0
aF0.0
aF1.0
aF0.0
aF0.0
aF0.0
aF0.0
aF1.0
aF1.0
aF1.0
aF1.0
aF0.0
aF0.0
aF1.0
aF1.0
aF1.0
aF0.0
aF1.0
aF0.0
aF0.0
atp815
a(I0
g814
tp816
a(I0
(lp817
F1.0
aF1.0
aF1.0
aF0.0
aF0.0
aF0.0
aF1.0
aF0.0
aF1.0
aF1.0
aF1.0
aF0.0
aF1.0
aF1.0
aF0.0
aF1.0
aF0.0
aF1.0
aF1.0
aF1.0
aF0.0
aF1.0
aF0.0
aF0.0
aF0.0
aF1.0
aF1.0
aF0.0
aF0.0
aF0.0
aF1.0
aF0.0
aF1.0
aF0.0
aF0.0
aF0.0
atp818
a(I1
(lp819
F1.0
aF0.0
aF1.0
aF1.0
aF1.0
aF0.0
aF1.0
aF0.0
aF1.0
aF0.0
aF0.0
aF1.0
aF0.0
aF1.0
aF1.0
aF0.0
aF0.0
aF1.0
aF1.0
aF0.0
aF0.0
aF1.0
aF1.0
aF0.0
aF0.0
aF1.0
aF1.0
aF1.0
aF0.0
aF0.0
aF1.0
aF0.0
aF0.0
aF1.0
aF1.0
aF0.0
atp820
a(I1
g819
tp821
a(I1
(lp822
F1.0
aF1.0
aF1.0
aF0.0
aF0.0
aF0.0
aF0.0
aF1.0
aF1.0
aF0.0
aF0.0
aF0.0
aF1.0
aF0.0
aF1.0
aF1.0
aF0.0
aF0.0
aF1.0
aF1.0
aF1.0
aF1.0
aF0.0
aF1.0
aF1.0
aF1.0
aF0.0
aF1.0
aF1.0
aF1.0
aF1.0
aF0.0
aF0.0
aF1.0
aF0.0
aF1.0
atp823
a(I1
g819
tp824
a(I1
g822
tp825
a(I1
(lp826
F1.0
aF1.0
aF0.0
aF0.0
aF0.0
aF1.0
aF1.0
aF1.0
aF1.0
aF0.0
aF0.0
aF0.0
aF1.0
aF1.0
aF1.0
aF1.0
aF0.0
aF0.0
aF1.0
aF0.0
aF0.0
aF1.0
aF0.0
aF1.0
aF0.0
aF0.0
aF1.0
aF1.0
aF1.0
aF1.0
aF0.0
aF0.0
aF0.0
aF0.0
aF0.0
aF0.0
atp827
a(I0
g819
tp828
a(I0
g822
tp829
a(I0
g826
tp830
a(I0
(lp831
F1.0
aF1.0
aF1.0
aF1.0
aF0.0
aF0.0
aF1.0
aF1.0
aF1.0
aF1.0
aF1.0
aF1.0
aF1.0
aF0.0
aF1.0
aF1.0
aF0.0
aF0.0
aF1.0
aF0.0
aF0.0
aF1.0
aF0.0
aF0.0
aF1.0
aF1.0
aF1.0
aF1.0
aF1.0
aF1.0
aF0.0
aF0.0
aF0.0
aF1.0
aF1.0
aF0.0
atp832
a(I0
g819
tp833
a(I0
g822
tp834
a(I0
g826
tp835
a(I0
g831
tp836
a(I0
(lp837
F1.0
aF1.0
aF1.0
aF1.0
aF0.0
aF0.0
aF1.0
aF1.0
aF1.0
aF0.0
aF0.0
aF1.0
aF1.0
aF0.0
aF1.0
aF0.0
aF0.0
aF0.0
aF0.0
aF0.0
aF0.0
aF0.0
aF0.0
aF1.0
aF0.0
aF1.0
aF1.0
aF1.0
aF0.0
aF1.0
aF0.0
aF1.0
aF0.0
aF1.0
aF0.0
aF0.0
atp838
a(I0
(lp839
F1.0
aF0.0
aF1.0
aF1.0
aF0.0
aF0.0
aF1.0
aF1.0
aF1.0
aF1.0
aF1.0
aF1.0
aF1.0
aF0.0
aF0.0
aF0.0
aF0.0
aF0.0
aF1.0
aF1.0
aF0.0
aF1.0
aF0.0
aF1.0
aF1.0
aF0.0
aF0.0
aF0.0
aF1.0
aF0.0
aF1.0
aF0.0
aF0.0
aF0.0
aF1.0
aF0.0
atp840
a(I0
(lp841
F0.0
aF1.0
aF1.0
aF1.0
aF0.0
aF1.0
aF0.0
aF0.0
aF1.0
aF1.0
aF1.0
aF1.0
aF0.0
aF0.0
aF1.0
aF0.0
aF0.0
aF0.0
aF1.0
aF1.0
aF0.0
aF1.0
aF1.0
aF0.0
aF0.0
aF1.0
aF1.0
aF1.0
aF0.0
aF0.0
aF1.0
aF1.0
aF0.0
aF0.0
aF0.0
aF0.0
atp842
a(I0
(lp843
F1.0
aF1.0
aF1.0
aF1.0
aF1.0
aF0.0
aF1.0
aF1.0
aF1.0
aF1.0
aF1.0
aF0.0
aF0.0
aF1.0
aF1.0
aF1.0
aF1.0
aF0.0
aF0.0
aF0.0
aF0.0
aF1.0
aF0.0
aF0.0
aF1.0
aF1.0
aF1.0
aF1.0
aF1.0
aF1.0
aF0.0
aF0.0
aF0.0
aF1.0
aF0.0
aF0.0
atp844
a(I0
(lp845
F1.0
aF1.0
aF1.0
aF0.0
aF0.0
aF0.0
aF1.0
aF0.0
aF1.0
aF1.0
aF1.0
aF1.0
aF1.0
aF1.0
aF1.0
aF0.0
aF0.0
aF0.0
aF1.0
aF1.0
aF0.0
aF1.0
aF0.0
aF1.0
aF0.0
aF0.0
aF1.0
aF0.0
aF0.0
aF1.0
aF0.0
aF1.0
aF0.0
aF0.0
aF1.0
aF0.0
atp846
a(I1
g845
tp847
a(I1
(lp848
F0.0
aF1.0
aF1.0
aF1.0
aF0.0
aF1.0
aF1.0
aF1.0
aF1.0
aF1.0
aF1.0
aF1.0
aF1.0
aF1.0
aF1.0
aF1.0
aF1.0
aF0.0
aF1.0
aF0.0
aF0.0
aF1.0
aF0.0
aF1.0
aF1.0
aF1.0
aF1.0
aF0.0
aF0.0
aF1.0
aF1.0
aF0.0
aF0.0
aF0.0
aF0.0
aF0.0
atp849
a(I0
(lp850
F1.0
aF1.0
aF1.0
aF0.0
aF0.0
aF1.0
aF1.0
aF1.0
aF0.0
aF1.0
aF1.0
aF1.0
aF1.0
aF0.0
aF0.0
aF0.0
aF0.0
aF0.0
aF1.0
aF1.0
aF0.0
aF1.0
aF0.0
aF1.0
aF1.0
aF1.0
aF1.0
aF1.0
aF1.0
aF1.0
aF1.0
aF0.0
aF0.0
aF1.0
aF0.0
aF1.0
atp851
a(I0
g850
tp852
a(I0
(lp853
F1.0
aF1.0
aF1.0
aF0.0
aF1.0
aF1.0
aF1.0
aF1.0
aF1.0
aF0.0
aF1.0
aF1.0
aF1.0
aF1.0
aF1.0
aF1.0
aF0.0
aF0.0
aF0.0
aF1.0
aF1.0
aF1.0
aF0.0
aF1.0
aF1.0
aF0.0
aF0.0
aF1.0
aF1.0
aF0.0
aF0.0
aF1.0
aF0.0
aF1.0
aF0.0
aF0.0
atp854
a(I0
g850
tp855
a(I0
g853
tp856
a(I0
(lp857
F1.0
aF1.0
aF1.0
aF0.0
aF0.0
aF1.0
aF1.0
aF1.0
aF1.0
aF0.0
aF1.0
aF0.0
aF1.0
aF1.0
aF1.0
aF1.0
aF0.0
aF0.0
aF0.0
aF0.0
aF0.0
aF1.0
aF0.0
aF0.0
aF1.0
aF1.0
aF1.0
aF1.0
aF0.0
aF0.0
aF1.0
aF0.0
aF0.0
aF1.0
aF0.0
aF0.0
atp858
a(I1
(lp859
F0.0
aF1.0
aF1.0
aF0.0
aF0.0
aF1.0
aF1.0
aF0.0
aF1.0
aF0.0
aF1.0
aF1.0
aF1.0
aF0.0
aF1.0
aF1.0
aF1.0
aF1.0
aF1.0
aF1.0
aF0.0
aF1.0
aF0.0
aF0.0
aF1.0
aF1.0
aF1.0
aF1.0
aF1.0
aF0.0
aF1.0
aF1.0
aF1.0
aF1.0
aF1.0
aF0.0
atp860
a(I1
g859
tp861
a(I1
(lp862
F1.0
aF1.0
aF0.0
aF1.0
aF1.0
aF0.0
aF1.0
aF1.0
aF0.0
aF1.0
aF1.0
aF1.0
aF1.0
aF0.0
aF1.0
aF0.0
aF0.0
aF0.0
aF1.0
aF0.0
aF1.0
aF1.0
aF0.0
aF0.0
aF1.0
aF1.0
aF1.0
aF1.0
aF1.0
aF1.0
aF1.0
aF1.0
aF0.0
aF1.0
aF0.0
aF0.0
atp863
a(I0
g859
tp864
a(I0
g862
tp865
a(I0
(lp866
F1.0
aF1.0
aF0.0
aF1.0
aF0.0
aF0.0
aF1.0
aF1.0
aF1.0
aF1.0
aF1.0
aF1.0
aF1.0
aF1.0
aF1.0
aF0.0
aF0.0
aF1.0
aF1.0
aF0.0
aF0.0
aF1.0
aF1.0
aF1.0
aF0.0
aF1.0
aF1.0
aF0.0
aF0.0
aF1.0
aF0.0
aF0.0
aF0.0
aF1.0
aF0.0
aF1.0
atp867
a(I0
(lp868
F1.0
aF1.0
aF1.0
aF0.0
aF0.0
aF0.0
aF1.0
aF0.0
aF1.0
aF1.0
aF1.0
aF0.0
aF1.0
aF1.0
aF1.0
aF0.0
aF0.0
aF0.0
aF1.0
aF0.0
aF1.0
aF1.0
aF0.0
aF1.0
aF1.0
aF1.0
aF1.0
aF1.0
aF0.0
aF1.0
aF0.0
aF0.0
aF0.0
aF0.0
aF1.0
aF0.0
atp869
a(I0
g868
tp870
a(I0
(lp871
F1.0
aF1.0
aF0.0
aF1.0
aF0.0
aF0.0
aF1.0
aF1.0
aF1.0
aF1.0
aF1.0
aF1.0
aF1.0
aF1.0
aF1.0
aF0.0
aF0.0
aF0.0
aF1.0
aF0.0
aF0.0
aF0.0
aF1.0
aF1.0
aF0.0
aF1.0
aF1.0
aF1.0
aF1.0
aF1.0
aF1.0
aF1.0
aF0.0
aF1.0
aF0.0
aF0.0
atp872
a(I0
g868
tp873
a(I0
g871
tp874
a(I0
(lp875
F1.0
aF1.0
aF1.0
aF1.0
aF1.0
aF0.0
aF0.0
aF1.0
aF1.0
aF0.0
aF1.0
aF1.0
aF1.0
aF1.0
aF1.0
aF0.0
aF0.0
aF0.0
aF0.0
aF0.0
aF1.0
aF1.0
aF0.0
aF0.0
aF0.0
aF0.0
aF0.0
aF1.0
aF0.0
aF1.0
aF1.0
aF0.0
aF0.0
aF0.0
aF1.0
aF0.0
atp876
a(I0
(lp877
F0.0
aF1.0
aF0.0
aF0.0
aF0.0
aF0.0
aF1.0
aF1.0
aF0.0
aF0.0
aF1.0
aF0.0
aF1.0
aF1.0
aF1.0
aF1.0
aF0.0
aF0.0
aF1.0
aF1.0
aF0.0
aF0.0
aF0.0
aF1.0
aF1.0
aF1.0
aF0.0
aF0.0
aF1.0
aF1.0
aF1.0
aF0.0
aF0.0
aF1.0
aF1.0
aF1.0
atp878
a(I0
(lp879
F0.0
aF1.0
aF0.0
aF1.0
aF0.0
aF0.0
aF1.0
aF1.0
aF1.0
aF1.0
aF0.0
aF0.0
aF1.0
aF1.0
aF1.0
aF0.0
aF0.0
aF0.0
aF1.0
aF0.0
aF0.0
aF1.0
aF0.0
aF0.0
aF0.0
aF0.0
aF0.0
aF0.0
aF1.0
aF1.0
aF0.0
aF0.0
aF0.0
aF1.0
aF1.0
aF1.0
atp880
a(I0
g879
tp881
a(I0
(lp882
F1.0
aF1.0
aF1.0
aF1.0
aF0.0
aF1.0
aF1.0
aF1.0
aF0.0
aF0.0
aF1.0
aF1.0
aF1.0
aF0.0
aF0.0
aF0.0
aF0.0
aF0.0
aF1.0
aF0.0
aF0.0
aF1.0
aF0.0
aF1.0
aF1.0
aF1.0
aF1.0
aF1.0
aF1.0
aF0.0
aF0.0
aF0.0
aF0.0
aF1.0
aF0.0
aF1.0
atp883
a(I0
g879
tp884
a(I0
g882
tp885
a(I0
(lp886
F1.0
aF1.0
aF0.0
aF1.0
aF0.0
aF0.0
aF0.0
aF1.0
aF1.0
aF1.0
aF1.0
aF1.0
aF1.0
aF1.0
aF1.0
aF0.0
aF0.0
aF0.0
aF0.0
aF0.0
aF0.0
aF1.0
aF0.0
aF1.0
aF0.0
aF1.0
aF1.0
aF1.0
aF1.0
aF1.0
aF1.0
aF1.0
aF0.0
aF1.0
aF0.0
aF0.0
atp887
a(I0
(lp888
F1.0
aF1.0
aF1.0
aF0.0
aF0.0
aF0.0
aF1.0
aF1.0
aF0.0
aF0.0
aF1.0
aF1.0
aF1.0
aF1.0
aF1.0
aF0.0
aF0.0
aF0.0
aF0.0
aF0.0
aF0.0
aF1.0
aF0.0
aF1.0
aF1.0
aF1.0
aF1.0
aF1.0
aF1.0
aF1.0
aF0.0
aF0.0
aF0.0
aF0.0
aF0.0
aF0.0
atp889
a(I0
g888
tp890
a(I0
(lp891
F1.0
aF1.0
aF1.0
aF1.0
aF0.0
aF1.0
aF1.0
aF1.0
aF1.0
aF0.0
aF1.0
aF1.0
aF1.0
aF1.0
aF1.0
aF1.0
aF1.0
aF0.0
aF0.0
aF0.0
aF0.0
aF1.0
aF1.0
aF0.0
aF1.0
aF1.0
aF1.0
aF1.0
aF0.0
aF0.0
aF0.0
aF0.0
aF0.0
aF1.0
aF0.0
aF0.0
atp892
a(I0
g888
tp893
a(I0
g891
tp894
a(I0
(lp895
F1.0
aF1.0
aF1.0
aF1.0
aF1.0
aF1.0
aF1.0
aF1.0
aF0.0
aF0.0
aF1.0
aF1.0
aF1.0
aF0.0
aF1.0
aF1.0
aF1.0
aF0.0
aF1.0
aF0.0
aF0.0
aF1.0
aF0.0
aF0.0
aF0.0
aF1.0
aF1.0
aF1.0
aF0.0
aF1.0
aF1.0
aF0.0
aF0.0
aF1.0
aF0.0
aF0.0
atp896
a(I0
g888
tp897
a(I0
g891
tp898
a(I0
g895
tp899
a(I0
(lp900
F1.0
aF1.0
aF1.0
aF0.0
aF0.0
aF1.0
aF1.0
aF1.0
aF1.0
aF1.0
aF1.0
aF1.0
aF1.0
aF1.0
aF1.0
aF0.0
aF0.0
aF0.0
aF1.0
aF0.0
aF0.0
aF1.0
aF1.0
aF0.0
aF1.0
aF1.0
aF1.0
aF1.0
aF1.0
aF0.0
aF0.0
aF0.0
aF0.0
aF1.0
aF0.0
aF0.0
atp901
a(I0
g888
tp902
a(I0
g891
tp903
a(I0
g895
tp904
a(I0
g900
tp905
a(I0
(lp906
F1.0
aF1.0
aF1.0
aF1.0
aF0.0
aF0.0
aF1.0
aF1.0
aF1.0
aF1.0
aF1.0
aF1.0
aF1.0
aF0.0
aF0.0
aF1.0
aF1.0
aF0.0
aF1.0
aF1.0
aF0.0
aF1.0
aF1.0
aF0.0
aF0.0
aF1.0
aF1.0
aF1.0
aF1.0
aF1.0
aF1.0
aF0.0
aF0.0
aF1.0
aF0.0
aF0.0
atp907
a(I0
g888
tp908
a(I0
g891
tp909
a(I0
g895
tp910
a(I0
g900
tp911
a(I0
g906
tp912
a(I0
(lp913
F1.0
aF1.0
aF1.0
aF0.0
aF0.0
aF0.0
aF1.0
aF1.0
aF1.0
aF1.0
aF1.0
aF1.0
aF1.0
aF1.0
aF1.0
aF1.0
aF1.0
aF0.0
aF1.0
aF0.0
aF0.0
aF1.0
aF0.0
aF1.0
aF1.0
aF1.0
aF1.0
aF0.0
aF1.0
aF1.0
aF0.0
aF0.0
aF0.0
aF1.0
aF0.0
aF0.0
atp914
a(I0
g888
tp915
a(I0
g891
tp916
a(I0
g895
tp917
a(I0
g900
tp918
a(I0
g906
tp919
a(I0
g913
tp920
a(I0
(lp921
F1.0
aF1.0
aF0.0
aF0.0
aF0.0
aF0.0
aF1.0
aF1.0
aF1.0
aF0.0
aF0.0
aF1.0
aF1.0
aF1.0
aF1.0
aF0.0
aF0.0
aF0.0
aF1.0
aF0.0
aF0.0
aF1.0
aF0.0
aF1.0
aF0.0
aF0.0
aF1.0
aF1.0
aF1.0
aF1.0
aF0.0
aF0.0
aF0.0
aF1.0
aF1.0
aF0.0
atp922
a(I1
(lp923
F1.0
aF1.0
aF1.0
aF1.0
aF0.0
aF1.0
aF1.0
aF1.0
aF1.0
aF0.0
aF1.0
aF1.0
aF1.0
aF1.0
aF0.0
aF0.0
aF0.0
aF0.0
aF0.0
aF0.0
aF0.0
aF1.0
aF1.0
aF1.0
aF1.0
aF1.0
aF1.0
aF1.0
aF0.0
aF1.0
aF1.0
aF0.0
aF0.0
aF1.0
aF0.0
aF0.0
atp924
a(I1
(lp925
F0.0
aF1.0
aF1.0
aF1.0
aF0.0
aF0.0
aF1.0
aF0.0
aF1.0
aF1.0
aF1.0
aF1.0
aF1.0
aF1.0
aF1.0
aF1.0
aF0.0
aF0.0
aF1.0
aF1.0
aF1.0
aF1.0
aF0.0
aF0.0
aF0.0
aF1.0
aF1.0
aF1.0
aF1.0
aF0.0
aF1.0
aF0.0
aF0.0
aF1.0
aF0.0
aF0.0
atp926
a(I1
g925
tp927
a(I1
(lp928
F1.0
aF0.0
aF1.0
aF1.0
aF0.0
aF0.0
aF0.0
aF0.0
aF1.0
aF1.0
aF1.0
aF1.0
aF1.0
aF1.0
aF1.0
aF1.0
aF0.0
aF0.0
aF1.0
aF0.0
aF0.0
aF1.0
aF1.0
aF0.0
aF1.0
aF1.0
aF1.0
aF0.0
aF1.0
aF1.0
aF0.0
aF0.0
aF0.0
aF1.0
aF1.0
aF1.0
atp929
a(I0
(lp930
F1.0
aF1.0
aF1.0
aF1.0
aF1.0
aF0.0
aF1.0
aF1.0
aF1.0
aF1.0
aF0.0
aF1.0
aF0.0
aF1.0
aF1.0
aF0.0
aF0.0
aF0.0
aF1.0
aF1.0
aF1.0
aF1.0
aF0.0
aF1.0
aF1.0
aF1.0
aF1.0
aF0.0
aF1.0
aF1.0
aF0.0
aF0.0
aF0.0
aF1.0
aF1.0
aF0.0
atp931
a(I0
g930
tp932
a(I0
(lp933
F1.0
aF1.0
aF1.0
aF1.0
aF1.0
aF0.0
aF1.0
aF1.0
aF1.0
aF1.0
aF1.0
aF1.0
aF1.0
aF1.0
aF1.0
aF1.0
aF0.0
aF0.0
aF1.0
aF0.0
aF0.0
aF1.0
aF1.0
aF1.0
aF0.0
aF0.0
aF0.0
aF0.0
aF1.0
aF1.0
aF1.0
aF0.0
aF0.0
aF1.0
aF0.0
aF0.0
atp934
a(I0
(lp935
F0.0
aF1.0
aF1.0
aF1.0
aF0.0
aF0.0
aF1.0
aF1.0
aF0.0
aF1.0
aF1.0
aF1.0
aF0.0
aF1.0
aF0.0
aF1.0
aF1.0
aF0.0
aF0.0
aF0.0
aF0.0
aF1.0
aF1.0
aF0.0
aF0.0
aF1.0
aF1.0
aF1.0
aF0.0
aF1.0
aF1.0
aF0.0
aF0.0
aF1.0
aF0.0
aF0.0
atp936
a(I0
(lp937
F1.0
aF1.0
aF1.0
aF0.0
aF0.0
aF1.0
aF1.0
aF1.0
aF1.0
aF0.0
aF0.0
aF1.0
aF1.0
aF1.0
aF0.0
aF0.0
aF0.0
aF0.0
aF1.0
aF0.0
aF0.0
aF1.0
aF0.0
aF1.0
aF1.0
aF1.0
aF1.0
aF1.0
aF0.0
aF1.0
aF1.0
aF0.0
aF0.0
aF1.0
aF0.0
aF0.0
atp938
a(I0
(lp939
F1.0
aF1.0
aF1.0
aF1.0
aF1.0
aF1.0
aF1.0
aF1.0
aF1.0
aF1.0
aF1.0
aF0.0
aF1.0
aF1.0
aF1.0
aF1.0
aF0.0
aF0.0
aF1.0
aF1.0
aF1.0
aF0.0
aF1.0
aF0.0
aF0.0
aF0.0
aF1.0
aF0.0
aF1.0
aF1.0
aF0.0
aF0.0
aF0.0
aF1.0
aF0.0
aF0.0
atp940
a(I0
(lp941
F1.0
aF1.0
aF0.0
aF1.0
aF1.0
aF1.0
aF0.0
aF1.0
aF1.0
aF1.0
aF1.0
aF1.0
aF1.0
aF1.0
aF1.0
aF1.0
aF0.0
aF0.0
aF1.0
aF0.0
aF0.0
aF1.0
aF1.0
aF0.0
aF1.0
aF1.0
aF1.0
aF0.0
aF1.0
aF0.0
aF1.0
aF0.0
aF0.0
aF0.0
aF0.0
aF0.0
atp942
a(I0
g941
tp943
a(I0
(lp944
F0.0
aF1.0
aF1.0
aF1.0
aF0.0
aF0.0
aF1.0
aF1.0
aF1.0
aF1.0
aF1.0
aF1.0
aF1.0
aF1.0
aF1.0
aF1.0
aF0.0
aF0.0
aF1.0
aF1.0
aF1.0
aF0.0
aF0.0
aF0.0
aF0.0
aF0.0
aF1.0
aF1.0
aF0.0
aF1.0
aF0.0
aF1.0
aF1.0
aF1.0
aF0.0
aF0.0
atp945
a(I0
(lp946
F1.0
aF0.0
aF0.0
aF0.0
aF0.0
aF0.0
aF0.0
aF0.0
aF0.0
aF0.0
aF1.0
aF1.0
aF1.0
aF1.0
aF1.0
aF0.0
aF0.0
aF0.0
aF1.0
aF1.0
aF0.0
aF1.0
aF0.0
aF0.0
aF0.0
aF0.0
aF1.0
aF0.0
aF1.0
aF1.0
aF0.0
aF0.0
aF0.0
aF1.0
aF1.0
aF0.0
atp947
a(I0
(lp948
F1.0
aF1.0
aF1.0
aF1.0
aF0.0
aF0.0
aF1.0
aF1.0
aF1.0
aF1.0
aF0.0
aF1.0
aF1.0
aF0.0
aF1.0
aF1.0
aF0.0
aF0.0
aF1.0
aF0.0
aF0.0
aF0.0
aF0.0
aF1.0
aF0.0
aF0.0
aF1.0
aF0.0
aF0.0
aF1.0
aF1.0
aF0.0
aF0.0
aF0.0
aF1.0
aF0.0
atp949
a(I0
(lp950
F1.0
aF1.0
aF1.0
aF1.0
aF1.0
aF0.0
aF1.0
aF1.0
aF1.0
aF1.0
aF0.0
aF1.0
aF1.0
aF1.0
aF1.0
aF0.0
aF0.0
aF0.0
aF1.0
aF0.0
aF0.0
aF0.0
aF0.0
aF0.0
aF0.0
aF0.0
aF1.0
aF1.0
aF1.0
aF1.0
aF1.0
aF0.0
aF0.0
aF1.0
aF1.0
aF0.0
atp951
a(I0
g950
tp952
a(I0
(lp953
F1.0
aF1.0
aF1.0
aF0.0
aF0.0
aF0.0
aF1.0
aF1.0
aF1.0
aF1.0
aF1.0
aF1.0
aF1.0
aF1.0
aF1.0
aF0.0
aF0.0
aF0.0
aF0.0
aF0.0
aF1.0
aF1.0
aF1.0
aF0.0
aF0.0
aF0.0
aF0.0
aF1.0
aF1.0
aF0.0
aF1.0
aF1.0
aF0.0
aF1.0
aF1.0
aF0.0
atp954
a(I0
g950
tp955
a(I0
g953
tp956
a(I0
(lp957
F1.0
aF1.0
aF0.0
aF1.0
aF0.0
aF1.0
aF1.0
aF1.0
aF1.0
aF1.0
aF1.0
aF1.0
aF1.0
aF1.0
aF1.0
aF1.0
aF0.0
aF0.0
aF1.0
aF0.0
aF0.0
aF1.0
aF0.0
aF0.0
aF1.0
aF0.0
aF1.0
aF0.0
aF1.0
aF0.0
aF0.0
aF0.0
aF0.0
aF0.0
aF1.0
aF0.0
atp958
a(I0
g950
tp959
a(I0
g953
tp960
a(I0
g957
tp961
a(I0
(lp962
F1.0
aF1.0
aF1.0
aF1.0
aF0.0
aF0.0
aF1.0
aF1.0
aF1.0
aF0.0
aF1.0
aF1.0
aF1.0
aF1.0
aF1.0
aF1.0
aF1.0
aF0.0
aF1.0
aF1.0
aF1.0
aF0.0
aF0.0
aF1.0
aF0.0
aF1.0
aF0.0
aF1.0
aF1.0
aF1.0
aF0.0
aF1.0
aF0.0
aF1.0
aF1.0
aF0.0
atp963
a(I0
(lp964
F1.0
aF1.0
aF1.0
aF0.0
aF0.0
aF1.0
aF1.0
aF0.0
aF0.0
aF1.0
aF1.0
aF1.0
aF1.0
aF1.0
aF1.0
aF0.0
aF0.0
aF0.0
aF1.0
aF0.0
aF0.0
aF1.0
aF0.0
aF0.0
aF0.0
aF1.0
aF1.0
aF1.0
aF0.0
aF1.0
aF1.0
aF1.0
aF0.0
aF1.0
aF0.0
aF0.0
atp965
a(I0
g964
tp966
a(I0
(lp967
F1.0
aF1.0
aF1.0
aF1.0
aF1.0
aF1.0
aF1.0
aF1.0
aF1.0
aF0.0
aF0.0
aF1.0
aF0.0
aF1.0
aF1.0
aF1.0
aF0.0
aF0.0
aF1.0
aF1.0
aF1.0
aF0.0
aF0.0
aF0.0
aF0.0
aF1.0
aF1.0
aF1.0
aF1.0
aF1.0
aF1.0
aF0.0
aF0.0
aF1.0
aF0.0
aF0.0
atp968
a(I0
(lp969
F1.0
aF1.0
aF1.0
aF0.0
aF0.0
aF0.0
aF0.0
aF0.0
aF1.0
aF0.0
aF1.0
aF1.0
aF0.0
aF1.0
aF1.0
aF0.0
aF0.0
aF0.0
aF0.0
aF0.0
aF0.0
aF1.0
aF0.0
aF0.0
aF1.0
aF1.0
aF0.0
aF0.0
aF0.0
aF0.0
aF1.0
aF0.0
aF0.0
aF0.0
aF0.0
aF0.0
atp970
a(I1
(lp971
F1.0
aF1.0
aF0.0
aF1.0
aF0.0
aF0.0
aF1.0
aF0.0
aF1.0
aF1.0
aF1.0
aF0.0
aF0.0
aF1.0
aF1.0
aF1.0
aF1.0
aF0.0
aF1.0
aF0.0
aF1.0
aF1.0
aF0.0
aF0.0
aF1.0
aF1.0
aF0.0
aF1.0
aF0.0
aF1.0
aF0.0
aF0.0
aF0.0
aF1.0
aF0.0
aF0.0
atp972
a(I0
g971
tp973
a(I0
(lp974
F1.0
aF1.0
aF1.0
aF1.0
aF1.0
aF0.0
aF1.0
aF1.0
aF1.0
aF1.0
aF1.0
aF1.0
aF0.0
aF1.0
aF1.0
aF0.0
aF0.0
aF0.0
aF1.0
aF0.0
aF0.0
aF1.0
aF1.0
aF0.0
aF0.0
aF1.0
aF1.0
aF1.0
aF1.0
aF1.0
aF1.0
aF0.0
aF0.0
aF0.0
aF1.0
aF0.0
atp975
a(I1
g971
tp976
a(I1
g974
tp977
a(I1
(lp978
F1.0
aF1.0
aF1.0
aF0.0
aF0.0
aF1.0
aF1.0
aF1.0
aF0.0
aF0.0
aF0.0
aF1.0
aF0.0
aF1.0
aF1.0
aF1.0
aF0.0
aF0.0
aF1.0
aF1.0
aF0.0
aF1.0
aF0.0
aF0.0
aF1.0
aF1.0
aF1.0
aF1.0
aF1.0
aF0.0
aF1.0
aF0.0
aF0.0
aF1.0
aF0.0
aF0.0
atp979
a(I0
(lp980
F1.0
aF0.0
aF1.0
aF0.0
aF1.0
aF0.0
aF0.0
aF0.0
aF0.0
aF1.0
aF1.0
aF1.0
aF0.0
aF1.0
aF1.0
aF0.0
aF0.0
aF0.0
aF0.0
aF0.0
aF0.0
aF0.0
aF0.0
aF0.0
aF1.0
aF0.0
aF1.0
aF0.0
aF1.0
aF1.0
aF0.0
aF0.0
aF1.0
aF0.0
aF0.0
aF0.0
atp981
a(I1
(lp982
F1.0
aF0.0
aF1.0
aF1.0
aF1.0
aF1.0
aF0.0
aF1.0
aF1.0
aF1.0
aF1.0
aF1.0
aF0.0
aF1.0
aF1.0
aF1.0
aF1.0
aF1.0
aF0.0
aF0.0
aF1.0
aF1.0
aF0.0
aF0.0
aF1.0
aF1.0
aF0.0
aF1.0
aF0.0
aF1.0
aF1.0
aF1.0
aF0.0
aF0.0
aF0.0
aF1.0
atp983
a(I1
(lp984
F0.0
aF1.0
aF1.0
aF0.0
aF0.0
aF0.0
aF1.0
aF1.0
aF1.0
aF1.0
aF1.0
aF1.0
aF1.0
aF1.0
aF1.0
aF0.0
aF0.0
aF0.0
aF0.0
aF0.0
aF1.0
aF1.0
aF0.0
aF1.0
aF1.0
aF0.0
aF1.0
aF0.0
aF0.0
aF1.0
aF1.0
aF0.0
aF0.0
aF1.0
aF0.0
aF0.0
atp985
a(I1
(lp986
F1.0
aF1.0
aF1.0
aF1.0
aF1.0
aF1.0
aF1.0
aF1.0
aF1.0
aF1.0
aF1.0
aF1.0
aF1.0
aF1.0
aF0.0
aF1.0
aF1.0
aF0.0
aF0.0
aF0.0
aF0.0
aF1.0
aF0.0
aF0.0
aF1.0
aF1.0
aF0.0
aF0.0
aF0.0
aF1.0
aF0.0
aF0.0
aF0.0
aF1.0
aF0.0
aF0.0
atp987
a(I0
(lp988
F1.0
aF1.0
aF0.0
aF1.0
aF1.0
aF1.0
aF1.0
aF1.0
aF1.0
aF0.0
aF1.0
aF0.0
aF1.0
aF1.0
aF1.0
aF1.0
aF0.0
aF1.0
aF0.0
aF0.0
aF0.0
aF1.0
aF1.0
aF0.0
aF1.0
aF1.0
aF1.0
aF1.0
aF1.0
aF0.0
aF1.0
aF1.0
aF0.0
aF0.0
aF0.0
aF0.0
atp989
a(I0
(lp990
F1.0
aF1.0
aF1.0
aF1.0
aF0.0
aF0.0
aF0.0
aF1.0
aF1.0
aF1.0
aF0.0
aF0.0
aF1.0
aF1.0
aF1.0
aF0.0
aF0.0
aF1.0
aF1.0
aF1.0
aF1.0
aF0.0
aF0.0
aF1.0
aF1.0
aF0.0
aF1.0
aF1.0
aF1.0
aF1.0
aF0.0
aF0.0
aF0.0
aF1.0
aF0.0
aF1.0
atp991
a(I0
(lp992
F1.0
aF1.0
aF1.0
aF1.0
aF0.0
aF0.0
aF1.0
aF0.0
aF0.0
aF0.0
aF0.0
aF1.0
aF0.0
aF1.0
aF1.0
aF0.0
aF0.0
aF0.0
aF0.0
aF0.0
aF0.0
aF1.0
aF0.0
aF0.0
aF1.0
aF1.0
aF1.0
aF1.0
aF1.0
aF0.0
aF1.0
aF0.0
aF0.0
aF1.0
aF1.0
aF0.0
atp993
a(I1
(lp994
F1.0
aF1.0
aF1.0
aF1.0
aF1.0
aF0.0
aF1.0
aF1.0
aF1.0
aF1.0
aF1.0
aF0.0
aF1.0
aF0.0
aF0.0
aF1.0
aF0.0
aF0.0
aF1.0
aF0.0
aF0.0
aF0.0
aF1.0
aF0.0
aF0.0
aF1.0
aF1.0
aF1.0
aF1.0
aF0.0
aF0.0
aF0.0
aF0.0
aF1.0
aF0.0
aF0.0
atp995
a(I0
(lp996
F0.0
aF0.0
aF1.0
aF0.0
aF0.0
aF0.0
aF0.0
aF1.0
aF1.0
aF1.0
aF1.0
aF1.0
aF0.0
aF1.0
aF1.0
aF1.0
aF1.0
aF0.0
aF1.0
aF0.0
aF0.0
aF1.0
aF0.0
aF0.0
aF1.0
aF1.0
aF0.0
aF1.0
aF1.0
aF1.0
aF0.0
aF0.0
aF0.0
aF1.0
aF1.0
aF1.0
atp997
a(I0
(lp998
F1.0
aF1.0
aF1.0
aF0.0
aF0.0
aF0.0
aF1.0
aF1.0
aF0.0
aF1.0
aF1.0
aF1.0
aF1.0
aF1.0
aF1.0
aF1.0
aF0.0
aF0.0
aF1.0
aF0.0
aF0.0
aF1.0
aF0.0
aF1.0
aF1.0
aF1.0
aF0.0
aF1.0
aF1.0
aF1.0
aF1.0
aF0.0
aF0.0
aF0.0
aF1.0
aF0.0
atp999
a(I1
(lp1000
F1.0
aF1.0
aF1.0
aF0.0
aF0.0
aF0.0
aF1.0
aF1.0
aF1.0
aF1.0
aF1.0
aF1.0
aF1.0
aF1.0
aF1.0
aF0.0
aF0.0
aF0.0
aF1.0
aF0.0
aF0.0
aF0.0
aF0.0
aF1.0
aF0.0
aF1.0
aF0.0
aF1.0
aF1.0
aF1.0
aF0.0
aF0.0
aF0.0
aF1.0
aF0.0
aF0.0
atp1001
a(I0
(lp1002
F1.0
aF0.0
aF0.0
aF1.0
aF1.0
aF0.0
aF1.0
aF0.0
aF1.0
aF1.0
aF0.0
aF1.0
aF1.0
aF1.0
aF1.0
aF1.0
aF1.0
aF0.0
aF1.0
aF0.0
aF0.0
aF1.0
aF0.0
aF1.0
aF1.0
aF1.0
aF1.0
aF0.0
aF0.0
aF1.0
aF0.0
aF1.0
aF1.0
aF1.0
aF0.0
aF0.0
atp1003
a(I0
g1002
tp1004
a(I0
(lp1005
F0.0
aF0.0
aF1.0
aF1.0
aF0.0
aF1.0
aF0.0
aF1.0
aF1.0
aF0.0
aF1.0
aF1.0
aF1.0
aF1.0
aF0.0
aF0.0
aF0.0
aF0.0
aF0.0
aF0.0
aF0.0
aF1.0
aF1.0
aF0.0
aF0.0
aF1.0
aF0.0
aF0.0
aF0.0
aF0.0
aF0.0
aF0.0
aF0.0
aF1.0
aF0.0
aF0.0
atp1006
a(I0
g1002
tp1007
a(I0
g1005
tp1008
a(I0
(lp1009
F1.0
aF1.0
aF0.0
aF1.0
aF0.0
aF0.0
aF1.0
aF1.0
aF0.0
aF0.0
aF1.0
aF1.0
aF1.0
aF1.0
aF1.0
aF1.0
aF0.0
aF0.0
aF1.0
aF1.0
aF0.0
aF1.0
aF1.0
aF1.0
aF1.0
aF1.0
aF1.0
aF0.0
aF1.0
aF0.0
aF0.0
aF0.0
aF1.0
aF0.0
aF0.0
aF0.0
atp1010
a(I0
(lp1011
F0.0
aF1.0
aF1.0
aF1.0
aF0.0
aF0.0
aF1.0
aF1.0
aF1.0
aF1.0
aF0.0
aF0.0
aF1.0
aF0.0
aF1.0
aF1.0
aF0.0
aF0.0
aF1.0
aF0.0
aF0.0
aF1.0
aF1.0
aF0.0
aF1.0
aF0.0
aF0.0
aF1.0
aF0.0
aF0.0
aF0.0
aF1.0
aF0.0
aF1.0
aF0.0
aF0.0
atp1012
a(I0
g1011
tp1013
a(I0
(lp1014
F0.0
aF1.0
aF1.0
aF1.0
aF0.0
aF0.0
aF0.0
aF0.0
aF1.0
aF0.0
aF0.0
aF0.0
aF1.0
aF1.0
aF1.0
aF0.0
aF0.0
aF0.0
aF1.0
aF0.0
aF1.0
aF1.0
aF0.0
aF1.0
aF1.0
aF1.0
aF1.0
aF1.0
aF0.0
aF0.0
aF1.0
aF1.0
aF0.0
aF1.0
aF0.0
aF0.0
atp1015
a(I0
g1011
tp1016
a(I0
g1014
tp1017
a(I0
(lp1018
F1.0
aF1.0
aF1.0
aF1.0
aF1.0
aF1.0
aF1.0
aF1.0
aF1.0
aF1.0
aF0.0
aF0.0
aF1.0
aF1.0
aF0.0
aF1.0
aF1.0
aF0.0
aF1.0
aF0.0
aF0.0
aF1.0
aF0.0
aF0.0
aF1.0
aF1.0
aF1.0
aF1.0
aF0.0
aF1.0
aF0.0
aF0.0
aF1.0
aF1.0
aF0.0
aF0.0
atp1019
a(I0
(lp1020
F0.0
aF0.0
aF1.0
aF1.0
aF0.0
aF0.0
aF1.0
aF1.0
aF1.0
aF0.0
aF0.0
aF1.0
aF0.0
aF0.0
aF1.0
aF1.0
aF0.0
aF0.0
aF1.0
aF1.0
aF0.0
aF1.0
aF0.0
aF1.0
aF1.0
aF1.0
aF1.0
aF1.0
aF1.0
aF0.0
aF0.0
aF0.0
aF0.0
aF1.0
aF0.0
aF0.0
atp1021
a(I1
g1020
tp1022
a(I1
(lp1023
F1.0
aF1.0
aF1.0
aF1.0
aF0.0
aF0.0
aF1.0
aF0.0
aF0.0
aF1.0
aF1.0
aF0.0
aF0.0
aF1.0
aF0.0
aF0.0
aF0.0
aF0.0
aF1.0
aF0.0
aF0.0
aF1.0
aF1.0
aF0.0
aF0.0
aF0.0
aF0.0
aF1.0
aF0.0
aF1.0
aF0.0
aF0.0
aF0.0
aF1.0
aF0.0
aF0.0
atp1024
a(I0
(lp1025
F0.0
aF1.0
aF1.0
aF1.0
aF1.0
aF0.0
aF1.0
aF1.0
aF1.0
aF1.0
aF1.0
aF1.0
aF1.0
aF1.0
aF1.0
aF1.0
aF0.0
aF0.0
aF1.0
aF1.0
aF1.0
aF0.0
aF0.0
aF0.0
aF0.0
aF1.0
aF0.0
aF0.0
aF0.0
aF1.0
aF1.0
aF1.0
aF0.0
aF0.0
aF0.0
aF1.0
atp1026
a(I0
(lp1027
F1.0
aF0.0
aF1.0
aF0.0
aF0.0
aF0.0
aF1.0
aF1.0
aF1.0
aF1.0
aF1.0
aF1.0
aF0.0
aF1.0
aF1.0
aF1.0
aF0.0
aF0.0
aF1.0
aF1.0
aF0.0
aF1.0
aF0.0
aF0.0
aF1.0
aF0.0
aF0.0
aF1.0
aF0.0
aF1.0
aF1.0
aF1.0
aF1.0
aF1.0
aF0.0
aF0.0
atp1028
a(I0
(lp1029
F1.0
aF0.0
aF1.0
aF1.0
aF1.0
aF1.0
aF1.0
aF1.0
aF1.0
aF1.0
aF1.0
aF1.0
aF0.0
aF1.0
aF1.0
aF0.0
aF1.0
aF0.0
aF1.0
aF0.0
aF0.0
aF1.0
aF1.0
aF1.0
aF0.0
aF1.0
aF1.0
aF1.0
aF1.0
aF1.0
aF0.0
aF0.0
aF0.0
aF0.0
aF1.0
aF0.0
atp1030
a(I0
(lp1031
F1.0
aF1.0
aF1.0
aF0.0
aF0.0
aF0.0
aF0.0
aF0.0
aF1.0
aF1.0
aF1.0
aF0.0
aF1.0
aF0.0
aF1.0
aF0.0
aF0.0
aF0.0
aF1.0
aF1.0
aF1.0
aF1.0
aF0.0
aF0.0
aF1.0
aF1.0
aF0.0
aF0.0
aF0.0
aF1.0
aF1.0
aF0.0
aF0.0
aF1.0
aF1.0
aF0.0
atp1032
a(I0
g1031
tp1033
a(I0
(lp1034
F1.0
aF1.0
aF1.0
aF1.0
aF1.0
aF1.0
aF1.0
aF1.0
aF0.0
aF0.0
aF1.0
aF1.0
aF0.0
aF1.0
aF1.0
aF0.0
aF0.0
aF0.0
aF1.0
aF1.0
aF0.0
aF1.0
aF0.0
aF1.0
aF1.0
aF1.0
aF0.0
aF0.0
aF1.0
aF1.0
aF1.0
aF0.0
aF0.0
aF1.0
aF0.0
aF0.0
atp1035
a(I0
(lp1036
F1.0
aF1.0
aF0.0
aF1.0
aF0.0
aF0.0
aF1.0
aF1.0
aF1.0
aF1.0
aF1.0
aF1.0
aF0.0
aF0.0
aF0.0
aF1.0
aF0.0
aF0.0
aF1.0
aF0.0
aF0.0
aF1.0
aF0.0
aF1.0
aF1.0
aF1.0
aF0.0
aF1.0
aF1.0
aF1.0
aF0.0
aF0.0
aF0.0
aF1.0
aF0.0
aF0.0
atp1037
a(I0
(lp1038
F0.0
aF1.0
aF1.0
aF1.0
aF0.0
aF1.0
aF1.0
aF0.0
aF1.0
aF0.0
aF0.0
aF1.0
aF1.0
aF0.0
aF1.0
aF1.0
aF1.0
aF0.0
aF1.0
aF0.0
aF0.0
aF1.0
aF0.0
aF1.0
aF0.0
aF0.0
aF0.0
aF1.0
aF1.0
aF0.0
aF0.0
aF0.0
aF1.0
aF1.0
aF1.0
aF0.0
atp1039
a(I0
(lp1040
F1.0
aF1.0
aF0.0
aF1.0
aF1.0
aF0.0
aF1.0
aF0.0
aF1.0
aF0.0
aF1.0
aF1.0
aF1.0
aF1.0
aF1.0
aF0.0
aF0.0
aF1.0
aF1.0
aF0.0
aF0.0
aF0.0
aF1.0
aF1.0
aF1.0
aF1.0
aF1.0
aF0.0
aF0.0
aF0.0
aF1.0
aF0.0
aF1.0
aF1.0
aF0.0
aF0.0
atp1041
a(I0
(lp1042
F1.0
aF1.0
aF0.0
aF1.0
aF0.0
aF0.0
aF1.0
aF1.0
aF1.0
aF0.0
aF1.0
aF1.0
aF1.0
aF1.0
aF1.0
aF0.0
aF0.0
aF0.0
aF1.0
aF1.0
aF0.0
aF1.0
aF1.0
aF0.0
aF1.0
aF1.0
aF0.0
aF0.0
aF1.0
aF1.0
aF1.0
aF0.0
aF0.0
aF0.0
aF0.0
aF0.0
atp1043
a(I1
g1042
tp1044
a(I1
(lp1045
F1.0
aF0.0
aF1.0
aF0.0
aF0.0
aF0.0
aF1.0
aF1.0
aF1.0
aF1.0
aF1.0
aF1.0
aF0.0
aF1.0
aF1.0
aF0.0
aF0.0
aF0.0
aF1.0
aF0.0
aF0.0
aF1.0
aF0.0
aF1.0
aF0.0
aF1.0
aF0.0
aF1.0
aF1.0
aF0.0
aF1.0
aF1.0
aF0.0
aF1.0
aF0.0
aF0.0
atp1046
a(I0
g1042
tp1047
a(I0
g1045
tp1048
a(I0
(lp1049
F1.0
aF0.0
aF1.0
aF1.0
aF0.0
aF1.0
aF1.0
aF1.0
aF0.0
aF1.0
aF1.0
aF0.0
aF1.0
aF1.0
aF1.0
aF1.0
aF0.0
aF0.0
aF0.0
aF0.0
aF0.0
aF1.0
aF0.0
aF0.0
aF1.0
aF1.0
aF1.0
aF1.0
aF1.0
aF0.0
aF0.0
aF0.0
aF0.0
aF0.0
aF0.0
aF0.0
atp1050
a(I0
(lp1051
F1.0
aF1.0
aF1.0
aF0.0
aF0.0
aF1.0
aF1.0
aF0.0
aF1.0
aF0.0
aF1.0
aF1.0
aF1.0
aF1.0
aF1.0
aF1.0
aF0.0
aF0.0
aF1.0
aF1.0
aF0.0
aF1.0
aF0.0
aF0.0
aF0.0
aF1.0
aF1.0
aF0.0
aF1.0
aF0.0
aF1.0
aF0.0
aF0.0
aF0.0
aF1.0
aF0.0
atp1052
a(I0
g1051
tp1053
a(I0
(lp1054
F0.0
aF1.0
aF1.0
aF0.0
aF1.0
aF1.0
aF1.0
aF1.0
aF1.0
aF1.0
aF1.0
aF1.0
aF0.0
aF1.0
aF1.0
aF0.0
aF0.0
aF0.0
aF0.0
aF0.0
aF0.0
aF0.0
aF0.0
aF1.0
aF1.0
aF0.0
aF0.0
aF1.0
aF1.0
aF1.0
aF1.0
aF0.0
aF0.0
aF1.0
aF1.0
aF0.0
atp1055
a(I0
g1051
tp1056
a(I0
g1054
tp1057
a(I0
(lp1058
F0.0
aF0.0
aF0.0
aF1.0
aF0.0
aF0.0
aF0.0
aF1.0
aF1.0
aF1.0
aF1.0
aF1.0
aF1.0
aF1.0
aF1.0
aF1.0
aF1.0
aF1.0
aF1.0
aF0.0
aF0.0
aF1.0
aF1.0
aF1.0
aF0.0
aF1.0
aF1.0
aF1.0
aF1.0
aF1.0
aF0.0
aF0.0
aF0.0
aF1.0
aF1.0
aF0.0
atp1059
a(I0
(lp1060
F1.0
aF1.0
aF1.0
aF1.0
aF0.0
aF0.0
aF1.0
aF0.0
aF1.0
aF1.0
aF1.0
aF1.0
aF1.0
aF0.0
aF1.0
aF1.0
aF0.0
aF0.0
aF0.0
aF0.0
aF0.0
aF1.0
aF1.0
aF1.0
aF0.0
aF0.0
aF1.0
aF1.0
aF0.0
aF0.0
aF0.0
aF1.0
aF1.0
aF0.0
aF0.0
aF1.0
atp1061
a(I0
(lp1062
F1.0
aF1.0
aF1.0
aF0.0
aF0.0
aF0.0
aF0.0
aF1.0
aF1.0
aF1.0
aF1.0
aF1.0
aF1.0
aF0.0
aF0.0
aF1.0
aF0.0
aF0.0
aF0.0
aF0.0
aF1.0
aF1.0
aF0.0
aF0.0
aF1.0
aF1.0
aF0.0
aF0.0
aF0.0
aF0.0
aF1.0
aF0.0
aF0.0
aF1.0
aF0.0
aF0.0
atp1063
a(I0
(lp1064
F1.0
aF1.0
aF1.0
aF1.0
aF0.0
aF0.0
aF1.0
aF1.0
aF0.0
aF1.0
aF0.0
aF0.0
aF1.0
aF1.0
aF1.0
aF0.0
aF0.0
aF0.0
aF1.0
aF0.0
aF1.0
aF1.0
aF0.0
aF0.0
aF0.0
aF1.0
aF1.0
aF1.0
aF1.0
aF1.0
aF0.0
aF0.0
aF1.0
aF0.0
aF0.0
aF0.0
atp1065
a(I1
g1064
tp1066
a(I1
(lp1067
F1.0
aF1.0
aF1.0
aF0.0
aF0.0
aF1.0
aF1.0
aF0.0
aF0.0
aF1.0
aF1.0
aF1.0
aF1.0
aF0.0
aF0.0
aF1.0
aF0.0
aF0.0
aF1.0
aF0.0
aF1.0
aF0.0
aF0.0
aF0.0
aF0.0
aF0.0
aF1.0
aF1.0
aF1.0
aF0.0
aF0.0
aF0.0
aF0.0
aF1.0
aF0.0
aF0.0
atp1068
a(I0
g1064
tp1069
a(I0
g1067
tp1070
a(I0
(lp1071
F1.0
aF1.0
aF0.0
aF1.0
aF0.0
aF0.0
aF1.0
aF1.0
aF1.0
aF1.0
aF1.0
aF0.0
aF1.0
aF1.0
aF1.0
aF1.0
aF1.0
aF0.0
aF1.0
aF0.0
aF1.0
aF0.0
aF0.0
aF0.0
aF0.0
aF1.0
aF1.0
aF0.0
aF1.0
aF0.0
aF0.0
aF1.0
aF0.0
aF0.0
aF0.0
aF0.0
atp1072
a(I1
g1064
tp1073
a(I1
g1067
tp1074
a(I1
g1071
tp1075
a(I1
(lp1076
F1.0
aF1.0
aF1.0
aF1.0
aF1.0
aF0.0
aF1.0
aF1.0
aF1.0
aF1.0
aF1.0
aF1.0
aF1.0
aF1.0
aF1.0
aF0.0
aF1.0
aF0.0
aF0.0
aF0.0
aF0.0
aF1.0
aF0.0
aF0.0
aF0.0
aF1.0
aF0.0
aF1.0
aF1.0
aF1.0
aF1.0
aF0.0
aF1.0
aF1.0
aF0.0
aF0.0
atp1077
a(I1
g1064
tp1078
a(I1
g1067
tp1079
a(I1
g1071
tp1080
a(I1
g1076
tp1081
a(I1
(lp1082
F0.0
aF1.0
aF0.0
aF1.0
aF0.0
aF0.0
aF1.0
aF1.0
aF1.0
aF1.0
aF1.0
aF1.0
aF1.0
aF1.0
aF0.0
aF1.0
aF1.0
aF0.0
aF1.0
aF0.0
aF0.0
aF1.0
aF0.0
aF1.0
aF1.0
aF1.0
aF1.0
aF0.0
aF0.0
aF1.0
aF1.0
aF0.0
aF0.0
aF1.0
aF0.0
aF0.0
atp1083
a(I1
g1064
tp1084
a(I1
g1067
tp1085
a(I1
g1071
tp1086
a(I1
g1076
tp1087
a(I1
g1082
tp1088
a(I1
(lp1089
F1.0
aF1.0
aF1.0
aF1.0
aF0.0
aF1.0
aF0.0
aF0.0
aF1.0
aF1.0
aF1.0
aF1.0
aF1.0
aF0.0
aF1.0
aF0.0
aF0.0
aF0.0
aF1.0
aF0.0
aF1.0
aF1.0
aF0.0
aF1.0
aF0.0
aF1.0
aF0.0
aF1.0
aF1.0
aF1.0
aF1.0
aF0.0
aF0.0
aF0.0
aF0.0
aF1.0
atp1090
a(I1
(lp1091
F1.0
aF1.0
aF1.0
aF1.0
aF0.0
aF0.0
aF1.0
aF1.0
aF1.0
aF1.0
aF1.0
aF1.0
aF1.0
aF1.0
aF1.0
aF1.0
aF0.0
aF0.0
aF1.0
aF0.0
aF0.0
aF1.0
aF0.0
aF1.0
aF1.0
aF1.0
aF1.0
aF1.0
aF0.0
aF1.0
aF1.0
aF0.0
aF1.0
aF1.0
aF0.0
aF0.0
atp1092
a(I0
(lp1093
F1.0
aF0.0
aF0.0
aF0.0
aF0.0
aF0.0
aF0.0
aF1.0
aF1.0
aF1.0
aF1.0
aF1.0
aF1.0
aF0.0
aF1.0
aF0.0
aF0.0
aF0.0
aF0.0
aF0.0
aF1.0
aF1.0
aF1.0
aF1.0
aF1.0
aF1.0
aF1.0
aF1.0
aF0.0
aF1.0
aF0.0
aF0.0
aF0.0
aF1.0
aF0.0
aF0.0
atp1094
a(I1
(lp1095
F1.0
aF1.0
aF1.0
aF1.0
aF0.0
aF0.0
aF1.0
aF1.0
aF1.0
aF1.0
aF1.0
aF1.0
aF1.0
aF0.0
aF1.0
aF1.0
aF1.0
aF0.0
aF1.0
aF1.0
aF1.0
aF1.0
aF0.0
aF1.0
aF1.0
aF1.0
aF1.0
aF1.0
aF1.0
aF1.0
aF0.0
aF0.0
aF0.0
aF1.0
aF0.0
aF0.0
atp1096
a(I0
(lp1097
F1.0
aF0.0
aF1.0
aF0.0
aF0.0
aF0.0
aF0.0
aF1.0
aF0.0
aF1.0
aF1.0
aF1.0
aF1.0
aF1.0
aF1.0
aF0.0
aF0.0
aF1.0
aF1.0
aF0.0
aF0.0
aF1.0
aF0.0
aF0.0
aF1.0
aF1.0
aF1.0
aF1.0
aF1.0
aF0.0
aF1.0
aF0.0
aF0.0
aF1.0
aF0.0
aF1.0
atp1098
a(I0
(lp1099
F0.0
aF1.0
aF1.0
aF1.0
aF0.0
aF0.0
aF1.0
aF1.0
aF1.0
aF0.0
aF1.0
aF1.0
aF1.0
aF1.0
aF1.0
aF0.0
aF1.0
aF0.0
aF0.0
aF0.0
aF0.0
aF1.0
aF0.0
aF1.0
aF1.0
aF1.0
aF1.0
aF1.0
aF1.0
aF1.0
aF0.0
aF0.0
aF0.0
aF1.0
aF0.0
aF0.0
atp1100
a(I0
(lp1101
F0.0
aF1.0
aF1.0
aF1.0
aF0.0
aF0.0
aF1.0
aF1.0
aF0.0
aF1.0
aF1.0
aF1.0
aF1.0
aF1.0
aF1.0
aF0.0
aF0.0
aF0.0
aF1.0
aF0.0
aF1.0
aF0.0
aF0.0
aF0.0
aF0.0
aF1.0
aF1.0
aF1.0
aF0.0
aF1.0
aF0.0
aF0.0
aF0.0
aF1.0
aF1.0
aF1.0
atp1102
a(I0
(lp1103
F1.0
aF0.0
aF1.0
aF0.0
aF1.0
aF1.0
aF1.0
aF1.0
aF1.0
aF1.0
aF1.0
aF1.0
aF1.0
aF1.0
aF1.0
aF0.0
aF0.0
aF0.0
aF1.0
aF1.0
aF0.0
aF1.0
aF1.0
aF1.0
aF1.0
aF1.0
aF1.0
aF1.0
aF1.0
aF1.0
aF0.0
aF0.0
aF0.0
aF0.0
aF1.0
aF0.0
atp1104
a(I0
(lp1105
F1.0
aF1.0
aF1.0
aF0.0
aF0.0
aF0.0
aF0.0
aF1.0
aF1.0
aF1.0
aF1.0
aF1.0
aF1.0
aF1.0
aF1.0
aF0.0
aF0.0
aF0.0
aF1.0
aF0.0
aF0.0
aF1.0
aF1.0
aF0.0
aF0.0
aF1.0
aF1.0
aF1.0
aF1.0
aF1.0
aF1.0
aF0.0
aF0.0
aF1.0
aF0.0
aF1.0
atp1106
a(I0
(lp1107
F0.0
aF1.0
aF1.0
aF1.0
aF0.0
aF0.0
aF1.0
aF1.0
aF1.0
aF1.0
aF1.0
aF0.0
aF1.0
aF0.0
aF1.0
aF0.0
aF1.0
aF0.0
aF1.0
aF0.0
aF0.0
aF1.0
aF0.0
aF0.0
aF1.0
aF1.0
aF1.0
aF0.0
aF0.0
aF0.0
aF0.0
aF0.0
aF0.0
aF1.0
aF1.0
aF0.0
atp1108
a(I0
g1107
tp1109
a(I0
(lp1110
F1.0
aF0.0
aF1.0
aF1.0
aF0.0
aF1.0
aF1.0
aF1.0
aF1.0
aF1.0
aF0.0
aF1.0
aF1.0
aF1.0
aF1.0
aF1.0
aF1.0
aF0.0
aF1.0
aF0.0
aF0.0
aF1.0
aF0.0
aF0.0
aF1.0
aF1.0
aF1.0
aF0.0
aF0.0
aF0.0
aF0.0
aF0.0
aF0.0
aF0.0
aF1.0
aF0.0
atp1111
a(I1
g1107
tp1112
a(I1
g1110
tp1113
a(I1
(lp1114
F0.0
aF1.0
aF1.0
aF1.0
aF1.0
aF0.0
aF1.0
aF1.0
aF1.0
aF1.0
aF0.0
aF0.0
aF1.0
aF1.0
aF1.0
aF1.0
aF1.0
aF0.0
aF0.0
aF0.0
aF0.0
aF1.0
aF1.0
aF0.0
aF0.0
aF1.0
aF0.0
aF1.0
aF1.0
aF1.0
aF1.0
aF1.0
aF1.0
aF0.0
aF0.0
aF0.0
atp1115
a(I0
(lp1116
F1.0
aF0.0
aF1.0
aF1.0
aF0.0
aF1.0
aF1.0
aF1.0
aF0.0
aF1.0
aF1.0
aF1.0
aF1.0
aF1.0
aF1.0
aF0.0
aF0.0
aF0.0
aF0.0
aF1.0
aF0.0
aF1.0
aF0.0
aF0.0
aF0.0
aF1.0
aF1.0
aF1.0
aF1.0
aF1.0
aF1.0
aF1.0
aF0.0
aF1.0
aF0.0
aF1.0
atp1117
a(I0
(lp1118
F1.0
aF1.0
aF1.0
aF0.0
aF0.0
aF1.0
aF1.0
aF1.0
aF1.0
aF1.0
aF1.0
aF1.0
aF1.0
aF1.0
aF1.0
aF0.0
aF0.0
aF0.0
aF1.0
aF0.0
aF0.0
aF1.0
aF0.0
aF1.0
aF0.0
aF1.0
aF1.0
aF0.0
aF0.0
aF1.0
aF0.0
aF1.0
aF1.0
aF1.0
aF0.0
aF1.0
atp1119
a(I0
(lp1120
F1.0
aF1.0
aF0.0
aF1.0
aF0.0
aF0.0
aF1.0
aF1.0
aF1.0
aF1.0
aF1.0
aF1.0
aF1.0
aF1.0
aF1.0
aF1.0
aF1.0
aF0.0
aF0.0
aF0.0
aF0.0
aF1.0
aF0.0
aF0.0
aF0.0
aF0.0
aF1.0
aF1.0
aF0.0
aF1.0
aF1.0
aF0.0
aF0.0
aF0.0
aF0.0
aF1.0
atp1121
a(I0
(lp1122
F1.0
aF1.0
aF1.0
aF1.0
aF1.0
aF1.0
aF1.0
aF1.0
aF1.0
aF0.0
aF1.0
aF1.0
aF0.0
aF1.0
aF1.0
aF1.0
aF0.0
aF0.0
aF1.0
aF1.0
aF0.0
aF1.0
aF1.0
aF0.0
aF1.0
aF1.0
aF1.0
aF1.0
aF1.0
aF0.0
aF1.0
aF1.0
aF0.0
aF0.0
aF1.0
aF0.0
atp1123
a(I0
(lp1124
F1.0
aF1.0
aF0.0
aF1.0
aF0.0
aF0.0
aF1.0
aF0.0
aF1.0
aF0.0
aF0.0
aF0.0
aF1.0
aF1.0
aF1.0
aF0.0
aF0.0
aF0.0
aF1.0
aF0.0
aF0.0
aF1.0
aF0.0
aF1.0
aF1.0
aF1.0
aF1.0
aF0.0
aF1.0
aF0.0
aF0.0
aF1.0
aF0.0
aF1.0
aF1.0
aF0.0
atp1125
a(I0
(lp1126
F0.0
aF1.0
aF1.0
aF0.0
aF1.0
aF0.0
aF1.0
aF1.0
aF1.0
aF0.0
aF1.0
aF1.0
aF1.0
aF1.0
aF1.0
aF1.0
aF1.0
aF1.0
aF1.0
aF1.0
aF0.0
aF1.0
aF1.0
aF1.0
aF0.0
aF0.0
aF1.0
aF0.0
aF1.0
aF1.0
aF0.0
aF0.0
aF0.0
aF0.0
aF0.0
aF0.0
atp1127
a(I0
(lp1128
F1.0
aF1.0
aF1.0
aF0.0
aF1.0
aF0.0
aF1.0
aF1.0
aF1.0
aF1.0
aF1.0
aF1.0
aF1.0
aF0.0
aF1.0
aF1.0
aF0.0
aF0.0
aF0.0
aF0.0
aF0.0
aF1.0
aF0.0
aF1.0
aF1.0
aF1.0
aF1.0
aF0.0
aF1.0
aF1.0
aF1.0
aF1.0
aF0.0
aF0.0
aF1.0
aF0.0
atp1129
a(I0
(lp1130
F0.0
aF1.0
aF1.0
aF1.0
aF0.0
aF0.0
aF0.0
aF1.0
aF1.0
aF1.0
aF1.0
aF1.0
aF1.0
aF0.0
aF1.0
aF1.0
aF1.0
aF0.0
aF1.0
aF1.0
aF0.0
aF1.0
aF0.0
aF0.0
aF0.0
aF0.0
aF1.0
aF1.0
aF1.0
aF0.0
aF0.0
aF0.0
aF0.0
aF0.0
aF0.0
aF0.0
atp1131
a(I0
(lp1132
F1.0
aF1.0
aF0.0
aF1.0
aF0.0
aF1.0
aF1.0
aF1.0
aF1.0
aF1.0
aF0.0
aF1.0
aF0.0
aF1.0
aF1.0
aF0.0
aF0.0
aF0.0
aF1.0
aF0.0
aF0.0
aF0.0
aF0.0
aF1.0
aF0.0
aF1.0
aF1.0
aF1.0
aF0.0
aF1.0
aF0.0
aF0.0
aF0.0
aF1.0
aF0.0
aF0.0
atp1133
a(I0
(lp1134
F0.0
aF1.0
aF1.0
aF1.0
aF0.0
aF0.0
aF1.0
aF1.0
aF1.0
aF0.0
aF1.0
aF1.0
aF1.0
aF1.0
aF1.0
aF0.0
aF0.0
aF1.0
aF1.0
aF0.0
aF0.0
aF1.0
aF0.0
aF0.0
aF1.0
aF1.0
aF1.0
aF1.0
aF1.0
aF1.0
aF0.0
aF1.0
aF0.0
aF1.0
aF0.0
aF0.0
atp1135
a(I0
(lp1136
F1.0
aF1.0
aF1.0
aF1.0
aF0.0
aF1.0
aF1.0
aF1.0
aF1.0
aF1.0
aF1.0
aF1.0
aF1.0
aF1.0
aF0.0
aF1.0
aF0.0
aF0.0
aF1.0
aF0.0
aF0.0
aF0.0
aF1.0
aF0.0
aF1.0
aF1.0
aF0.0
aF1.0
aF1.0
aF0.0
aF0.0
aF0.0
aF0.0
aF1.0
aF0.0
aF0.0
atp1137
a(I0
(lp1138
F0.0
aF0.0
aF1.0
aF1.0
aF1.0
aF0.0
aF1.0
aF1.0
aF0.0
aF1.0
aF1.0
aF1.0
aF0.0
aF0.0
aF0.0
aF1.0
aF1.0
aF0.0
aF1.0
aF1.0
aF0.0
aF0.0
aF1.0
aF1.0
aF0.0
aF0.0
aF1.0
aF1.0
aF1.0
aF1.0
aF1.0
aF1.0
aF0.0
aF1.0
aF0.0
aF0.0
atp1139
a(I0
(lp1140
F1.0
aF0.0
aF1.0
aF0.0
aF0.0
aF0.0
aF1.0
aF1.0
aF1.0
aF1.0
aF1.0
aF0.0
aF0.0
aF0.0
aF1.0
aF1.0
aF0.0
aF0.0
aF1.0
aF0.0
aF0.0
aF1.0
aF1.0
aF1.0
aF0.0
aF0.0
aF0.0
aF1.0
aF1.0
aF0.0
aF0.0
aF0.0
aF0.0
aF0.0
aF0.0
aF0.0
atp1141
a(I0
(lp1142
F0.0
aF1.0
aF1.0
aF1.0
aF0.0
aF0.0
aF1.0
aF1.0
aF0.0
aF1.0
aF1.0
aF1.0
aF1.0
aF1.0
aF1.0
aF1.0
aF0.0
aF0.0
aF1.0
aF1.0
aF0.0
aF1.0
aF1.0
aF1.0
aF0.0
aF0.0
aF1.0
aF1.0
aF0.0
aF1.0
aF1.0
aF0.0
aF0.0
aF0.0
aF0.0
aF1.0
atp1143
a(I0
(lp1144
F1.0
aF1.0
aF1.0
aF1.0
aF1.0
aF1.0
aF1.0
aF1.0
aF1.0
aF1.0
aF1.0
aF1.0
aF1.0
aF1.0
aF0.0
aF1.0
aF0.0
aF0.0
aF0.0
aF0.0
aF0.0
aF1.0
aF0.0
aF1.0
aF0.0
aF1.0
aF1.0
aF0.0
aF1.0
aF1.0
aF0.0
aF1.0
aF1.0
aF1.0
aF0.0
aF0.0
atp1145
a(I1
g1144
tp1146
a(I1
(lp1147
F0.0
aF1.0
aF1.0
aF0.0
aF0.0
aF0.0
aF1.0
aF1.0
aF1.0
aF0.0
aF1.0
aF1.0
aF0.0
aF1.0
aF1.0
aF1.0
aF0.0
aF1.0
aF0.0
aF1.0
aF1.0
aF1.0
aF0.0
aF1.0
aF1.0
aF0.0
aF0.0
aF0.0
aF0.0
aF1.0
aF0.0
aF0.0
aF0.0
aF1.0
aF0.0
aF0.0
atp1148
a(I0
(lp1149
F1.0
aF0.0
aF1.0
aF1.0
aF0.0
aF0.0
aF1.0
aF1.0
aF0.0
aF0.0
aF1.0
aF1.0
aF1.0
aF0.0
aF1.0
aF1.0
aF1.0
aF0.0
aF1.0
aF0.0
aF0.0
aF1.0
aF0.0
aF0.0
aF1.0
aF1.0
aF0.0
aF1.0
aF1.0
aF1.0
aF0.0
aF0.0
aF0.0
aF1.0
aF0.0
aF0.0
atp1150
a(I0
(lp1151
F1.0
aF1.0
aF1.0
aF0.0
aF0.0
aF0.0
aF1.0
aF1.0
aF0.0
aF0.0
aF1.0
aF1.0
aF1.0
aF1.0
aF1.0
aF1.0
aF0.0
aF1.0
aF1.0
aF0.0
aF0.0
aF1.0
aF0.0
aF0.0
aF1.0
aF1.0
aF0.0
aF0.0
aF1.0
aF0.0
aF1.0
aF1.0
aF1.0
aF0.0
aF0.0
aF0.0
atp1152
a(I0
(lp1153
F0.0
aF1.0
aF0.0
aF0.0
aF0.0
aF0.0
aF1.0
aF0.0
aF1.0
aF1.0
aF1.0
aF0.0
aF1.0
aF1.0
aF1.0
aF1.0
aF1.0
aF0.0
aF0.0
aF0.0
aF0.0
aF1.0
aF1.0
aF0.0
aF0.0
aF1.0
aF0.0
aF1.0
aF1.0
aF1.0
aF0.0
aF0.0
aF0.0
aF1.0
aF0.0
aF1.0
atp1154
a(I0
(lp1155
F0.0
aF1.0
aF1.0
aF1.0
aF0.0
aF0.0
aF0.0
aF1.0
aF1.0
aF1.0
aF1.0
aF0.0
aF1.0
aF0.0
aF1.0
aF0.0
aF0.0
aF0.0
aF1.0
aF0.0
aF0.0
aF1.0
aF0.0
aF0.0
aF1.0
aF1.0
aF1.0
aF1.0
aF1.0
aF0.0
aF1.0
aF0.0
aF1.0
aF0.0
aF0.0
aF1.0
atp1156
a(I1
g1155
tp1157
a(I1
(lp1158
F0.0
aF1.0
aF1.0
aF1.0
aF0.0
aF0.0
aF1.0
aF1.0
aF1.0
aF0.0
aF0.0
aF0.0
aF1.0
aF1.0
aF1.0
aF1.0
aF0.0
aF0.0
aF0.0
aF0.0
aF0.0
aF0.0
aF0.0
aF1.0
aF0.0
aF1.0
aF1.0
aF1.0
aF1.0
aF1.0
aF1.0
aF0.0
aF0.0
aF1.0
aF0.0
aF0.0
atp1159
a(I0
g1155
tp1160
a(I0
g1158
tp1161
a(I0
(lp1162
F1.0
aF1.0
aF1.0
aF1.0
aF0.0
aF1.0
aF1.0
aF1.0
aF0.0
aF1.0
aF0.0
aF1.0
aF1.0
aF1.0
aF0.0
aF1.0
aF0.0
aF0.0
aF1.0
aF1.0
aF1.0
aF0.0
aF0.0
aF1.0
aF1.0
aF1.0
aF1.0
aF1.0
aF0.0
aF1.0
aF1.0
aF1.0
aF0.0
aF1.0
aF1.0
aF0.0
atp1163
a(I0
(lp1164
F0.0
aF1.0
aF1.0
aF1.0
aF0.0
aF0.0
aF1.0
aF0.0
aF1.0
aF1.0
aF1.0
aF1.0
aF0.0
aF1.0
aF0.0
aF0.0
aF0.0
aF1.0
aF0.0
aF1.0
aF0.0
aF1.0
aF0.0
aF0.0
aF1.0
aF1.0
aF1.0
aF1.0
aF0.0
aF0.0
aF1.0
aF0.0
aF0.0
aF1.0
aF0.0
aF1.0
atp1165
a(I0
g1164
tp1166
a(I0
(lp1167
F1.0
aF0.0
aF1.0
aF1.0
aF0.0
aF0.0
aF1.0
aF1.0
aF1.0
aF1.0
aF1.0
aF0.0
aF1.0
aF1.0
aF1.0
aF0.0
aF0.0
aF0.0
aF1.0
aF1.0
aF0.0
aF1.0
aF0.0
aF0.0
aF1.0
aF1.0
aF1.0
aF1.0
aF1.0
aF0.0
aF1.0
aF0.0
aF0.0
aF0.0
aF1.0
aF0.0
atp1168
a(I0
g1164
tp1169
a(I0
g1167
tp1170
a(I0
(lp1171
F1.0
aF1.0
aF1.0
aF1.0
aF0.0
aF1.0
aF1.0
aF1.0
aF1.0
aF1.0
aF1.0
aF1.0
aF1.0
aF0.0
aF1.0
aF1.0
aF1.0
aF0.0
aF1.0
aF0.0
aF0.0
aF1.0
aF1.0
aF0.0
aF0.0
aF1.0
aF1.0
aF1.0
aF1.0
aF1.0
aF1.0
aF0.0
aF0.0
aF1.0
aF0.0
aF0.0
atp1172
a(I0
g1164
tp1173
a(I0
g1167
tp1174
a(I0
g1171
tp1175
a(I0
(lp1176
F1.0
aF0.0
aF1.0
aF1.0
aF1.0
aF0.0
aF1.0
aF1.0
aF1.0
aF1.0
aF1.0
aF1.0
aF1.0
aF1.0
aF1.0
aF0.0
aF1.0
aF1.0
aF0.0
aF0.0
aF0.0
aF1.0
aF0.0
aF1.0
aF1.0
aF1.0
aF1.0
aF1.0
aF1.0
aF0.0
aF1.0
aF1.0
aF0.0
aF1.0
aF0.0
aF0.0
atp1177
a(I0
(lp1178
F1.0
aF1.0
aF1.0
aF1.0
aF0.0
aF0.0
aF1.0
aF1.0
aF1.0
aF1.0
aF1.0
aF1.0
aF0.0
aF1.0
aF1.0
aF0.0
aF0.0
aF0.0
aF1.0
aF0.0
aF0.0
aF1.0
aF0.0
aF0.0
aF0.0
aF0.0
aF0.0
aF1.0
aF0.0
aF1.0
aF1.0
aF0.0
aF0.0
aF0.0
aF0.0
aF1.0
atp1179
a(I0
g1178
tp1180
a(I0
(lp1181
F1.0
aF0.0
aF0.0
aF0.0
aF0.0
aF0.0
aF1.0
aF1.0
aF1.0
aF1.0
aF0.0
aF1.0
aF0.0
aF1.0
aF0.0
aF1.0
aF0.0
aF0.0
aF0.0
aF0.0
aF1.0
aF0.0
aF0.0
aF0.0
aF0.0
aF0.0
aF0.0
aF1.0
aF0.0
aF0.0
aF0.0
aF0.0
aF0.0
aF1.0
aF0.0
aF0.0
atp1182
a(I0
g1178
tp1183
a(I0
g1181
tp1184
a(I0
(lp1185
F0.0
aF1.0
aF0.0
aF1.0
aF1.0
aF0.0
aF1.0
aF0.0
aF1.0
aF1.0
aF0.0
aF0.0
aF1.0
aF1.0
aF0.0
aF1.0
aF1.0
aF0.0
aF1.0
aF0.0
aF0.0
aF1.0
aF0.0
aF0.0
aF1.0
aF1.0
aF1.0
aF1.0
aF1.0
aF1.0
aF0.0
aF0.0
aF0.0
aF1.0
aF1.0
aF0.0
atp1186
a(I0
g1178
tp1187
a(I0
g1181
tp1188
a(I0
g1185
tp1189
a(I0
(lp1190
F1.0
aF1.0
aF1.0
aF1.0
aF0.0
aF0.0
aF1.0
aF1.0
aF0.0
aF0.0
aF1.0
aF0.0
aF1.0
aF0.0
aF0.0
aF0.0
aF0.0
aF0.0
aF1.0
aF1.0
aF1.0
aF1.0
aF1.0
aF0.0
aF1.0
aF1.0
aF1.0
aF1.0
aF1.0
aF0.0
aF0.0
aF0.0
aF0.0
aF1.0
aF1.0
aF0.0
atp1191
a(I0
g1178
tp1192
a(I0
g1181
tp1193
a(I0
g1185
tp1194
a(I0
g1190
tp1195
a(I0
(lp1196
F0.0
aF0.0
aF0.0
aF1.0
aF0.0
aF0.0
aF1.0
aF1.0
aF0.0
aF0.0
aF0.0
aF1.0
aF1.0
aF1.0
aF1.0
aF1.0
aF1.0
aF0.0
aF1.0
aF0.0
aF0.0
aF1.0
aF1.0
aF1.0
aF0.0
aF0.0
aF0.0
aF1.0
aF1.0
aF1.0
aF0.0
aF1.0
aF0.0
aF1.0
aF1.0
aF1.0
atp1197
a(I0
g1178
tp1198
a(I0
g1181
tp1199
a(I0
g1185
tp1200
a(I0
g1190
tp1201
a(I0
g1196
tp1202
a(I0
(lp1203
F1.0
aF1.0
aF1.0
aF1.0
aF0.0
aF0.0
aF0.0
aF1.0
aF1.0
aF1.0
aF1.0
aF1.0
aF1.0
aF1.0
aF1.0
aF1.0
aF0.0
aF0.0
aF0.0
aF0.0
aF0.0
aF1.0
aF0.0
aF1.0
aF0.0
aF0.0
aF0.0
aF0.0
aF1.0
aF1.0
aF1.0
aF1.0
aF0.0
aF0.0
aF0.0
aF0.0
atp1204
a(I0
g1178
tp1205
a(I0
g1181
tp1206
a(I0
g1185
tp1207
a(I0
g1190
tp1208
a(I0
g1196
tp1209
a(I0
g1203
tp1210
a(I0
(lp1211
F0.0
aF0.0
aF1.0
aF1.0
aF0.0
aF1.0
aF1.0
aF0.0
aF1.0
aF0.0
aF0.0
aF1.0
aF0.0
aF1.0
aF0.0
aF0.0
aF1.0
aF1.0
aF0.0
aF1.0
aF1.0
aF1.0
aF1.0
aF0.0
aF0.0
aF1.0
aF1.0
aF0.0
aF1.0
aF0.0
aF0.0
aF0.0
aF0.0
aF0.0
aF1.0
aF0.0
atp1212
a(I0
(lp1213
F0.0
aF0.0
aF0.0
aF1.0
aF0.0
aF1.0
aF1.0
aF0.0
aF1.0
aF1.0
aF1.0
aF0.0
aF0.0
aF0.0
aF0.0
aF1.0
aF0.0
aF0.0
aF0.0
aF0.0
aF1.0
aF1.0
aF0.0
aF0.0
aF1.0
aF1.0
aF1.0
aF1.0
aF1.0
aF1.0
aF1.0
aF0.0
aF0.0
aF1.0
aF1.0
aF0.0
atp1214
a(I0
(lp1215
F1.0
aF1.0
aF1.0
aF1.0
aF1.0
aF0.0
aF0.0
aF1.0
aF1.0
aF0.0
aF1.0
aF1.0
aF0.0
aF1.0
aF1.0
aF1.0
aF0.0
aF0.0
aF0.0
aF0.0
aF0.0
aF1.0
aF0.0
aF0.0
aF1.0
aF1.0
aF1.0
aF1.0
aF0.0
aF0.0
aF1.0
aF1.0
aF0.0
aF1.0
aF1.0
aF0.0
atp1216
a(I0
(lp1217
F1.0
aF0.0
aF1.0
aF1.0
aF0.0
aF0.0
aF0.0
aF1.0
aF0.0
aF1.0
aF1.0
aF1.0
aF1.0
aF1.0
aF1.0
aF0.0
aF0.0
aF0.0
aF0.0
aF0.0
aF0.0
aF1.0
aF0.0
aF0.0
aF0.0
aF0.0
aF1.0
aF1.0
aF0.0
aF1.0
aF1.0
aF1.0
aF0.0
aF1.0
aF0.0
aF1.0
atp1218
a(I1
(lp1219
F1.0
aF1.0
aF0.0
aF1.0
aF1.0
aF1.0
aF0.0
aF1.0
aF0.0
aF0.0
aF1.0
aF1.0
aF1.0
aF0.0
aF0.0
aF0.0
aF0.0
aF0.0
aF1.0
aF1.0
aF0.0
aF1.0
aF1.0
aF1.0
aF1.0
aF1.0
aF1.0
aF1.0
aF0.0
aF1.0
aF1.0
aF0.0
aF0.0
aF0.0
aF0.0
aF0.0
atp1220
a(I0
g1219
tp1221
a(I0
(lp1222
F1.0
aF1.0
aF0.0
aF1.0
aF1.0
aF1.0
aF1.0
aF1.0
aF1.0
aF1.0
aF1.0
aF1.0
aF1.0
aF1.0
aF1.0
aF0.0
aF0.0
aF0.0
aF1.0
aF0.0
aF0.0
aF0.0
aF1.0
aF0.0
aF0.0
aF1.0
aF1.0
aF1.0
aF1.0
aF0.0
aF0.0
aF0.0
aF0.0
aF1.0
aF1.0
aF0.0
atp1223
a(I0
g1219
tp1224
a(I0
g1222
tp1225
a(I0
(lp1226
F1.0
aF0.0
aF1.0
aF0.0
aF0.0
aF1.0
aF1.0
aF1.0
aF1.0
aF1.0
aF1.0
aF1.0
aF0.0
aF1.0
aF1.0
aF0.0
aF0.0
aF0.0
aF1.0
aF1.0
aF1.0
aF1.0
aF1.0
aF1.0
aF1.0
aF0.0
aF1.0
aF1.0
aF1.0
aF1.0
aF0.0
aF1.0
aF0.0
aF0.0
aF0.0
aF0.0
atp1227
a(I0
g1219
tp1228
a(I0
g1222
tp1229
a(I0
g1226
tp1230
a(I0
(lp1231
F0.0
aF0.0
aF1.0
aF1.0
aF0.0
aF1.0
aF1.0
aF1.0
aF1.0
aF1.0
aF1.0
aF1.0
aF1.0
aF1.0
aF1.0
aF0.0
aF0.0
aF0.0
aF1.0
aF0.0
aF1.0
aF1.0
aF1.0
aF0.0
aF1.0
aF0.0
aF1.0
aF1.0
aF1.0
aF0.0
aF1.0
aF1.0
aF0.0
aF1.0
aF1.0
aF0.0
atp1232
a(I0
(lp1233
F1.0
aF1.0
aF0.0
aF1.0
aF1.0
aF1.0
aF0.0
aF1.0
aF1.0
aF1.0
aF0.0
aF0.0
aF0.0
aF1.0
aF0.0
aF1.0
aF0.0
aF0.0
aF0.0
aF0.0
aF1.0
aF0.0
aF1.0
aF0.0
aF1.0
aF1.0
aF0.0
aF1.0
aF1.0
aF1.0
aF0.0
aF0.0
aF0.0
aF1.0
aF0.0
aF1.0
atp1234
a(I1
(lp1235
F1.0
aF1.0
aF0.0
aF1.0
aF0.0
aF0.0
aF0.0
aF0.0
aF1.0
aF1.0
aF1.0
aF1.0
aF0.0
aF0.0
aF1.0
aF0.0
aF0.0
aF0.0
aF0.0
aF0.0
aF0.0
aF1.0
aF1.0
aF0.0
aF1.0
aF1.0
aF1.0
aF1.0
aF1.0
aF0.0
aF0.0
aF0.0
aF0.0
aF1.0
aF0.0
aF0.0
atp1236
a(I0
(lp1237
F1.0
aF1.0
aF1.0
aF0.0
aF0.0
aF1.0
aF1.0
aF0.0
aF1.0
aF1.0
aF1.0
aF1.0
aF1.0
aF1.0
aF1.0
aF1.0
aF1.0
aF0.0
aF0.0
aF0.0
aF0.0
aF0.0
aF0.0
aF1.0
aF1.0
aF1.0
aF0.0
aF1.0
aF0.0
aF0.0
aF1.0
aF1.0
aF0.0
aF0.0
aF0.0
aF0.0
atp1238
a(I0
g1237
tp1239
a(I0
(lp1240
F1.0
aF0.0
aF1.0
aF1.0
aF0.0
aF0.0
aF1.0
aF1.0
aF1.0
aF0.0
aF1.0
aF1.0
aF1.0
aF0.0
aF1.0
aF1.0
aF0.0
aF0.0
aF1.0
aF1.0
aF0.0
aF0.0
aF0.0
aF0.0
aF0.0
aF1.0
aF1.0
aF0.0
aF1.0
aF1.0
aF1.0
aF0.0
aF0.0
aF1.0
aF0.0
aF0.0
atp1241
a(I0
(lp1242
F0.0
aF1.0
aF1.0
aF1.0
aF0.0
aF0.0
aF1.0
aF1.0
aF1.0
aF1.0
aF1.0
aF1.0
aF0.0
aF0.0
aF0.0
aF1.0
aF0.0
aF0.0
aF1.0
aF0.0
aF1.0
aF1.0
aF0.0
aF0.0
aF1.0
aF1.0
aF1.0
aF1.0
aF0.0
aF1.0
aF1.0
aF0.0
aF0.0
aF1.0
aF0.0
aF0.0
atp1243
a(I0
g1242
tp1244
a(I0
(lp1245
F0.0
aF1.0
aF1.0
aF1.0
aF0.0
aF0.0
aF1.0
aF0.0
aF1.0
aF1.0
aF1.0
aF0.0
aF0.0
aF1.0
aF1.0
aF0.0
aF0.0
aF0.0
aF1.0
aF0.0
aF0.0
aF1.0
aF0.0
aF0.0
aF0.0
aF0.0
aF1.0
aF1.0
aF1.0
aF0.0
aF1.0
aF0.0
aF0.0
aF0.0
aF0.0
aF1.0
atp1246
a(I0
g1242
tp1247
a(I0
g1245
tp1248
a(I0
(lp1249
F1.0
aF1.0
aF1.0
aF1.0
aF0.0
aF0.0
aF0.0
aF0.0
aF1.0
aF0.0
aF1.0
aF1.0
aF0.0
aF1.0
aF1.0
aF0.0
aF0.0
aF0.0
aF1.0
aF0.0
aF0.0
aF0.0
aF1.0
aF0.0
aF0.0
aF0.0
aF1.0
aF1.0
aF1.0
aF0.0
aF1.0
aF0.0
aF0.0
aF1.0
aF0.0
aF0.0
atp1250
a(I0
g1242
tp1251
a(I0
g1245
tp1252
a(I0
g1249
tp1253
a(I0
(lp1254
F1.0
aF0.0
aF1.0
aF0.0
aF0.0
aF1.0
aF1.0
aF1.0
aF1.0
aF1.0
aF1.0
aF1.0
aF1.0
aF1.0
aF1.0
aF1.0
aF0.0
aF1.0
aF1.0
aF1.0
aF0.0
aF1.0
aF0.0
aF1.0
aF1.0
aF0.0
aF1.0
aF0.0
aF0.0
aF1.0
aF0.0
aF1.0
aF0.0
aF1.0
aF0.0
aF1.0
atp1255
a(I0
(lp1256
F0.0
aF1.0
aF0.0
aF1.0
aF1.0
aF1.0
aF1.0
aF0.0
aF1.0
aF0.0
aF0.0
aF1.0
aF1.0
aF0.0
aF1.0
aF0.0
aF0.0
aF0.0
aF1.0
aF0.0
aF0.0
aF0.0
aF0.0
aF1.0
aF1.0
aF1.0
aF0.0
aF0.0
aF0.0
aF1.0
aF0.0
aF0.0
aF0.0
aF0.0
aF1.0
aF0.0
atp1257
a(I0
(lp1258
F0.0
aF0.0
aF1.0
aF0.0
aF0.0
aF1.0
aF1.0
aF0.0
aF1.0
aF1.0
aF1.0
aF1.0
aF0.0
aF1.0
aF1.0
aF0.0
aF0.0
aF1.0
aF0.0
aF0.0
aF0.0
aF0.0
aF0.0
aF0.0
aF1.0
aF0.0
aF0.0
aF0.0
aF1.0
aF0.0
aF0.0
aF0.0
aF0.0
aF1.0
aF0.0
aF0.0
atp1259
a(I0
(lp1260
F1.0
aF0.0
aF1.0
aF1.0
aF0.0
aF0.0
aF0.0
aF0.0
aF1.0
aF0.0
aF0.0
aF1.0
aF0.0
aF1.0
aF1.0
aF0.0
aF0.0
aF0.0
aF1.0
aF0.0
aF0.0
aF1.0
aF0.0
aF1.0
aF1.0
aF1.0
aF1.0
aF1.0
aF0.0
aF1.0
aF0.0
aF1.0
aF0.0
aF1.0
aF0.0
aF0.0
atp1261
a(I0
(lp1262
F1.0
aF1.0
aF1.0
aF1.0
aF0.0
aF1.0
aF1.0
aF1.0
aF0.0
aF1.0
aF1.0
aF1.0
aF1.0
aF1.0
aF1.0
aF0.0
aF0.0
aF0.0
aF0.0
aF0.0
aF1.0
aF1.0
aF1.0
aF1.0
aF1.0
aF0.0
aF1.0
aF0.0
aF1.0
aF1.0
aF1.0
aF1.0
aF1.0
aF0.0
aF1.0
aF0.0
atp1263
a(I0
(lp1264
F1.0
aF0.0
aF0.0
aF1.0
aF1.0
aF1.0
aF1.0
aF1.0
aF1.0
aF1.0
aF0.0
aF1.0
aF1.0
aF0.0
aF0.0
aF1.0
aF0.0
aF0.0
aF1.0
aF0.0
aF1.0
aF0.0
aF0.0
aF1.0
aF1.0
aF1.0
aF1.0
aF1.0
aF1.0
aF1.0
aF0.0
aF0.0
aF0.0
aF0.0
aF0.0
aF0.0
atp1265
a(I0
(lp1266
F0.0
aF1.0
aF0.0
aF1.0
aF0.0
aF0.0
aF1.0
aF1.0
aF1.0
aF1.0
aF1.0
aF1.0
aF1.0
aF0.0
aF1.0
aF0.0
aF0.0
aF0.0
aF1.0
aF0.0
aF0.0
aF1.0
aF0.0
aF1.0
aF1.0
aF1.0
aF1.0
aF1.0
aF0.0
aF1.0
aF1.0
aF0.0
aF0.0
aF1.0
aF0.0
aF0.0
atp1267
a(I0
g1266
tp1268
a(I0
(lp1269
F0.0
aF1.0
aF1.0
aF0.0
aF0.0
aF1.0
aF0.0
aF1.0
aF1.0
aF1.0
aF1.0
aF1.0
aF0.0
aF0.0
aF1.0
aF1.0
aF0.0
aF0.0
aF0.0
aF0.0
aF0.0
aF0.0
aF0.0
aF0.0
aF1.0
aF1.0
aF1.0
aF0.0
aF0.0
aF1.0
aF0.0
aF0.0
aF0.0
aF0.0
aF0.0
aF0.0
atp1270
a(I0
(lp1271
F1.0
aF1.0
aF1.0
aF1.0
aF0.0
aF0.0
aF1.0
aF1.0
aF1.0
aF1.0
aF1.0
aF1.0
aF1.0
aF1.0
aF1.0
aF0.0
aF0.0
aF0.0
aF1.0
aF1.0
aF0.0
aF1.0
aF0.0
aF0.0
aF1.0
aF1.0
aF1.0
aF1.0
aF1.0
aF1.0
aF0.0
aF0.0
aF0.0
aF1.0
aF0.0
aF0.0
atp1272
a(I1
(lp1273
F1.0
aF0.0
aF1.0
aF1.0
aF1.0
aF1.0
aF1.0
aF1.0
aF1.0
aF1.0
aF1.0
aF0.0
aF1.0
aF1.0
aF0.0
aF1.0
aF1.0
aF0.0
aF0.0
aF0.0
aF0.0
aF1.0
aF0.0
aF1.0
aF1.0
aF0.0
aF0.0
aF1.0
aF0.0
aF1.0
aF1.0
aF1.0
aF0.0
aF1.0
aF1.0
aF1.0
atp1274
a(I1
g1273
tp1275
a(I1
(lp1276
F0.0
aF1.0
aF1.0
aF0.0
aF1.0
aF0.0
aF1.0
aF1.0
aF0.0
aF1.0
aF0.0
aF0.0
aF0.0
aF1.0
aF0.0
aF1.0
aF0.0
aF0.0
aF0.0
aF0.0
aF0.0
aF1.0
aF0.0
aF0.0
aF0.0
aF0.0
aF1.0
aF0.0
aF0.0
aF1.0
aF0.0
aF0.0
aF0.0
aF0.0
aF0.0
aF0.0
atp1277
a(I1
(lp1278
F1.0
aF0.0
aF1.0
aF1.0
aF0.0
aF0.0
aF0.0
aF1.0
aF0.0
aF0.0
aF0.0
aF1.0
aF1.0
aF1.0
aF0.0
aF1.0
aF0.0
aF0.0
aF1.0
aF0.0
aF0.0
aF0.0
aF1.0
aF1.0
aF0.0
aF1.0
aF1.0
aF1.0
aF1.0
aF1.0
aF1.0
aF0.0
aF0.0
aF1.0
aF1.0
aF0.0
atp1279
a(I1
(lp1280
F1.0
aF0.0
aF1.0
aF1.0
aF1.0
aF1.0
aF0.0
aF1.0
aF1.0
aF1.0
aF1.0
aF1.0
aF0.0
aF1.0
aF1.0
aF0.0
aF0.0
aF0.0
aF1.0
aF0.0
aF1.0
aF1.0
aF0.0
aF1.0
aF0.0
aF1.0
aF1.0
aF1.0
aF1.0
aF0.0
aF1.0
aF0.0
aF0.0
aF0.0
aF0.0
aF0.0
atp1281
a(I1
g1280
tp1282
a(I1
(lp1283
F0.0
aF1.0
aF1.0
aF0.0
aF0.0
aF0.0
aF1.0
aF1.0
aF0.0
aF1.0
aF1.0
aF1.0
aF0.0
aF1.0
aF1.0
aF1.0
aF0.0
aF0.0
aF1.0
aF0.0
aF0.0
aF1.0
aF0.0
aF0.0
aF1.0
aF1.0
aF0.0
aF1.0
aF1.0
aF1.0
aF0.0
aF0.0
aF0.0
aF1.0
aF1.0
aF0.0
atp1284
a(I0
g1280
tp1285
a(I0
g1283
tp1286
a(I0
(lp1287
F1.0
aF1.0
aF1.0
aF1.0
aF0.0
aF0.0
aF1.0
aF1.0
aF1.0
aF1.0
aF1.0
aF1.0
aF1.0
aF1.0
aF1.0
aF1.0
aF0.0
aF0.0
aF1.0
aF0.0
aF1.0
aF1.0
aF0.0
aF0.0
aF1.0
aF1.0
aF1.0
aF0.0
aF0.0
aF1.0
aF0.0
aF0.0
aF0.0
aF0.0
aF0.0
aF0.0
atp1288
a(I1
(lp1289
F1.0
aF1.0
aF1.0
aF1.0
aF0.0
aF0.0
aF1.0
aF1.0
aF1.0
aF1.0
aF1.0
aF1.0
aF1.0
aF0.0
aF0.0
aF1.0
aF0.0
aF0.0
aF1.0
aF0.0
aF0.0
aF1.0
aF0.0
aF0.0
aF1.0
aF1.0
aF1.0
aF1.0
aF0.0
aF0.0
aF1.0
aF0.0
aF0.0
aF1.0
aF0.0
aF1.0
atp1290
a(I1
(lp1291
F1.0
aF1.0
aF1.0
aF1.0
aF0.0
aF1.0
aF1.0
aF1.0
aF1.0
aF0.0
aF1.0
aF1.0
aF1.0
aF1.0
aF1.0
aF1.0
aF0.0
aF0.0
aF1.0
aF0.0
aF1.0
aF1.0
aF0.0
aF0.0
aF0.0
aF0.0
aF1.0
aF1.0
aF1.0
aF1.0
aF0.0
aF0.0
aF0.0
aF0.0
aF0.0
aF0.0
atp1292
a(I1
(lp1293
F1.0
aF1.0
aF1.0
aF1.0
aF0.0
aF0.0
aF1.0
aF1.0
aF0.0
aF1.0
aF1.0
aF0.0
aF1.0
aF1.0
aF1.0
aF0.0
aF0.0
aF0.0
aF1.0
aF1.0
aF0.0
aF1.0
aF1.0
aF1.0
aF0.0
aF0.0
aF1.0
aF1.0
aF1.0
aF0.0
aF1.0
aF0.0
aF0.0
aF1.0
aF0.0
aF0.0
atp1294
a(I1
g1293
tp1295
a(I1
(lp1296
F0.0
aF1.0
aF0.0
aF1.0
aF1.0
aF0.0
aF1.0
aF1.0
aF0.0
aF0.0
aF1.0
aF1.0
aF1.0
aF0.0
aF1.0
aF0.0
aF0.0
aF0.0
aF1.0
aF0.0
aF0.0
aF0.0
aF0.0
aF1.0
aF0.0
aF0.0
aF1.0
aF1.0
aF1.0
aF1.0
aF1.0
aF0.0
aF1.0
aF1.0
aF0.0
aF0.0
atp1297
a(I0
g1293
tp1298
a(I0
g1296
tp1299
a(I0
(lp1300
F1.0
aF1.0
aF1.0
aF1.0
aF0.0
aF1.0
aF1.0
aF0.0
aF1.0
aF1.0
aF1.0
aF1.0
aF1.0
aF1.0
aF1.0
aF0.0
aF0.0
aF0.0
aF1.0
aF0.0
aF0.0
aF1.0
aF0.0
aF1.0
aF1.0
aF1.0
aF0.0
aF1.0
aF0.0
aF1.0
aF1.0
aF0.0
aF0.0
aF1.0
aF0.0
aF0.0
atp1301
a(I0
g1293
tp1302
a(I0
g1296
tp1303
a(I0
g1300
tp1304
a(I0
(lp1305
F1.0
aF1.0
aF1.0
aF1.0
aF0.0
aF0.0
aF1.0
aF1.0
aF1.0
aF0.0
aF0.0
aF0.0
aF1.0
aF1.0
aF1.0
aF1.0
aF1.0
aF0.0
aF1.0
aF1.0
aF1.0
aF1.0
aF0.0
aF1.0
aF0.0
aF1.0
aF1.0
aF1.0
aF0.0
aF1.0
aF1.0
aF0.0
aF0.0
aF1.0
aF0.0
aF0.0
atp1306
a(I0
(lp1307
F1.0
aF0.0
aF1.0
aF1.0
aF0.0
aF0.0
aF1.0
aF1.0
aF0.0
aF1.0
aF1.0
aF0.0
aF0.0
aF1.0
aF1.0
aF1.0
aF0.0
aF0.0
aF0.0
aF0.0
aF0.0
aF1.0
aF0.0
aF0.0
aF0.0
aF0.0
aF0.0
aF1.0
aF0.0
aF0.0
aF0.0
aF1.0
aF0.0
aF0.0
aF0.0
aF0.0
atp1308
a(I0
(lp1309
F1.0
aF0.0
aF1.0
aF0.0
aF0.0
aF0.0
aF1.0
aF0.0
aF1.0
aF0.0
aF1.0
aF1.0
aF1.0
aF0.0
aF1.0
aF0.0
aF0.0
aF0.0
aF1.0
aF0.0
aF0.0
aF1.0
aF0.0
aF1.0
aF0.0
aF0.0
aF1.0
aF1.0
aF1.0
aF1.0
aF0.0
aF0.0
aF0.0
aF1.0
aF0.0
aF0.0
atp1310
a(I0
(lp1311
F1.0
aF1.0
aF0.0
aF1.0
aF0.0
aF1.0
aF1.0
aF1.0
aF1.0
aF0.0
aF1.0
aF1.0
aF1.0
aF1.0
aF0.0
aF0.0
aF0.0
aF0.0
aF1.0
aF1.0
aF1.0
aF1.0
aF0.0
aF1.0
aF1.0
aF1.0
aF1.0
aF1.0
aF0.0
aF1.0
aF1.0
aF0.0
aF0.0
aF1.0
aF0.0
aF0.0
atp1312
a(I0
g1311
tp1313
a(I0
(lp1314
F1.0
aF1.0
aF0.0
aF0.0
aF0.0
aF1.0
aF1.0
aF1.0
aF1.0
aF0.0
aF1.0
aF1.0
aF1.0
aF1.0
aF0.0
aF1.0
aF0.0
aF0.0
aF1.0
aF0.0
aF0.0
aF1.0
aF0.0
aF1.0
aF1.0
aF1.0
aF1.0
aF1.0
aF1.0
aF0.0
aF1.0
aF0.0
aF0.0
aF0.0
aF0.0
aF0.0
atp1315
a(I0
(lp1316
F1.0
aF1.0
aF1.0
aF1.0
aF1.0
aF0.0
aF1.0
aF1.0
aF1.0
aF0.0
aF1.0
aF1.0
aF1.0
aF1.0
aF1.0
aF0.0
aF1.0
aF1.0
aF1.0
aF0.0
aF0.0
aF1.0
aF0.0
aF0.0
aF1.0
aF1.0
aF1.0
aF0.0
aF1.0
aF1.0
aF1.0
aF0.0
aF0.0
aF1.0
aF0.0
aF0.0
atp1317
a(I0
g1316
tp1318
a(I0
(lp1319
F1.0
aF1.0
aF1.0
aF1.0
aF0.0
aF1.0
aF1.0
aF1.0
aF1.0
aF1.0
aF1.0
aF1.0
aF1.0
aF0.0
aF1.0
aF1.0
aF1.0
aF1.0
aF0.0
aF0.0
aF0.0
aF1.0
aF0.0
aF0.0
aF0.0
aF1.0
aF1.0
aF1.0
aF0.0
aF0.0
aF0.0
aF0.0
aF0.0
aF0.0
aF0.0
aF0.0
atp1320
a(I0
g1316
tp1321
a(I0
g1319
tp1322
a(I0
(lp1323
F1.0
aF1.0
aF1.0
aF1.0
aF0.0
aF0.0
aF1.0
aF1.0
aF1.0
aF1.0
aF1.0
aF1.0
aF1.0
aF0.0
aF1.0
aF0.0
aF0.0
aF0.0
aF1.0
aF0.0
aF0.0
aF1.0
aF0.0
aF1.0
aF0.0
aF1.0
aF0.0
aF1.0
aF0.0
aF0.0
aF1.0
aF1.0
aF1.0
aF0.0
aF0.0
aF0.0
atp1324
a(I0
g1316
tp1325
a(I0
g1319
tp1326
a(I0
g1323
tp1327
a(I0
(lp1328
F1.0
aF0.0
aF0.0
aF1.0
aF1.0
aF1.0
aF0.0
aF1.0
aF1.0
aF1.0
aF1.0
aF1.0
aF1.0
aF0.0
aF1.0
aF1.0
aF0.0
aF0.0
aF1.0
aF0.0
aF1.0
aF1.0
aF0.0
aF0.0
aF1.0
aF1.0
aF1.0
aF0.0
aF1.0
aF0.0
aF0.0
aF1.0
aF0.0
aF0.0
aF1.0
aF1.0
atp1329
a(I1
(lp1330
F1.0
aF1.0
aF1.0
aF1.0
aF1.0
aF1.0
aF1.0
aF1.0
aF0.0
aF0.0
aF0.0
aF1.0
aF1.0
aF1.0
aF1.0
aF1.0
aF0.0
aF0.0
aF0.0
aF0.0
aF0.0
aF1.0
aF0.0
aF0.0
aF0.0
aF1.0
aF0.0
aF0.0
aF1.0
aF1.0
aF0.0
aF0.0
aF0.0
aF1.0
aF1.0
aF0.0
atp1331
a(I1
(lp1332
F1.0
aF1.0
aF0.0
aF1.0
aF0.0
aF0.0
aF1.0
aF1.0
aF1.0
aF1.0
aF1.0
aF0.0
aF0.0
aF1.0
aF1.0
aF1.0
aF0.0
aF0.0
aF1.0
aF1.0
aF1.0
aF1.0
aF1.0
aF0.0
aF0.0
aF1.0
aF1.0
aF1.0
aF1.0
aF1.0
aF0.0
aF0.0
aF0.0
aF1.0
aF1.0
aF0.0
atp1333
a(I1
g1332
tp1334
a(I1
(lp1335
F1.0
aF1.0
aF0.0
aF0.0
aF1.0
aF0.0
aF0.0
aF1.0
aF1.0
aF0.0
aF1.0
aF0.0
aF1.0
aF0.0
aF1.0
aF1.0
aF0.0
aF0.0
aF1.0
aF0.0
aF0.0
aF0.0
aF1.0
aF0.0
aF1.0
aF1.0
aF0.0
aF0.0
aF1.0
aF0.0
aF1.0
aF0.0
aF0.0
aF0.0
aF0.0
aF0.0
atp1336
a(I1
g1332
tp1337
a(I1
g1335
tp1338
a(I1
(lp1339
F0.0
aF1.0
aF1.0
aF1.0
aF0.0
aF0.0
aF1.0
aF1.0
aF1.0
aF1.0
aF1.0
aF0.0
aF0.0
aF1.0
aF1.0
aF0.0
aF1.0
aF0.0
aF0.0
aF0.0
aF0.0
aF0.0
aF1.0
aF0.0
aF1.0
aF1.0
aF1.0
aF1.0
aF1.0
aF1.0
aF0.0
aF0.0
aF0.0
aF1.0
aF0.0
aF0.0
atp1340
a(I0
g1332
tp1341
a(I0
g1335
tp1342
a(I0
g1339
tp1343
a(I0
(lp1344
F1.0
aF1.0
aF0.0
aF0.0
aF0.0
aF0.0
aF1.0
aF1.0
aF1.0
aF0.0
aF1.0
aF1.0
aF1.0
aF1.0
aF0.0
aF1.0
aF1.0
aF1.0
aF1.0
aF0.0
aF0.0
aF1.0
aF0.0
aF0.0
aF1.0
aF1.0
aF0.0
aF0.0
aF1.0
aF0.0
aF0.0
aF0.0
aF0.0
aF0.0
aF1.0
aF1.0
atp1345
a(I0
g1332
tp1346
a(I0
g1335
tp1347
a(I0
g1339
tp1348
a(I0
g1344
tp1349
a(I0
(lp1350
F1.0
aF0.0
aF1.0
aF1.0
aF1.0
aF0.0
aF1.0
aF1.0
aF1.0
aF1.0
aF1.0
aF1.0
aF1.0
aF1.0
aF1.0
aF0.0
aF1.0
aF0.0
aF1.0
aF0.0
aF1.0
aF1.0
aF1.0
aF1.0
aF0.0
aF1.0
aF1.0
aF1.0
aF1.0
aF1.0
aF0.0
aF0.0
aF0.0
aF0.0
aF1.0
aF1.0
atp1351
a(I0
g1332
tp1352
a(I0
g1335
tp1353
a(I0
g1339
tp1354
a(I0
g1344
tp1355
a(I0
g1350
tp1356
a(I0
(lp1357
F1.0
aF1.0
aF0.0
aF1.0
aF0.0
aF0.0
aF0.0
aF1.0
aF1.0
aF1.0
aF0.0
aF0.0
aF1.0
aF1.0
aF1.0
aF0.0
aF0.0
aF0.0
aF1.0
aF0.0
aF0.0
aF0.0
aF1.0
aF0.0
aF1.0
aF1.0
aF1.0
aF1.0
aF1.0
aF0.0
aF0.0
aF0.0
aF0.0
aF0.0
aF0.0
aF1.0
atp1358
a(I0
g1332
tp1359
a(I0
g1335
tp1360
a(I0
g1339
tp1361
a(I0
g1344
tp1362
a(I0
g1350
tp1363
a(I0
g1357
tp1364
a(I0
(lp1365
F1.0
aF1.0
aF1.0
aF1.0
aF0.0
aF0.0
aF1.0
aF1.0
aF0.0
aF1.0
aF1.0
aF1.0
aF0.0
aF1.0
aF0.0
aF1.0
aF0.0
aF1.0
aF1.0
aF1.0
aF1.0
aF1.0
aF0.0
aF1.0
aF1.0
aF1.0
aF1.0
aF0.0
aF1.0
aF1.0
aF1.0
aF0.0
aF0.0
aF1.0
aF1.0
aF1.0
atp1366
a(I0
(lp1367
F0.0
aF1.0
aF1.0
aF1.0
aF0.0
aF1.0
aF1.0
aF0.0
aF1.0
aF0.0
aF1.0
aF1.0
aF1.0
aF0.0
aF1.0
aF1.0
aF0.0
aF0.0
aF1.0
aF0.0
aF0.0
aF0.0
aF0.0
aF1.0
aF1.0
aF1.0
aF0.0
aF0.0
aF0.0
aF1.0
aF1.0
aF0.0
aF0.0
aF1.0
aF0.0
aF0.0
atp1368
a(I0
(lp1369
F0.0
aF1.0
aF0.0
aF1.0
aF0.0
aF0.0
aF1.0
aF0.0
aF1.0
aF1.0
aF1.0
aF1.0
aF1.0
aF1.0
aF1.0
aF0.0
aF0.0
aF0.0
aF1.0
aF1.0
aF1.0
aF0.0
aF1.0
aF1.0
aF0.0
aF1.0
aF1.0
aF0.0
aF1.0
aF1.0
aF1.0
aF1.0
aF0.0
aF0.0
aF1.0
aF0.0
atp1370
a(I0
(lp1371
F1.0
aF1.0
aF1.0
aF1.0
aF0.0
aF0.0
aF1.0
aF1.0
aF0.0
aF1.0
aF1.0
aF1.0
aF0.0
aF1.0
aF1.0
aF1.0
aF0.0
aF0.0
aF1.0
aF1.0
aF0.0
aF0.0
aF1.0
aF1.0
aF0.0
aF1.0
aF0.0
aF0.0
aF1.0
aF1.0
aF1.0
aF0.0
aF0.0
aF0.0
aF0.0
aF0.0
atp1372
a(I0
(lp1373
F0.0
aF1.0
aF0.0
aF1.0
aF1.0
aF1.0
aF1.0
aF0.0
aF0.0
aF1.0
aF1.0
aF1.0
aF1.0
aF1.0
aF1.0
aF1.0
aF1.0
aF0.0
aF1.0
aF0.0
aF0.0
aF0.0
aF0.0
aF0.0
aF1.0
aF1.0
aF1.0
aF0.0
aF1.0
aF1.0
aF1.0
aF0.0
aF0.0
aF0.0
aF0.0
aF0.0
atp1374
a(I0
(lp1375
F0.0
aF0.0
aF0.0
aF1.0
aF1.0
aF0.0
aF1.0
aF1.0
aF1.0
aF1.0
aF0.0
aF0.0
aF1.0
aF0.0
aF0.0
aF1.0
aF1.0
aF0.0
aF1.0
aF1.0
aF1.0
aF1.0
aF1.0
aF1.0
aF0.0
aF1.0
aF1.0
aF1.0
aF1.0
aF1.0
aF1.0
aF1.0
aF0.0
aF0.0
aF0.0
aF0.0
atp1376
a(I0
(lp1377
F1.0
aF1.0
aF1.0
aF1.0
aF0.0
aF0.0
aF1.0
aF1.0
aF1.0
aF0.0
aF1.0
aF0.0
aF1.0
aF1.0
aF1.0
aF0.0
aF0.0
aF0.0
aF1.0
aF0.0
aF1.0
aF0.0
aF0.0
aF1.0
aF1.0
aF1.0
aF0.0
aF0.0
aF1.0
aF1.0
aF1.0
aF0.0
aF0.0
aF0.0
aF0.0
aF0.0
atp1378
a(I0
(lp1379
F0.0
aF1.0
aF1.0
aF1.0
aF0.0
aF0.0
aF1.0
aF1.0
aF0.0
aF1.0
aF1.0
aF1.0
aF1.0
aF1.0
aF0.0
aF0.0
aF0.0
aF0.0
aF1.0
aF0.0
aF1.0
aF0.0
aF1.0
aF0.0
aF1.0
aF1.0
aF0.0
aF1.0
aF1.0
aF0.0
aF1.0
aF0.0
aF0.0
aF1.0
aF1.0
aF0.0
atp1380
a(I0
(lp1381
F1.0
aF1.0
aF1.0
aF1.0
aF0.0
aF0.0
aF1.0
aF0.0
aF1.0
aF1.0
aF1.0
aF1.0
aF1.0
aF0.0
aF1.0
aF1.0
aF0.0
aF0.0
aF1.0
aF0.0
aF1.0
aF1.0
aF0.0
aF0.0
aF1.0
aF1.0
aF1.0
aF1.0
aF0.0
aF0.0
aF1.0
aF0.0
aF0.0
aF0.0
aF0.0
aF1.0
atp1382
a(I0
(lp1383
F1.0
aF0.0
aF1.0
aF1.0
aF0.0
aF1.0
aF1.0
aF1.0
aF1.0
aF1.0
aF0.0
aF0.0
aF0.0
aF1.0
aF1.0
aF0.0
aF0.0
aF0.0
aF1.0
aF1.0
aF1.0
aF1.0
aF0.0
aF1.0
aF1.0
aF0.0
aF1.0
aF1.0
aF1.0
aF1.0
aF1.0
aF1.0
aF0.0
aF0.0
aF1.0
aF0.0
atp1384
a(I0
(lp1385
F0.0
aF1.0
aF0.0
aF1.0
aF1.0
aF0.0
aF1.0
aF1.0
aF0.0
aF1.0
aF1.0
aF1.0
aF1.0
aF0.0
aF1.0
aF1.0
aF0.0
aF0.0
aF1.0
aF0.0
aF0.0
aF0.0
aF1.0
aF0.0
aF1.0
aF1.0
aF1.0
aF0.0
aF1.0
aF1.0
aF1.0
aF0.0
aF0.0
aF0.0
aF1.0
aF0.0
atp1386
a(I1
(lp1387
F1.0
aF1.0
aF1.0
aF1.0
aF0.0
aF0.0
aF1.0
aF0.0
aF1.0
aF0.0
aF1.0
aF0.0
aF1.0
aF1.0
aF0.0
aF0.0
aF0.0
aF0.0
aF1.0
aF1.0
aF0.0
aF0.0
aF0.0
aF1.0
aF0.0
aF1.0
aF1.0
aF1.0
aF1.0
aF1.0
aF1.0
aF0.0
aF0.0
aF0.0
aF1.0
aF0.0
atp1388
a(I0
(lp1389
F1.0
aF1.0
aF1.0
aF1.0
aF1.0
aF1.0
aF1.0
aF1.0
aF1.0
aF1.0
aF1.0
aF1.0
aF1.0
aF1.0
aF0.0
aF1.0
aF1.0
aF0.0
aF1.0
aF1.0
aF0.0
aF1.0
aF1.0
aF0.0
aF1.0
aF1.0
aF1.0
aF1.0
aF0.0
aF1.0
aF0.0
aF0.0
aF0.0
aF0.0
aF0.0
aF0.0
atp1390
a(I0
(lp1391
F1.0
aF1.0
aF1.0
aF1.0
aF1.0
aF1.0
aF1.0
aF1.0
aF1.0
aF0.0
aF1.0
aF1.0
aF1.0
aF1.0
aF1.0
aF1.0
aF1.0
aF0.0
aF1.0
aF0.0
aF1.0
aF1.0
aF1.0
aF0.0
aF1.0
aF1.0
aF1.0
aF1.0
aF0.0
aF1.0
aF1.0
aF1.0
aF0.0
aF0.0
aF0.0
aF0.0
atp1392
a(I1
(lp1393
F1.0
aF1.0
aF1.0
aF1.0
aF0.0
aF0.0
aF1.0
aF1.0
aF1.0
aF1.0
aF0.0
aF1.0
aF1.0
aF0.0
aF1.0
aF1.0
aF0.0
aF0.0
aF1.0
aF0.0
aF1.0
aF1.0
aF0.0
aF0.0
aF0.0
aF1.0
aF1.0
aF1.0
aF0.0
aF0.0
aF0.0
aF0.0
aF0.0
aF0.0
aF0.0
aF1.0
atp1394
a(I0
(lp1395
F0.0
aF1.0
aF1.0
aF1.0
aF0.0
aF0.0
aF0.0
aF0.0
aF0.0
aF1.0
aF1.0
aF1.0
aF1.0
aF0.0
aF1.0
aF0.0
aF0.0
aF0.0
aF1.0
aF0.0
aF0.0
aF1.0
aF1.0
aF0.0
aF1.0
aF1.0
aF1.0
aF1.0
aF1.0
aF0.0
aF1.0
aF0.0
aF0.0
aF1.0
aF0.0
aF0.0
atp1396
a(I0
(lp1397
F1.0
aF1.0
aF1.0
aF0.0
aF0.0
aF0.0
aF1.0
aF1.0
aF1.0
aF0.0
aF1.0
aF1.0
aF0.0
aF0.0
aF1.0
aF1.0
aF0.0
aF0.0
aF0.0
aF0.0
aF0.0
aF1.0
aF0.0
aF0.0
aF0.0
aF1.0
aF1.0
aF0.0
aF0.0
aF0.0
aF1.0
aF0.0
aF1.0
aF0.0
aF0.0
aF0.0
atp1398
a(I0
g1397
tp1399
a(I0
(lp1400
F1.0
aF0.0
aF0.0
aF0.0
aF1.0
aF0.0
aF1.0
aF1.0
aF0.0
aF1.0
aF1.0
aF0.0
aF1.0
aF1.0
aF1.0
aF1.0
aF0.0
aF0.0
aF1.0
aF1.0
aF1.0
aF1.0
aF0.0
aF0.0
aF1.0
aF1.0
aF1.0
aF1.0
aF1.0
aF1.0
aF0.0
aF0.0
aF0.0
aF1.0
aF0.0
aF0.0
atp1401
a(I0
(lp1402
F1.0
aF1.0
aF0.0
aF1.0
aF1.0
aF1.0
aF0.0
aF1.0
aF1.0
aF1.0
aF0.0
aF0.0
aF1.0
aF1.0
aF1.0
aF1.0
aF0.0
aF0.0
aF0.0
aF1.0
aF0.0
aF1.0
aF0.0
aF1.0
aF1.0
aF1.0
aF1.0
aF1.0
aF1.0
aF1.0
aF0.0
aF0.0
aF0.0
aF0.0
aF0.0
aF1.0
atp1403
a(I0
(lp1404
F0.0
aF1.0
aF1.0
aF0.0
aF1.0
aF0.0
aF0.0
aF1.0
aF1.0
aF1.0
aF1.0
aF0.0
aF1.0
aF1.0
aF1.0
aF0.0
aF0.0
aF0.0
aF1.0
aF0.0
aF0.0
aF1.0
aF0.0
aF1.0
aF0.0
aF1.0
aF0.0
aF0.0
aF0.0
aF1.0
aF0.0
aF0.0
aF0.0
aF1.0
aF1.0
aF0.0
atp1405
a(I0
(lp1406
F1.0
aF0.0
aF0.0
aF1.0
aF0.0
aF0.0
aF1.0
aF1.0
aF1.0
aF1.0
aF1.0
aF1.0
aF1.0
aF1.0
aF1.0
aF1.0
aF0.0
aF0.0
aF0.0
aF0.0
aF1.0
aF0.0
aF0.0
aF0.0
aF1.0
aF0.0
aF1.0
aF0.0
aF1.0
aF0.0
aF0.0
aF0.0
aF0.0
aF1.0
aF0.0
aF0.0
atp1407
a(I0
(lp1408
F0.0
aF0.0
aF1.0
aF1.0
aF0.0
aF0.0
aF0.0
aF0.0
aF0.0
aF1.0
aF1.0
aF1.0
aF1.0
aF1.0
aF1.0
aF1.0
aF0.0
aF0.0
aF1.0
aF1.0
aF1.0
aF1.0
aF1.0
aF0.0
aF1.0
aF1.0
aF1.0
aF1.0
aF1.0
aF1.0
aF1.0
aF0.0
aF0.0
aF1.0
aF0.0
aF0.0
atp1409
a(I1
(lp1410
F1.0
aF1.0
aF1.0
aF0.0
aF1.0
aF0.0
aF0.0
aF1.0
aF1.0
aF1.0
aF0.0
aF0.0
aF1.0
aF1.0
aF1.0
aF0.0
aF0.0
aF0.0
aF0.0
aF0.0
aF0.0
aF1.0
aF0.0
aF1.0
aF1.0
aF1.0
aF1.0
aF0.0
aF0.0
aF1.0
aF0.0
aF1.0
aF0.0
aF0.0
aF0.0
aF1.0
atp1411
a(I0
(lp1412
F1.0
aF1.0
aF1.0
aF0.0
aF0.0
aF0.0
aF1.0
aF0.0
aF1.0
aF1.0
aF1.0
aF1.0
aF1.0
aF1.0
aF0.0
aF0.0
aF0.0
aF0.0
aF1.0
aF0.0
aF1.0
aF1.0
aF0.0
aF0.0
aF0.0
aF0.0
aF1.0
aF1.0
aF1.0
aF1.0
aF0.0
aF0.0
aF0.0
aF1.0
aF1.0
aF1.0
atp1413
a(I0
(lp1414
F1.0
aF1.0
aF1.0
aF0.0
aF0.0
aF0.0
aF1.0
aF1.0
aF1.0
aF1.0
aF1.0
aF1.0
aF1.0
aF1.0
aF1.0
aF0.0
aF0.0
aF0.0
aF0.0
aF0.0
aF0.0
aF1.0
aF1.0
aF1.0
aF0.0
aF0.0
aF1.0
aF1.0
aF1.0
aF1.0
aF1.0
aF1.0
aF1.0
aF1.0
aF0.0
aF0.0
atp1415
a(I0
(lp1416
F1.0
aF1.0
aF0.0
aF1.0
aF1.0
aF1.0
aF1.0
aF1.0
aF0.0
aF1.0
aF1.0
aF0.0
aF1.0
aF0.0
aF0.0
aF1.0
aF0.0
aF0.0
aF1.0
aF1.0
aF1.0
aF1.0
aF1.0
aF1.0
aF1.0
aF1.0
aF1.0
aF1.0
aF1.0
aF0.0
aF0.0
aF0.0
aF0.0
aF0.0
aF1.0
aF0.0
atp1417
a(I0
(lp1418
F1.0
aF1.0
aF1.0
aF1.0
aF0.0
aF0.0
aF1.0
aF0.0
aF1.0
aF1.0
aF1.0
aF1.0
aF1.0
aF1.0
aF1.0
aF0.0
aF0.0
aF0.0
aF1.0
aF0.0
aF1.0
aF1.0
aF0.0
aF0.0
aF1.0
aF1.0
aF1.0
aF1.0
aF1.0
aF1.0
aF0.0
aF0.0
aF0.0
aF1.0
aF0.0
aF1.0
atp1419
a(I0
(lp1420
F0.0
aF1.0
aF1.0
aF0.0
aF0.0
aF0.0
aF1.0
aF1.0
aF1.0
aF0.0
aF1.0
aF1.0
aF0.0
aF1.0
aF0.0
aF0.0
aF1.0
aF0.0
aF1.0
aF0.0
aF1.0
aF1.0
aF1.0
aF0.0
aF0.0
aF1.0
aF1.0
aF1.0
aF1.0
aF1.0
aF0.0
aF0.0
aF1.0
aF0.0
aF1.0
aF0.0
atp1421
a(I1
(lp1422
F1.0
aF1.0
aF0.0
aF1.0
aF0.0
aF1.0
aF1.0
aF0.0
aF1.0
aF1.0
aF1.0
aF1.0
aF1.0
aF1.0
aF1.0
aF1.0
aF0.0
aF0.0
aF0.0
aF0.0
aF0.0
aF1.0
aF0.0
aF1.0
aF0.0
aF1.0
aF0.0
aF1.0
aF0.0
aF1.0
aF1.0
aF0.0
aF1.0
aF1.0
aF0.0
aF0.0
atp1423
a(I0
(lp1424
F1.0
aF1.0
aF1.0
aF1.0
aF0.0
aF0.0
aF1.0
aF1.0
aF1.0
aF1.0
aF1.0
aF1.0
aF1.0
aF0.0
aF1.0
aF1.0
aF1.0
aF1.0
aF1.0
aF0.0
aF0.0
aF1.0
aF0.0
aF1.0
aF0.0
aF1.0
aF0.0
aF1.0
aF1.0
aF1.0
aF1.0
aF0.0
aF0.0
aF0.0
aF0.0
aF1.0
atp1425
a(I0
(lp1426
F0.0
aF0.0
aF1.0
aF0.0
aF1.0
aF0.0
aF1.0
aF0.0
aF1.0
aF0.0
aF0.0
aF1.0
aF0.0
aF1.0
aF1.0
aF0.0
aF0.0
aF0.0
aF0.0
aF0.0
aF1.0
aF1.0
aF0.0
aF1.0
aF1.0
aF1.0
aF1.0
aF1.0
aF1.0
aF1.0
aF0.0
aF0.0
aF0.0
aF1.0
aF0.0
aF0.0
atp1427
a(I1
(lp1428
F1.0
aF1.0
aF0.0
aF1.0
aF0.0
aF0.0
aF0.0
aF1.0
aF0.0
aF1.0
aF1.0
aF1.0
aF1.0
aF1.0
aF0.0
aF0.0
aF0.0
aF0.0
aF0.0
aF0.0
aF0.0
aF1.0
aF0.0
aF0.0
aF0.0
aF0.0
aF1.0
aF1.0
aF0.0
aF0.0
aF1.0
aF0.0
aF0.0
aF1.0
aF0.0
aF0.0
atp1429
a(I0
(lp1430
F0.0
aF1.0
aF1.0
aF1.0
aF0.0
aF0.0
aF0.0
aF1.0
aF1.0
aF0.0
aF1.0
aF0.0
aF1.0
aF1.0
aF0.0
aF1.0
aF1.0
aF0.0
aF1.0
aF0.0
aF0.0
aF0.0
aF0.0
aF1.0
aF0.0
aF1.0
aF1.0
aF1.0
aF1.0
aF1.0
aF0.0
aF0.0
aF1.0
aF0.0
aF0.0
aF0.0
atp1431
a(I0
(lp1432
F1.0
aF1.0
aF1.0
aF1.0
aF0.0
aF0.0
aF1.0
aF1.0
aF1.0
aF0.0
aF0.0
aF1.0
aF1.0
aF0.0
aF1.0
aF0.0
aF0.0
aF0.0
aF0.0
aF0.0
aF0.0
aF1.0
aF1.0
aF1.0
aF0.0
aF0.0
aF1.0
aF1.0
aF1.0
aF0.0
aF1.0
aF0.0
aF0.0
aF0.0
aF0.0
aF0.0
atp1433
a(I0
(lp1434
F1.0
aF1.0
aF1.0
aF1.0
aF0.0
aF0.0
aF1.0
aF1.0
aF0.0
aF0.0
aF1.0
aF1.0
aF1.0
aF0.0
aF1.0
aF1.0
aF0.0
aF0.0
aF1.0
aF0.0
aF1.0
aF0.0
aF0.0
aF0.0
aF1.0
aF1.0
aF1.0
aF1.0
aF0.0
aF0.0
aF0.0
aF0.0
aF0.0
aF0.0
aF0.0
aF0.0
atp1435
a(I0
(lp1436
F1.0
aF1.0
aF0.0
aF1.0
aF0.0
aF0.0
aF1.0
aF1.0
aF1.0
aF1.0
aF1.0
aF1.0
aF1.0
aF0.0
aF1.0
aF0.0
aF0.0
aF0.0
aF1.0
aF0.0
aF0.0
aF1.0
aF1.0
aF1.0
aF0.0
aF1.0
aF1.0
aF1.0
aF1.0
aF1.0
aF1.0
aF0.0
aF0.0
aF0.0
aF0.0
aF0.0
atp1437
a(I0
(lp1438
F1.0
aF1.0
aF1.0
aF0.0
aF0.0
aF0.0
aF1.0
aF1.0
aF0.0
aF0.0
aF1.0
aF1.0
aF1.0
aF0.0
aF1.0
aF0.0
aF0.0
aF0.0
aF1.0
aF0.0
aF0.0
aF1.0
aF1.0
aF0.0
aF1.0
aF1.0
aF0.0
aF1.0
aF0.0
aF1.0
aF1.0
aF1.0
aF1.0
aF1.0
aF1.0
aF0.0
atp1439
a(I0
(lp1440
F1.0
aF0.0
aF1.0
aF0.0
aF0.0
aF0.0
aF1.0
aF1.0
aF0.0
aF1.0
aF1.0
aF1.0
aF1.0
aF1.0
aF0.0
aF0.0
aF0.0
aF0.0
aF0.0
aF0.0
aF0.0
aF1.0
aF0.0
aF0.0
aF0.0
aF1.0
aF1.0
aF1.0
aF1.0
aF1.0
aF1.0
aF0.0
aF1.0
aF1.0
aF0.0
aF0.0
atp1441
a(I0
(lp1442
F1.0
aF1.0
aF1.0
aF0.0
aF1.0
aF1.0
aF1.0
aF1.0
aF1.0
aF1.0
aF0.0
aF0.0
aF1.0
aF1.0
aF0.0
aF0.0
aF1.0
aF0.0
aF0.0
aF0.0
aF0.0
aF1.0
aF1.0
aF1.0
aF0.0
aF1.0
aF1.0
aF1.0
aF1.0
aF1.0
aF1.0
aF0.0
aF0.0
aF0.0
aF0.0
aF0.0
atp1443
a(I0
(lp1444
F1.0
aF0.0
aF0.0
aF0.0
aF1.0
aF0.0
aF1.0
aF1.0
aF0.0
aF0.0
aF0.0
aF1.0
aF0.0
aF1.0
aF1.0
aF1.0
aF1.0
aF0.0
aF1.0
aF1.0
aF1.0
aF1.0
aF1.0
aF1.0
aF1.0
aF1.0
aF1.0
aF1.0
aF1.0
aF1.0
aF1.0
aF1.0
aF0.0
aF0.0
aF1.0
aF1.0
atp1445
a(I0
(lp1446
F1.0
aF1.0
aF0.0
aF1.0
aF0.0
aF0.0
aF1.0
aF1.0
aF0.0
aF1.0
aF1.0
aF0.0
aF1.0
aF1.0
aF1.0
aF0.0
aF0.0
aF0.0
aF1.0
aF1.0
aF1.0
aF1.0
aF1.0
aF1.0
aF1.0
aF1.0
aF1.0
aF1.0
aF0.0
aF1.0
aF1.0
aF0.0
aF1.0
aF1.0
aF1.0
aF0.0
atp1447
a(I0
(lp1448
F1.0
aF1.0
aF1.0
aF1.0
aF1.0
aF0.0
aF0.0
aF1.0
aF1.0
aF0.0
aF1.0
aF1.0
aF1.0
aF1.0
aF1.0
aF0.0
aF1.0
aF0.0
aF1.0
aF1.0
aF1.0
aF1.0
aF0.0
aF0.0
aF1.0
aF0.0
aF1.0
aF1.0
aF0.0
aF0.0
aF1.0
aF0.0
aF0.0
aF1.0
aF1.0
aF0.0
atp1449
a(I1
(lp1450
F0.0
aF0.0
aF1.0
aF1.0
aF0.0
aF0.0
aF0.0
aF1.0
aF1.0
aF0.0
aF1.0
aF1.0
aF1.0
aF1.0
aF1.0
aF0.0
aF0.0
aF0.0
aF1.0
aF0.0
aF1.0
aF1.0
aF0.0
aF0.0
aF1.0
aF1.0
aF1.0
aF1.0
aF1.0
aF1.0
aF0.0
aF0.0
aF0.0
aF1.0
aF0.0
aF1.0
atp1451
a(I0
(lp1452
F1.0
aF1.0
aF1.0
aF0.0
aF0.0
aF1.0
aF1.0
aF1.0
aF1.0
aF1.0
aF1.0
aF1.0
aF1.0
aF0.0
aF1.0
aF1.0
aF0.0
aF0.0
aF1.0
aF1.0
aF1.0
aF1.0
aF0.0
aF1.0
aF1.0
aF1.0
aF1.0
aF1.0
aF0.0
aF1.0
aF0.0
aF0.0
aF0.0
aF0.0
aF0.0
aF1.0
atp1453
a(I0
(lp1454
F0.0
aF0.0
aF0.0
aF0.0
aF0.0
aF0.0
aF1.0
aF1.0
aF1.0
aF1.0
aF1.0
aF1.0
aF1.0
aF1.0
aF0.0
aF1.0
aF0.0
aF0.0
aF0.0
aF1.0
aF1.0
aF0.0
aF1.0
aF1.0
aF1.0
aF1.0
aF1.0
aF1.0
aF0.0
aF1.0
aF1.0
aF0.0
aF0.0
aF0.0
aF0.0
aF0.0
atp1455
a(I0
(lp1456
F0.0
aF1.0
aF1.0
aF1.0
aF1.0
aF0.0
aF0.0
aF0.0
aF1.0
aF0.0
aF0.0
aF0.0
aF1.0
aF1.0
aF1.0
aF1.0
aF1.0
aF0.0
aF1.0
aF1.0
aF0.0
aF1.0
aF0.0
aF1.0
aF1.0
aF0.0
aF1.0
aF1.0
aF1.0
aF1.0
aF0.0
aF0.0
aF0.0
aF0.0
aF0.0
aF0.0
atp1457
a(I0
g1456
tp1458
a(I0
(lp1459
F1.0
aF1.0
aF1.0
aF1.0
aF1.0
aF1.0
aF0.0
aF1.0
aF1.0
aF1.0
aF1.0
aF1.0
aF1.0
aF1.0
aF1.0
aF0.0
aF0.0
aF0.0
aF1.0
aF1.0
aF0.0
aF1.0
aF0.0
aF0.0
aF1.0
aF1.0
aF1.0
aF1.0
aF1.0
aF1.0
aF1.0
aF0.0
aF0.0
aF1.0
aF0.0
aF1.0
atp1460
a(I0
g1456
tp1461
a(I0
g1459
tp1462
a(I0
(lp1463
F1.0
aF1.0
aF1.0
aF1.0
aF1.0
aF1.0
aF1.0
aF1.0
aF1.0
aF1.0
aF1.0
aF1.0
aF1.0
aF0.0
aF0.0
aF0.0
aF0.0
aF0.0
aF0.0
aF1.0
aF0.0
aF1.0
aF1.0
aF0.0
aF0.0
aF0.0
aF0.0
aF0.0
aF1.0
aF0.0
aF0.0
aF0.0
aF0.0
aF0.0
aF0.0
aF0.0
atp1464
a(I0
(lp1465
F1.0
aF1.0
aF1.0
aF1.0
aF0.0
aF1.0
aF0.0
aF1.0
aF1.0
aF0.0
aF1.0
aF1.0
aF1.0
aF1.0
aF1.0
aF1.0
aF0.0
aF0.0
aF0.0
aF0.0
aF0.0
aF1.0
aF1.0
aF1.0
aF1.0
aF0.0
aF0.0
aF0.0
aF1.0
aF1.0
aF0.0
aF1.0
aF0.0
aF1.0
aF1.0
aF0.0
atp1466
a(I0
(lp1467
F1.0
aF1.0
aF1.0
aF0.0
aF0.0
aF0.0
aF1.0
aF1.0
aF0.0
aF1.0
aF1.0
aF0.0
aF1.0
aF1.0
aF1.0
aF0.0
aF1.0
aF0.0
aF0.0
aF1.0
aF1.0
aF0.0
aF0.0
aF0.0
aF0.0
aF1.0
aF1.0
aF1.0
aF0.0
aF0.0
aF0.0
aF0.0
aF0.0
aF1.0
aF0.0
aF0.0
atp1468
a(I0
(lp1469
F1.0
aF1.0
aF1.0
aF1.0
aF1.0
aF0.0
aF1.0
aF1.0
aF1.0
aF1.0
aF1.0
aF1.0
aF1.0
aF1.0
aF0.0
aF0.0
aF1.0
aF1.0
aF1.0
aF1.0
aF0.0
aF1.0
aF0.0
aF1.0
aF0.0
aF0.0
aF1.0
aF1.0
aF1.0
aF1.0
aF0.0
aF1.0
aF1.0
aF0.0
aF0.0
aF0.0
atp1470
a(I0
(lp1471
F1.0
aF1.0
aF1.0
aF0.0
aF0.0
aF0.0
aF1.0
aF0.0
aF1.0
aF0.0
aF1.0
aF1.0
aF1.0
aF1.0
aF1.0
aF0.0
aF0.0
aF0.0
aF1.0
aF1.0
aF1.0
aF1.0
aF0.0
aF0.0
aF1.0
aF1.0
aF1.0
aF1.0
aF0.0
aF1.0
aF1.0
aF0.0
aF0.0
aF0.0
aF0.0
aF1.0
atp1472
a(I0
(lp1473
F0.0
aF0.0
aF0.0
aF1.0
aF1.0
aF0.0
aF1.0
aF1.0
aF0.0
aF1.0
aF1.0
aF1.0
aF0.0
aF1.0
aF0.0
aF0.0
aF0.0
aF0.0
aF0.0
aF0.0
aF0.0
aF0.0
aF0.0
aF0.0
aF1.0
aF1.0
aF1.0
aF1.0
aF1.0
aF1.0
aF1.0
aF0.0
aF0.0
aF1.0
aF0.0
aF1.0
atp1474
a(I0
(lp1475
F1.0
aF0.0
aF0.0
aF1.0
aF1.0
aF0.0
aF1.0
aF1.0
aF0.0
aF1.0
aF1.0
aF1.0
aF1.0
aF0.0
aF0.0
aF0.0
aF0.0
aF0.0
aF1.0
aF0.0
aF0.0
aF1.0
aF0.0
aF0.0
aF0.0
aF1.0
aF0.0
aF0.0
aF1.0
aF1.0
aF1.0
aF0.0
aF0.0
aF0.0
aF0.0
aF0.0
atp1476
a(I1
(lp1477
F1.0
aF0.0
aF1.0
aF1.0
aF0.0
aF0.0
aF1.0
aF1.0
aF1.0
aF0.0
aF1.0
aF1.0
aF1.0
aF1.0
aF1.0
aF1.0
aF1.0
aF0.0
aF0.0
aF0.0
aF0.0
aF0.0
aF0.0
aF0.0
aF1.0
aF0.0
aF1.0
aF0.0
aF0.0
aF1.0
aF1.0
aF0.0
aF0.0
aF1.0
aF0.0
aF0.0
atp1478
a(I0
(lp1479
F1.0
aF1.0
aF1.0
aF1.0
aF0.0
aF1.0
aF1.0
aF1.0
aF0.0
aF0.0
aF0.0
aF0.0
aF1.0
aF1.0
aF1.0
aF0.0
aF1.0
aF0.0
aF0.0
aF0.0
aF1.0
aF1.0
aF0.0
aF0.0
aF1.0
aF1.0
aF1.0
aF1.0
aF1.0
aF0.0
aF0.0
aF1.0
aF0.0
aF0.0
aF0.0
aF0.0
atp1480
a(I0
(lp1481
F1.0
aF1.0
aF1.0
aF0.0
aF0.0
aF1.0
aF1.0
aF1.0
aF1.0
aF1.0
aF1.0
aF1.0
aF1.0
aF1.0
aF0.0
aF0.0
aF0.0
aF0.0
aF0.0
aF0.0
aF0.0
aF1.0
aF0.0
aF0.0
aF0.0
aF1.0
aF1.0
aF1.0
aF0.0
aF1.0
aF1.0
aF0.0
aF0.0
aF1.0
aF1.0
aF0.0
atp1482
a(I0
(lp1483
F0.0
aF0.0
aF1.0
aF1.0
aF0.0
aF0.0
aF1.0
aF1.0
aF1.0
aF1.0
aF1.0
aF1.0
aF1.0
aF1.0
aF1.0
aF1.0
aF1.0
aF0.0
aF1.0
aF1.0
aF0.0
aF1.0
aF0.0
aF0.0
aF1.0
aF1.0
aF1.0
aF0.0
aF1.0
aF1.0
aF0.0
aF0.0
aF0.0
aF0.0
aF1.0
aF0.0
atp1484
a(I0
(lp1485
F1.0
aF1.0
aF1.0
aF0.0
aF0.0
aF0.0
aF0.0
aF1.0
aF1.0
aF1.0
aF1.0
aF1.0
aF1.0
aF1.0
aF1.0
aF0.0
aF1.0
aF0.0
aF1.0
aF0.0
aF0.0
aF1.0
aF1.0
aF1.0
aF0.0
aF0.0
aF1.0
aF1.0
aF1.0
aF1.0
aF1.0
aF0.0
aF0.0
aF0.0
aF1.0
aF1.0
atp1486
a(I0
(lp1487
F0.0
aF1.0
aF1.0
aF1.0
aF1.0
aF1.0
aF1.0
aF0.0
aF1.0
aF0.0
aF1.0
aF0.0
aF1.0
aF0.0
aF1.0
aF0.0
aF0.0
aF0.0
aF1.0
aF0.0
aF1.0
aF1.0
aF0.0
aF1.0
aF1.0
aF1.0
aF0.0
aF0.0
aF0.0
aF0.0
aF1.0
aF0.0
aF0.0
aF0.0
aF0.0
aF0.0
atp1488
a(I0
(lp1489
F1.0
aF0.0
aF1.0
aF1.0
aF1.0
aF1.0
aF1.0
aF1.0
aF1.0
aF1.0
aF1.0
aF1.0
aF0.0
aF0.0
aF1.0
aF1.0
aF1.0
aF1.0
aF1.0
aF0.0
aF0.0
aF1.0
aF1.0
aF0.0
aF1.0
aF1.0
aF1.0
aF1.0
aF1.0
aF0.0
aF1.0
aF1.0
aF0.0
aF1.0
aF0.0
aF0.0
atp1490
a(I0
(lp1491
F1.0
aF0.0
aF1.0
aF1.0
aF1.0
aF0.0
aF1.0
aF1.0
aF0.0
aF1.0
aF0.0
aF0.0
aF1.0
aF1.0
aF1.0
aF0.0
aF1.0
aF1.0
aF1.0
aF1.0
aF1.0
aF0.0
aF0.0
aF0.0
aF0.0
aF1.0
aF1.0
aF1.0
aF1.0
aF0.0
aF0.0
aF1.0
aF0.0
aF1.0
aF1.0
aF0.0
atp1492
a(I0
(lp1493
F1.0
aF1.0
aF1.0
aF1.0
aF0.0
aF0.0
aF1.0
aF1.0
aF0.0
aF1.0
aF0.0
aF1.0
aF1.0
aF1.0
aF1.0
aF0.0
aF0.0
aF0.0
aF0.0
aF0.0
aF1.0
aF1.0
aF0.0
aF1.0
aF1.0
aF1.0
aF1.0
aF1.0
aF1.0
aF0.0
aF1.0
aF1.0
aF0.0
aF1.0
aF0.0
aF0.0
atp1494
a(I0
(lp1495
F1.0
aF0.0
aF1.0
aF1.0
aF1.0
aF0.0
aF1.0
aF1.0
aF1.0
aF1.0
aF1.0
aF1.0
aF1.0
aF1.0
aF1.0
aF1.0
aF0.0
aF0.0
aF1.0
aF0.0
aF0.0
aF1.0
aF0.0
aF0.0
aF1.0
aF1.0
aF0.0
aF1.0
aF1.0
aF0.0
aF0.0
aF0.0
aF0.0
aF1.0
aF0.0
aF0.0
atp1496
a(I0
(lp1497
F1.0
aF1.0
aF1.0
aF0.0
aF0.0
aF0.0
aF1.0
aF1.0
aF0.0
aF0.0
aF1.0
aF1.0
aF0.0
aF1.0
aF1.0
aF1.0
aF0.0
aF0.0
aF1.0
aF0.0
aF0.0
aF1.0
aF1.0
aF1.0
aF1.0
aF1.0
aF1.0
aF1.0
aF1.0
aF0.0
aF0.0
aF1.0
aF0.0
aF0.0
aF0.0
aF0.0
atp1498
a(I0
(lp1499
F0.0
aF1.0
aF0.0
aF0.0
aF0.0
aF0.0
aF1.0
aF1.0
aF1.0
aF1.0
aF1.0
aF1.0
aF1.0
aF1.0
aF1.0
aF0.0
aF0.0
aF1.0
aF1.0
aF0.0
aF0.0
aF0.0
aF0.0
aF1.0
aF1.0
aF1.0
aF1.0
aF1.0
aF1.0
aF1.0
aF0.0
aF1.0
aF1.0
aF1.0
aF0.0
aF0.0
atp1500
a(I1
(lp1501
F1.0
aF1.0
aF1.0
aF0.0
aF0.0
aF0.0
aF1.0
aF1.0
aF1.0
aF1.0
aF1.0
aF1.0
aF1.0
aF0.0
aF1.0
aF0.0
aF0.0
aF0.0
aF1.0
aF0.0
aF0.0
aF1.0
aF0.0
aF1.0
aF1.0
aF1.0
aF1.0
aF1.0
aF1.0
aF0.0
aF0.0
aF0.0
aF0.0
aF0.0
aF1.0
aF0.0
atp1502
a(I1
(lp1503
F1.0
aF1.0
aF1.0
aF0.0
aF0.0
aF0.0
aF1.0
aF1.0
aF1.0
aF1.0
aF1.0
aF1.0
aF1.0
aF1.0
aF1.0
aF0.0
aF0.0
aF0.0
aF1.0
aF0.0
aF0.0
aF1.0
aF0.0
aF0.0
aF0.0
aF1.0
aF1.0
aF0.0
aF1.0
aF1.0
aF0.0
aF0.0
aF0.0
aF1.0
aF1.0
aF1.0
atp1504
a(I0
(lp1505
F0.0
aF1.0
aF1.0
aF1.0
aF0.0
aF1.0
aF1.0
aF1.0
aF1.0
aF0.0
aF1.0
aF1.0
aF1.0
aF1.0
aF1.0
aF0.0
aF0.0
aF0.0
aF0.0
aF0.0
aF0.0
aF1.0
aF1.0
aF0.0
aF1.0
aF1.0
aF1.0
aF0.0
aF1.0
aF1.0
aF1.0
aF0.0
aF0.0
aF0.0
aF1.0
aF0.0
atp1506
a(I0
(lp1507
F1.0
aF1.0
aF1.0
aF0.0
aF0.0
aF0.0
aF1.0
aF1.0
aF1.0
aF0.0
aF1.0
aF1.0
aF0.0
aF0.0
aF1.0
aF1.0
aF0.0
aF0.0
aF0.0
aF0.0
aF1.0
aF1.0
aF0.0
aF1.0
aF1.0
aF1.0
aF0.0
aF0.0
aF0.0
aF1.0
aF0.0
aF0.0
aF0.0
aF0.0
aF0.0
aF0.0
atp1508
a(I0
g1507
tp1509
a(I0
(lp1510
F1.0
aF1.0
aF1.0
aF1.0
aF0.0
aF0.0
aF1.0
aF1.0
aF1.0
aF0.0
aF1.0
aF1.0
aF1.0
aF1.0
aF1.0
aF1.0
aF0.0
aF0.0
aF0.0
aF0.0
aF0.0
aF0.0
aF1.0
aF1.0
aF0.0
aF0.0
aF1.0
aF0.0
aF0.0
aF1.0
aF0.0
aF0.0
aF0.0
aF1.0
aF0.0
aF0.0
atp1511
a(I0
(lp1512
F1.0
aF1.0
aF0.0
aF1.0
aF1.0
aF1.0
aF1.0
aF1.0
aF0.0
aF1.0
aF1.0
aF1.0
aF1.0
aF1.0
aF0.0
aF1.0
aF1.0
aF0.0
aF1.0
aF0.0
aF0.0
aF1.0
aF1.0
aF0.0
aF1.0
aF0.0
aF1.0
aF1.0
aF1.0
aF0.0
aF0.0
aF0.0
aF0.0
aF0.0
aF0.0
aF0.0
atp1513
a(I0
(lp1514
F1.0
aF0.0
aF1.0
aF1.0
aF0.0
aF1.0
aF1.0
aF1.0
aF1.0
aF1.0
aF1.0
aF1.0
aF0.0
aF1.0
aF1.0
aF1.0
aF0.0
aF0.0
aF0.0
aF0.0
aF0.0
aF0.0
aF0.0
aF1.0
aF1.0
aF1.0
aF1.0
aF0.0
aF1.0
aF1.0
aF0.0
aF0.0
aF0.0
aF1.0
aF0.0
aF1.0
atp1515
a(I0
g1514
tp1516
a(I0
(lp1517
F0.0
aF1.0
aF1.0
aF1.0
aF0.0
aF1.0
aF1.0
aF1.0
aF1.0
aF0.0
aF0.0
aF1.0
aF1.0
aF1.0
aF0.0
aF0.0
aF0.0
aF0.0
aF0.0
aF0.0
aF0.0
aF1.0
aF0.0
aF0.0
aF1.0
aF0.0
aF0.0
aF1.0
aF0.0
aF1.0
aF1.0
aF0.0
aF0.0
aF0.0
aF0.0
aF0.0
atp1518
a(I0
g1514
tp1519
a(I0
g1517
tp1520
a(I0
(lp1521
F0.0
aF0.0
aF0.0
aF1.0
aF0.0
aF0.0
aF0.0
aF1.0
aF1.0
aF1.0
aF0.0
aF1.0
aF1.0
aF1.0
aF1.0
aF1.0
aF0.0
aF0.0
aF0.0
aF0.0
aF0.0
aF0.0
aF0.0
aF1.0
aF1.0
aF1.0
aF1.0
aF0.0
aF1.0
aF1.0
aF1.0
aF0.0
aF1.0
aF1.0
aF1.0
aF0.0
atp1522
a(I0
(lp1523
F1.0
aF1.0
aF1.0
aF0.0
aF0.0
aF0.0
aF1.0
aF0.0
aF0.0
aF1.0
aF1.0
aF0.0
aF0.0
aF1.0
aF1.0
aF0.0
aF0.0
aF0.0
aF1.0
aF0.0
aF0.0
aF0.0
aF1.0
aF1.0
aF0.0
aF1.0
aF1.0
aF0.0
aF1.0
aF1.0
aF1.0
aF0.0
aF0.0
aF0.0
aF0.0
aF0.0
atp1524
a(I0
(lp1525
F1.0
aF1.0
aF1.0
aF1.0
aF0.0
aF1.0
aF1.0
aF0.0
aF1.0
aF1.0
aF1.0
aF1.0
aF1.0
aF1.0
aF1.0
aF0.0
aF0.0
aF0.0
aF0.0
aF0.0
aF1.0
aF1.0
aF0.0
aF0.0
aF1.0
aF1.0
aF1.0
aF1.0
aF1.0
aF0.0
aF1.0
aF0.0
aF0.0
aF0.0
aF1.0
aF0.0
atp1526
a(I0
(lp1527
F1.0
aF1.0
aF1.0
aF1.0
aF0.0
aF1.0
aF0.0
aF1.0
aF1.0
aF0.0
aF0.0
aF1.0
aF1.0
aF1.0
aF1.0
aF1.0
aF0.0
aF0.0
aF1.0
aF1.0
aF0.0
aF1.0
aF1.0
aF0.0
aF1.0
aF1.0
aF1.0
aF1.0
aF1.0
aF1.0
aF0.0
aF0.0
aF1.0
aF0.0
aF0.0
aF0.0
atp1528
a(I0
(lp1529
F1.0
aF1.0
aF1.0
aF1.0
aF0.0
aF0.0
aF0.0
aF1.0
aF0.0
aF1.0
aF1.0
aF1.0
aF1.0
aF1.0
aF1.0
aF0.0
aF0.0
aF0.0
aF0.0
aF0.0
aF0.0
aF1.0
aF1.0
aF1.0
aF0.0
aF0.0
aF0.0
aF0.0
aF1.0
aF1.0
aF0.0
aF0.0
aF0.0
aF1.0
aF0.0
aF1.0
atp1530
a(I0
(lp1531
F1.0
aF1.0
aF1.0
aF1.0
aF1.0
aF0.0
aF0.0
aF0.0
aF0.0
aF1.0
aF0.0
aF0.0
aF1.0
aF1.0
aF1.0
aF1.0
aF0.0
aF0.0
aF1.0
aF0.0
aF0.0
aF1.0
aF1.0
aF1.0
aF1.0
aF0.0
aF0.0
aF1.0
aF1.0
aF0.0
aF0.0
aF1.0
aF1.0
aF1.0
aF1.0
aF0.0
atp1532
a(I1
(lp1533
F1.0
aF1.0
aF1.0
aF1.0
aF0.0
aF1.0
aF1.0
aF1.0
aF1.0
aF0.0
aF1.0
aF1.0
aF1.0
aF1.0
aF0.0
aF0.0
aF0.0
aF0.0
aF1.0
aF1.0
aF0.0
aF1.0
aF0.0
aF1.0
aF0.0
aF0.0
aF1.0
aF0.0
aF1.0
aF1.0
aF0.0
aF0.0
aF0.0
aF0.0
aF0.0
aF0.0
atp1534
a(I0
g1533
tp1535
a(I0
(lp1536
F1.0
aF1.0
aF1.0
aF1.0
aF0.0
aF0.0
aF1.0
aF0.0
aF1.0
aF1.0
aF1.0
aF1.0
aF0.0
aF0.0
aF1.0
aF1.0
aF1.0
aF0.0
aF1.0
aF0.0
aF0.0
aF1.0
aF1.0
aF1.0
aF1.0
aF1.0
aF1.0
aF1.0
aF0.0
aF1.0
aF1.0
aF0.0
aF0.0
aF1.0
aF0.0
aF1.0
atp1537
a(I0
(lp1538
F0.0
aF1.0
aF1.0
aF1.0
aF0.0
aF0.0
aF0.0
aF1.0
aF1.0
aF1.0
aF1.0
aF0.0
aF1.0
aF1.0
aF0.0
aF0.0
aF0.0
aF0.0
aF1.0
aF0.0
aF0.0
aF0.0
aF0.0
aF1.0
aF1.0
aF0.0
aF0.0
aF1.0
aF1.0
aF0.0
aF0.0
aF1.0
aF0.0
aF1.0
aF1.0
aF0.0
atp1539
a(I0
(lp1540
F0.0
aF1.0
aF1.0
aF1.0
aF1.0
aF0.0
aF0.0
aF0.0
aF1.0
aF0.0
aF1.0
aF1.0
aF1.0
aF1.0
aF1.0
aF0.0
aF1.0
aF0.0
aF1.0
aF0.0
aF1.0
aF1.0
aF0.0
aF0.0
aF1.0
aF1.0
aF1.0
aF1.0
aF0.0
aF0.0
aF1.0
aF1.0
aF0.0
aF1.0
aF1.0
aF0.0
atp1541
a(I0
(lp1542
F0.0
aF1.0
aF1.0
aF1.0
aF0.0
aF1.0
aF1.0
aF1.0
aF0.0
aF1.0
aF1.0
aF1.0
aF1.0
aF0.0
aF1.0
aF0.0
aF0.0
aF0.0
aF0.0
aF0.0
aF0.0
aF1.0
aF1.0
aF1.0
aF0.0
aF0.0
aF0.0
aF1.0
aF1.0
aF1.0
aF0.0
aF1.0
aF0.0
aF1.0
aF0.0
aF0.0
atp1543
a(I0
(lp1544
F1.0
aF1.0
aF1.0
aF1.0
aF0.0
aF1.0
aF1.0
aF1.0
aF1.0
aF1.0
aF1.0
aF1.0
aF1.0
aF0.0
aF1.0
aF1.0
aF0.0
aF0.0
aF0.0
aF0.0
aF0.0
aF1.0
aF0.0
aF1.0
aF1.0
aF1.0
aF1.0
aF0.0
aF1.0
aF0.0
aF0.0
aF0.0
aF0.0
aF1.0
aF0.0
aF1.0
atp1545
a(I1
(lp1546
F1.0
aF1.0
aF1.0
aF1.0
aF0.0
aF0.0
aF1.0
aF0.0
aF1.0
aF1.0
aF1.0
aF1.0
aF1.0
aF1.0
aF1.0
aF1.0
aF0.0
aF0.0
aF1.0
aF0.0
aF0.0
aF1.0
aF0.0
aF1.0
aF0.0
aF1.0
aF1.0
aF0.0
aF0.0
aF1.0
aF0.0
aF0.0
aF0.0
aF0.0
aF0.0
aF1.0
atp1547
a(I0
g1546
tp1548
a(I0
(lp1549
F1.0
aF1.0
aF1.0
aF1.0
aF1.0
aF1.0
aF1.0
aF0.0
aF0.0
aF0.0
aF0.0
aF1.0
aF1.0
aF1.0
aF1.0
aF1.0
aF0.0
aF0.0
aF1.0
aF0.0
aF0.0
aF0.0
aF1.0
aF1.0
aF0.0
aF1.0
aF0.0
aF0.0
aF1.0
aF1.0
aF1.0
aF1.0
aF0.0
aF0.0
aF0.0
aF0.0
atp1550
a(I0
g1546
tp1551
a(I0
g1549
tp1552
a(I0
(lp1553
F1.0
aF1.0
aF1.0
aF1.0
aF0.0
aF0.0
aF1.0
aF0.0
aF1.0
aF1.0
aF1.0
aF1.0
aF1.0
aF1.0
aF0.0
aF1.0
aF1.0
aF0.0
aF0.0
aF0.0
aF1.0
aF1.0
aF0.0
aF1.0
aF1.0
aF1.0
aF1.0
aF1.0
aF0.0
aF1.0
aF1.0
aF1.0
aF0.0
aF1.0
aF0.0
aF0.0
atp1554
a(I0
(lp1555
F0.0
aF1.0
aF1.0
aF1.0
aF0.0
aF0.0
aF1.0
aF1.0
aF1.0
aF1.0
aF1.0
aF1.0
aF1.0
aF1.0
aF1.0
aF1.0
aF0.0
aF0.0
aF1.0
aF0.0
aF0.0
aF1.0
aF0.0
aF0.0
aF0.0
aF0.0
aF1.0
aF0.0
aF0.0
aF0.0
aF1.0
aF1.0
aF0.0
aF1.0
aF1.0
aF0.0
atp1556
a(I1
g1555
tp1557
a(I1
(lp1558
F1.0
aF0.0
aF1.0
aF0.0
aF0.0
aF0.0
aF1.0
aF1.0
aF1.0
aF0.0
aF1.0
aF1.0
aF0.0
aF0.0
aF0.0
aF1.0
aF0.0
aF0.0
aF1.0
aF0.0
aF0.0
aF0.0
aF0.0
aF1.0
aF0.0
aF1.0
aF1.0
aF0.0
aF1.0
aF1.0
aF0.0
aF1.0
aF0.0
aF0.0
aF0.0
aF0.0
atp1559
a(I1
(lp1560
F1.0
aF1.0
aF1.0
aF0.0
aF0.0
aF1.0
aF0.0
aF1.0
aF1.0
aF1.0
aF1.0
aF0.0
aF0.0
aF1.0
aF1.0
aF1.0
aF0.0
aF1.0
aF0.0
aF0.0
aF0.0
aF1.0
aF0.0
aF0.0
aF1.0
aF0.0
aF0.0
aF0.0
aF0.0
aF0.0
aF0.0
aF0.0
aF0.0
aF0.0
aF0.0
aF0.0
atp1561
a(I0
(lp1562
F1.0
aF1.0
aF1.0
aF1.0
aF0.0
aF0.0
aF1.0
aF1.0
aF1.0
aF1.0
aF1.0
aF1.0
aF1.0
aF1.0
aF1.0
aF1.0
aF1.0
aF0.0
aF0.0
aF1.0
aF1.0
aF1.0
aF0.0
aF0.0
aF1.0
aF1.0
aF1.0
aF1.0
aF1.0
aF0.0
aF1.0
aF1.0
aF1.0
aF0.0
aF0.0
aF0.0
atp1563
a(I1
(lp1564
F0.0
aF1.0
aF1.0
aF1.0
aF1.0
aF0.0
aF0.0
aF0.0
aF0.0
aF1.0
aF1.0
aF1.0
aF0.0
aF0.0
aF1.0
aF0.0
aF1.0
aF0.0
aF1.0
aF1.0
aF1.0
aF1.0
aF0.0
aF0.0
aF0.0
aF0.0
aF0.0
aF0.0
aF1.0
aF0.0
aF0.0
aF0.0
aF0.0
aF0.0
aF0.0
aF0.0
atp1565
a(I0
(lp1566
F1.0
aF1.0
aF1.0
aF1.0
aF0.0
aF0.0
aF1.0
aF1.0
aF1.0
aF1.0
aF1.0
aF1.0
aF1.0
aF1.0
aF1.0
aF1.0
aF0.0
aF0.0
aF1.0
aF1.0
aF0.0
aF1.0
aF0.0
aF0.0
aF1.0
aF0.0
aF0.0
aF1.0
aF1.0
aF0.0
aF1.0
aF0.0
aF0.0
aF1.0
aF1.0
aF0.0
atp1567
a(I1
(lp1568
F1.0
aF1.0
aF1.0
aF1.0
aF1.0
aF0.0
aF1.0
aF0.0
aF1.0
aF1.0
aF1.0
aF1.0
aF0.0
aF1.0
aF0.0
aF1.0
aF1.0
aF0.0
aF1.0
aF0.0
aF1.0
aF1.0
aF0.0
aF0.0
aF1.0
aF1.0
aF1.0
aF0.0
aF0.0
aF1.0
aF1.0
aF1.0
aF0.0
aF0.0
aF0.0
aF0.0
atp1569
a(I0
(lp1570
F1.0
aF0.0
aF0.0
aF1.0
aF1.0
aF0.0
aF1.0
aF1.0
aF1.0
aF1.0
aF1.0
aF1.0
aF1.0
aF1.0
aF0.0
aF1.0
aF0.0
aF0.0
aF1.0
aF1.0
aF1.0
aF0.0
aF1.0
aF0.0
aF1.0
aF1.0
aF1.0
aF0.0
aF1.0
aF1.0
aF1.0
aF1.0
aF1.0
aF0.0
aF0.0
aF1.0
atp1571
a(I0
(lp1572
F1.0
aF1.0
aF1.0
aF1.0
aF1.0
aF0.0
aF0.0
aF0.0
aF1.0
aF1.0
aF0.0
aF1.0
aF1.0
aF1.0
aF1.0
aF0.0
aF0.0
aF0.0
aF1.0
aF0.0
aF0.0
aF0.0
aF1.0
aF0.0
aF1.0
aF1.0
aF1.0
aF0.0
aF1.0
aF0.0
aF0.0
aF0.0
aF1.0
aF0.0
aF0.0
aF0.0
atp1573
a(I0
(lp1574
F1.0
aF1.0
aF1.0
aF1.0
aF0.0
aF0.0
aF1.0
aF1.0
aF0.0
aF1.0
aF1.0
aF1.0
aF0.0
aF1.0
aF1.0
aF1.0
aF0.0
aF0.0
aF1.0
aF1.0
aF1.0
aF0.0
aF0.0
aF1.0
aF0.0
aF1.0
aF1.0
aF1.0
aF1.0
aF1.0
aF1.0
aF0.0
aF0.0
aF1.0
aF1.0
aF1.0
atp1575
a(I0
(lp1576
F1.0
aF1.0
aF1.0
aF1.0
aF1.0
aF1.0
aF1.0
aF1.0
aF0.0
aF0.0
aF1.0
aF1.0
aF0.0
aF1.0
aF1.0
aF0.0
aF0.0
aF0.0
aF1.0
aF1.0
aF1.0
aF1.0
aF0.0
aF1.0
aF1.0
aF1.0
aF1.0
aF0.0
aF0.0
aF0.0
aF1.0
aF0.0
aF0.0
aF0.0
aF0.0
aF0.0
atp1577
a(I0
(lp1578
F0.0
aF1.0
aF1.0
aF1.0
aF0.0
aF0.0
aF1.0
aF1.0
aF0.0
aF0.0
aF0.0
aF0.0
aF1.0
aF1.0
aF1.0
aF1.0
aF0.0
aF0.0
aF1.0
aF1.0
aF0.0
aF1.0
aF1.0
aF0.0
aF1.0
aF0.0
aF1.0
aF0.0
aF1.0
aF0.0
aF0.0
aF0.0
aF0.0
aF1.0
aF0.0
aF0.0
atp1579
a(I0
(lp1580
F1.0
aF0.0
aF1.0
aF1.0
aF0.0
aF0.0
aF1.0
aF1.0
aF0.0
aF0.0
aF1.0
aF1.0
aF1.0
aF1.0
aF1.0
aF1.0
aF1.0
aF1.0
aF1.0
aF1.0
aF1.0
aF1.0
aF1.0
aF0.0
aF1.0
aF0.0
aF1.0
aF1.0
aF1.0
aF0.0
aF0.0
aF0.0
aF1.0
aF1.0
aF0.0
aF1.0
atp1581
a(I0
(lp1582
F1.0
aF1.0
aF1.0
aF1.0
aF1.0
aF1.0
aF0.0
aF0.0
aF1.0
aF0.0
aF1.0
aF1.0
aF1.0
aF1.0
aF0.0
aF1.0
aF0.0
aF0.0
aF1.0
aF0.0
aF1.0
aF1.0
aF1.0
aF0.0
aF1.0
aF1.0
aF1.0
aF0.0
aF0.0
aF1.0
aF0.0
aF0.0
aF0.0
aF0.0
aF1.0
aF0.0
atp1583
a(I0
(lp1584
F1.0
aF1.0
aF0.0
aF1.0
aF0.0
aF0.0
aF0.0
aF1.0
aF1.0
aF1.0
aF1.0
aF0.0
aF1.0
aF0.0
aF0.0
aF0.0
aF0.0
aF1.0
aF1.0
aF1.0
aF1.0
aF1.0
aF0.0
aF1.0
aF1.0
aF1.0
aF1.0
aF1.0
aF1.0
aF1.0
aF0.0
aF0.0
aF1.0
aF1.0
aF1.0
aF0.0
atp1585
a(I0
(lp1586
F1.0
aF1.0
aF1.0
aF1.0
aF0.0
aF0.0
aF1.0
aF1.0
aF0.0
aF0.0
aF1.0
aF1.0
aF1.0
aF0.0
aF1.0
aF0.0
aF0.0
aF0.0
aF1.0
aF0.0
aF1.0
aF0.0
aF1.0
aF1.0
aF0.0
aF1.0
aF0.0
aF0.0
aF1.0
aF1.0
aF1.0
aF0.0
aF0.0
aF1.0
aF0.0
aF1.0
atp1587
a(I1
(lp1588
F1.0
aF0.0
aF1.0
aF1.0
aF0.0
aF0.0
aF1.0
aF1.0
aF1.0
aF1.0
aF1.0
aF1.0
aF1.0
aF1.0
aF1.0
aF1.0
aF0.0
aF0.0
aF0.0
aF0.0
aF0.0
aF1.0
aF0.0
aF0.0
aF0.0
aF1.0
aF1.0
aF1.0
aF0.0
aF0.0
aF1.0
aF0.0
aF0.0
aF0.0
aF0.0
aF0.0
atp1589
a(I0
(lp1590
F0.0
aF1.0
aF1.0
aF0.0
aF0.0
aF0.0
aF1.0
aF1.0
aF1.0
aF0.0
aF1.0
aF1.0
aF0.0
aF1.0
aF1.0
aF1.0
aF0.0
aF0.0
aF0.0
aF0.0
aF1.0
aF0.0
aF0.0
aF0.0
aF0.0
aF0.0
aF1.0
aF0.0
aF0.0
aF1.0
aF1.0
aF0.0
aF0.0
aF0.0
aF0.0
aF0.0
atp1591
a(I0
(lp1592
F0.0
aF1.0
aF0.0
aF1.0
aF0.0
aF0.0
aF1.0
aF0.0
aF0.0
aF1.0
aF1.0
aF1.0
aF1.0
aF0.0
aF0.0
aF1.0
aF0.0
aF0.0
aF1.0
aF0.0
aF0.0
aF0.0
aF0.0
aF0.0
aF1.0
aF1.0
aF0.0
aF0.0
aF1.0
aF1.0
aF1.0
aF0.0
aF0.0
aF1.0
aF0.0
aF1.0
atp1593
a(I0
(lp1594
F1.0
aF0.0
aF1.0
aF1.0
aF1.0
aF0.0
aF1.0
aF1.0
aF1.0
aF1.0
aF1.0
aF0.0
aF1.0
aF0.0
aF1.0
aF0.0
aF0.0
aF1.0
aF0.0
aF0.0
aF0.0
aF1.0
aF1.0
aF0.0
aF0.0
aF1.0
aF0.0
aF1.0
aF1.0
aF0.0
aF0.0
aF0.0
aF0.0
aF0.0
aF0.0
aF1.0
atp1595
a(I0
(lp1596
F0.0
aF1.0
aF0.0
aF1.0
aF0.0
aF1.0
aF1.0
aF0.0
aF1.0
aF0.0
aF0.0
aF1.0
aF1.0
aF1.0
aF1.0
aF1.0
aF1.0
aF0.0
aF0.0
aF0.0
aF0.0
aF1.0
aF1.0
aF1.0
aF0.0
aF1.0
aF1.0
aF1.0
aF0.0
aF1.0
aF1.0
aF0.0
aF0.0
aF1.0
aF0.0
aF0.0
atp1597
a(I0
(lp1598
F0.0
aF1.0
aF1.0
aF1.0
aF0.0
aF0.0
aF0.0
aF0.0
aF0.0
aF0.0
aF1.0
aF1.0
aF1.0
aF1.0
aF1.0
aF1.0
aF0.0
aF0.0
aF0.0
aF1.0
aF0.0
aF1.0
aF1.0
aF0.0
aF1.0
aF1.0
aF0.0
aF0.0
aF1.0
aF0.0
aF1.0
aF0.0
aF0.0
aF1.0
aF0.0
aF0.0
atp1599
a(I0
(lp1600
F1.0
aF0.0
aF1.0
aF1.0
aF0.0
aF0.0
aF1.0
aF1.0
aF1.0
aF0.0
aF1.0
aF0.0
aF1.0
aF1.0
aF1.0
aF1.0
aF0.0
aF0.0
aF1.0
aF0.0
aF0.0
aF1.0
aF0.0
aF1.0
aF1.0
aF1.0
aF0.0
aF1.0
aF1.0
aF1.0
aF1.0
aF0.0
aF0.0
aF0.0
aF0.0
aF0.0
atp1601
a(I0
(lp1602
F1.0
aF1.0
aF0.0
aF1.0
aF0.0
aF1.0
aF1.0
aF0.0
aF1.0
aF0.0
aF0.0
aF0.0
aF1.0
aF1.0
aF1.0
aF0.0
aF0.0
aF0.0
aF1.0
aF0.0
aF0.0
aF0.0
aF0.0
aF0.0
aF0.0
aF1.0
aF1.0
aF0.0
aF1.0
aF1.0
aF1.0
aF0.0
aF0.0
aF0.0
aF1.0
aF1.0
atp1603
a(I0
(lp1604
F1.0
aF1.0
aF1.0
aF1.0
aF1.0
aF0.0
aF1.0
aF1.0
aF1.0
aF1.0
aF1.0
aF1.0
aF1.0
aF1.0
aF1.0
aF1.0
aF1.0
aF0.0
aF1.0
aF0.0
aF0.0
aF1.0
aF0.0
aF0.0
aF1.0
aF1.0
aF1.0
aF1.0
aF0.0
aF0.0
aF0.0
aF0.0
aF0.0
aF1.0
aF0.0
aF0.0
atp1605
a(I0
g1604
tp1606
a(I0
(lp1607
F0.0
aF1.0
aF0.0
aF1.0
aF1.0
aF1.0
aF1.0
aF1.0
aF1.0
aF1.0
aF1.0
aF1.0
aF1.0
aF1.0
aF1.0
aF0.0
aF0.0
aF0.0
aF1.0
aF1.0
aF0.0
aF1.0
aF1.0
aF1.0
aF1.0
aF1.0
aF1.0
aF1.0
aF1.0
aF1.0
aF0.0
aF0.0
aF0.0
aF0.0
aF1.0
aF0.0
atp1608
a(I0
g1604
tp1609
a(I0
g1607
tp1610
a(I0
(lp1611
F0.0
aF1.0
aF1.0
aF1.0
aF1.0
aF0.0
aF1.0
aF1.0
aF0.0
aF1.0
aF1.0
aF1.0
aF1.0
aF1.0
aF0.0
aF1.0
aF0.0
aF0.0
aF1.0
aF0.0
aF0.0
aF1.0
aF0.0
aF0.0
aF1.0
aF1.0
aF1.0
aF1.0
aF1.0
aF0.0
aF0.0
aF0.0
aF0.0
aF0.0
aF0.0
aF0.0
atp1612
a(I0
g1604
tp1613
a(I0
g1607
tp1614
a(I0
g1611
tp1615
a(I0
(lp1616
F0.0
aF1.0
aF1.0
aF1.0
aF0.0
aF0.0
aF0.0
aF0.0
aF1.0
aF0.0
aF0.0
aF1.0
aF0.0
aF1.0
aF1.0
aF0.0
aF0.0
aF0.0
aF0.0
aF0.0
aF0.0
aF1.0
aF0.0
aF1.0
aF0.0
aF1.0
aF0.0
aF1.0
aF0.0
aF1.0
aF0.0
aF0.0
aF0.0
aF1.0
aF0.0
aF0.0
atp1617
a(I0
g1604
tp1618
a(I0
g1607
tp1619
a(I0
g1611
tp1620
a(I0
g1616
tp1621
a(I0
(lp1622
F0.0
aF0.0
aF1.0
aF1.0
aF0.0
aF0.0
aF1.0
aF1.0
aF1.0
aF1.0
aF1.0
aF1.0
aF1.0
aF1.0
aF1.0
aF1.0
aF0.0
aF0.0
aF0.0
aF0.0
aF0.0
aF0.0
aF1.0
aF0.0
aF0.0
aF1.0
aF0.0
aF1.0
aF1.0
aF0.0
aF1.0
aF0.0
aF1.0
aF1.0
aF0.0
aF0.0
atp1623
a(I0
g1604
tp1624
a(I0
g1607
tp1625
a(I0
g1611
tp1626
a(I0
g1616
tp1627
a(I0
g1622
tp1628
a(I0
(lp1629
F1.0
aF0.0
aF1.0
aF0.0
aF0.0
aF1.0
aF1.0
aF1.0
aF1.0
aF1.0
aF1.0
aF1.0
aF1.0
aF1.0
aF1.0
aF1.0
aF1.0
aF0.0
aF1.0
aF1.0
aF0.0
aF1.0
aF1.0
aF0.0
aF0.0
aF0.0
aF1.0
aF0.0
aF0.0
aF0.0
aF0.0
aF1.0
aF1.0
aF0.0
aF0.0
aF0.0
atp1630
a(I0
(lp1631
F1.0
aF1.0
aF1.0
aF0.0
aF0.0
aF1.0
aF1.0
aF0.0
aF1.0
aF1.0
aF1.0
aF0.0
aF1.0
aF1.0
aF1.0
aF1.0
aF0.0
aF0.0
aF1.0
aF0.0
aF0.0
aF1.0
aF0.0
aF1.0
aF0.0
aF1.0
aF1.0
aF1.0
aF0.0
aF0.0
aF0.0
aF1.0
aF0.0
aF0.0
aF0.0
aF0.0
atp1632
a(I0
(lp1633
F1.0
aF1.0
aF0.0
aF1.0
aF1.0
aF0.0
aF0.0
aF1.0
aF0.0
aF1.0
aF1.0
aF1.0
aF1.0
aF1.0
aF1.0
aF1.0
aF0.0
aF1.0
aF1.0
aF0.0
aF0.0
aF1.0
aF0.0
aF0.0
aF0.0
aF1.0
aF0.0
aF1.0
aF1.0
aF1.0
aF0.0
aF0.0
aF0.0
aF1.0
aF0.0
aF1.0
atp1634
a(I0
(lp1635
F1.0
aF1.0
aF1.0
aF0.0
aF0.0
aF0.0
aF0.0
aF1.0
aF1.0
aF1.0
aF1.0
aF1.0
aF1.0
aF1.0
aF1.0
aF0.0
aF0.0
aF0.0
aF1.0
aF0.0
aF0.0
aF1.0
aF0.0
aF0.0
aF0.0
aF0.0
aF0.0
aF0.0
aF1.0
aF1.0
aF1.0
aF1.0
aF0.0
aF0.0
aF1.0
aF1.0
atp1636
a(I0
(lp1637
F0.0
aF1.0
aF1.0
aF1.0
aF0.0
aF0.0
aF1.0
aF1.0
aF1.0
aF0.0
aF1.0
aF0.0
aF1.0
aF1.0
aF1.0
aF1.0
aF0.0
aF0.0
aF0.0
aF0.0
aF0.0
aF1.0
aF0.0
aF1.0
aF0.0
aF1.0
aF1.0
aF1.0
aF0.0
aF1.0
aF0.0
aF0.0
aF0.0
aF0.0
aF0.0
aF0.0
atp1638
a(I0
(lp1639
F1.0
aF1.0
aF0.0
aF1.0
aF0.0
aF0.0
aF1.0
aF1.0
aF1.0
aF0.0
aF1.0
aF1.0
aF1.0
aF1.0
aF1.0
aF0.0
aF0.0
aF0.0
aF0.0
aF0.0
aF0.0
aF1.0
aF0.0
aF0.0
aF1.0
aF1.0
aF1.0
aF1.0
aF0.0
aF1.0
aF0.0
aF1.0
aF0.0
aF1.0
aF0.0
aF0.0
atp1640
a(I0
(lp1641
F1.0
aF1.0
aF0.0
aF1.0
aF1.0
aF1.0
aF1.0
aF0.0
aF1.0
aF1.0
aF1.0
aF1.0
aF1.0
aF1.0
aF1.0
aF1.0
aF1.0
aF0.0
aF1.0
aF1.0
aF0.0
aF0.0
aF0.0
aF1.0
aF1.0
aF1.0
aF1.0
aF1.0
aF0.0
aF1.0
aF1.0
aF0.0
aF0.0
aF0.0
aF0.0
aF0.0
atp1642
a(I0
(lp1643
F1.0
aF1.0
aF0.0
aF1.0
aF0.0
aF1.0
aF1.0
aF1.0
aF1.0
aF0.0
aF1.0
aF0.0
aF1.0
aF1.0
aF1.0
aF1.0
aF0.0
aF1.0
aF1.0
aF0.0
aF1.0
aF1.0
aF1.0
aF0.0
aF1.0
aF1.0
aF0.0
aF0.0
aF1.0
aF1.0
aF1.0
aF0.0
aF0.0
aF1.0
aF0.0
aF0.0
atp1644
a(I0
(lp1645
F1.0
aF1.0
aF1.0
aF1.0
aF1.0
aF1.0
aF1.0
aF1.0
aF1.0
aF0.0
aF1.0
aF0.0
aF0.0
aF1.0
aF1.0
aF1.0
aF1.0
aF0.0
aF1.0
aF0.0
aF1.0
aF1.0
aF0.0
aF0.0
aF1.0
aF1.0
aF1.0
aF1.0
aF0.0
aF1.0
aF0.0
aF0.0
aF0.0
aF0.0
aF0.0
aF0.0
atp1646
a(I1
g1645
tp1647
a(I1
(lp1648
F1.0
aF1.0
aF1.0
aF0.0
aF0.0
aF0.0
aF1.0
aF0.0
aF1.0
aF0.0
aF1.0
aF1.0
aF1.0
aF1.0
aF0.0
aF1.0
aF1.0
aF0.0
aF1.0
aF0.0
aF0.0
aF1.0
aF0.0
aF0.0
aF0.0
aF1.0
aF1.0
aF0.0
aF1.0
aF1.0
aF0.0
aF0.0
aF0.0
aF0.0
aF0.0
aF1.0
atp1649
a(I1
(lp1650
F1.0
aF1.0
aF1.0
aF0.0
aF0.0
aF0.0
aF1.0
aF1.0
aF1.0
aF0.0
aF1.0
aF1.0
aF1.0
aF1.0
aF1.0
aF1.0
aF0.0
aF1.0
aF1.0
aF0.0
aF0.0
aF1.0
aF0.0
aF0.0
aF0.0
aF0.0
aF0.0
aF0.0
aF0.0
aF0.0
aF0.0
aF0.0
aF0.0
aF0.0
aF0.0
aF0.0
atp1651
a(I0
g1650
tp1652
a(I0
(lp1653
F1.0
aF1.0
aF1.0
aF1.0
aF0.0
aF0.0
aF1.0
aF1.0
aF0.0
aF1.0
aF1.0
aF1.0
aF1.0
aF0.0
aF1.0
aF1.0
aF0.0
aF0.0
aF1.0
aF0.0
aF1.0
aF0.0
aF1.0
aF0.0
aF1.0
aF1.0
aF1.0
aF1.0
aF1.0
aF0.0
aF0.0
aF0.0
aF0.0
aF0.0
aF1.0
aF1.0
atp1654
a(I0
g1650
tp1655
a(I0
g1653
tp1656
a(I0
(lp1657
F1.0
aF1.0
aF1.0
aF1.0
aF1.0
aF0.0
aF1.0
aF1.0
aF1.0
aF0.0
aF1.0
aF1.0
aF1.0
aF1.0
aF1.0
aF1.0
aF0.0
aF0.0
aF1.0
aF1.0
aF1.0
aF1.0
aF0.0
aF1.0
aF0.0
aF1.0
aF1.0
aF1.0
aF1.0
aF1.0
aF0.0
aF1.0
aF0.0
aF1.0
aF0.0
aF0.0
atp1658
a(I0
(lp1659
F1.0
aF1.0
aF1.0
aF1.0
aF1.0
aF0.0
aF1.0
aF1.0
aF1.0
aF0.0
aF0.0
aF1.0
aF1.0
aF0.0
aF0.0
aF0.0
aF0.0
aF0.0
aF1.0
aF1.0
aF0.0
aF1.0
aF1.0
aF0.0
aF1.0
aF1.0
aF1.0
aF0.0
aF0.0
aF0.0
aF1.0
aF0.0
aF0.0
aF1.0
aF0.0
aF0.0
atp1660
a(I0
(lp1661
F1.0
aF1.0
aF1.0
aF0.0
aF0.0
aF1.0
aF1.0
aF1.0
aF1.0
aF1.0
aF1.0
aF0.0
aF1.0
aF1.0
aF1.0
aF0.0
aF0.0
aF0.0
aF1.0
aF0.0
aF0.0
aF0.0
aF1.0
aF1.0
aF0.0
aF0.0
aF1.0
aF0.0
aF0.0
aF0.0
aF1.0
aF1.0
aF0.0
aF1.0
aF0.0
aF0.0
atp1662
a(I0
g1661
tp1663
a(I0
(lp1664
F1.0
aF1.0
aF1.0
aF1.0
aF0.0
aF0.0
aF1.0
aF1.0
aF1.0
aF0.0
aF1.0
aF1.0
aF1.0
aF0.0
aF0.0
aF0.0
aF1.0
aF0.0
aF1.0
aF0.0
aF0.0
aF1.0
aF0.0
aF1.0
aF1.0
aF1.0
aF1.0
aF1.0
aF1.0
aF1.0
aF0.0
aF0.0
aF1.0
aF0.0
aF0.0
aF0.0
atp1665
a(I0
g1661
tp1666
a(I0
g1664
tp1667
a(I0
(lp1668
F1.0
aF0.0
aF0.0
aF0.0
aF0.0
aF1.0
aF0.0
aF1.0
aF1.0
aF1.0
aF0.0
aF1.0
aF1.0
aF1.0
aF0.0
aF0.0
aF0.0
aF0.0
aF1.0
aF1.0
aF1.0
aF0.0
aF0.0
aF0.0
aF1.0
aF1.0
aF1.0
aF1.0
aF1.0
aF1.0
aF1.0
aF1.0
aF0.0
aF1.0
aF0.0
aF0.0
atp1669
a(I0
g1661
tp1670
a(I0
g1664
tp1671
a(I0
g1668
tp1672
a(I0
(lp1673
F1.0
aF1.0
aF1.0
aF1.0
aF0.0
aF0.0
aF1.0
aF1.0
aF1.0
aF0.0
aF1.0
aF1.0
aF1.0
aF1.0
aF1.0
aF0.0
aF0.0
aF0.0
aF1.0
aF0.0
aF0.0
aF1.0
aF0.0
aF0.0
aF1.0
aF0.0
aF1.0
aF1.0
aF0.0
aF1.0
aF1.0
aF1.0
aF1.0
aF0.0
aF0.0
aF1.0
atp1674
a(I0
g1661
tp1675
a(I0
g1664
tp1676
a(I0
g1668
tp1677
a(I0
g1673
tp1678
a(I0
(lp1679
F1.0
aF1.0
aF0.0
aF0.0
aF1.0
aF0.0
aF1.0
aF0.0
aF0.0
aF1.0
aF1.0
aF1.0
aF1.0
aF1.0
aF1.0
aF1.0
aF1.0
aF0.0
aF0.0
aF0.0
aF0.0
aF1.0
aF0.0
aF0.0
aF1.0
aF1.0
aF1.0
aF1.0
aF1.0
aF1.0
aF1.0
aF0.0
aF0.0
aF0.0
aF0.0
aF0.0
atp1680
a(I1
(lp1681
F1.0
aF1.0
aF1.0
aF1.0
aF0.0
aF1.0
aF1.0
aF1.0
aF0.0
aF1.0
aF1.0
aF1.0
aF1.0
aF1.0
aF1.0
aF1.0
aF1.0
aF1.0
aF1.0
aF0.0
aF0.0
aF1.0
aF1.0
aF0.0
aF0.0
aF1.0
aF1.0
aF1.0
aF0.0
aF1.0
aF1.0
aF0.0
aF0.0
aF0.0
aF1.0
aF0.0
atp1682
a(I0
(lp1683
F1.0
aF1.0
aF1.0
aF1.0
aF1.0
aF0.0
aF1.0
aF1.0
aF1.0
aF1.0
aF1.0
aF1.0
aF1.0
aF0.0
aF0.0
aF0.0
aF0.0
aF0.0
aF1.0
aF0.0
aF0.0
aF1.0
aF0.0
aF0.0
aF0.0
aF1.0
aF1.0
aF0.0
aF0.0
aF1.0
aF0.0
aF0.0
aF0.0
aF0.0
aF1.0
aF1.0
atp1684
a(I0
(lp1685
F0.0
aF1.0
aF0.0
aF1.0
aF0.0
aF1.0
aF1.0
aF1.0
aF1.0
aF0.0
aF0.0
aF0.0
aF1.0
aF1.0
aF1.0
aF1.0
aF1.0
aF1.0
aF1.0
aF1.0
aF1.0
aF1.0
aF1.0
aF0.0
aF1.0
aF1.0
aF0.0
aF0.0
aF1.0
aF0.0
aF1.0
aF1.0
aF0.0
aF1.0
aF1.0
aF0.0
atp1686
a(I0
(lp1687
F1.0
aF1.0
aF1.0
aF1.0
aF0.0
aF0.0
aF1.0
aF0.0
aF1.0
aF0.0
aF1.0
aF1.0
aF1.0
aF0.0
aF1.0
aF0.0
aF0.0
aF1.0
aF1.0
aF0.0
aF0.0
aF1.0
aF0.0
aF0.0
aF1.0
aF0.0
aF1.0
aF1.0
aF1.0
aF0.0
aF1.0
aF0.0
aF0.0
aF1.0
aF1.0
aF0.0
atp1688
a(I0
(lp1689
F1.0
aF1.0
aF1.0
aF1.0
aF1.0
aF0.0
aF0.0
aF1.0
aF1.0
aF1.0
aF1.0
aF0.0
aF1.0
aF1.0
aF0.0
aF1.0
aF1.0
aF0.0
aF1.0
aF0.0
aF1.0
aF0.0
aF0.0
aF1.0
aF1.0
aF1.0
aF1.0
aF1.0
aF1.0
aF1.0
aF0.0
aF1.0
aF0.0
aF1.0
aF1.0
aF0.0
atp1690
a(I0
(lp1691
F1.0
aF1.0
aF1.0
aF0.0
aF0.0
aF0.0
aF1.0
aF1.0
aF1.0
aF1.0
aF1.0
aF1.0
aF1.0
aF1.0
aF1.0
aF1.0
aF0.0
aF0.0
aF1.0
aF0.0
aF0.0
aF1.0
aF0.0
aF0.0
aF1.0
aF1.0
aF0.0
aF0.0
aF1.0
aF0.0
aF0.0
aF0.0
aF0.0
aF0.0
aF0.0
aF0.0
atp1692
a(I1
(lp1693
F1.0
aF1.0
aF0.0
aF1.0
aF1.0
aF1.0
aF1.0
aF1.0
aF1.0
aF0.0
aF0.0
aF1.0
aF1.0
aF1.0
aF1.0
aF1.0
aF0.0
aF0.0
aF1.0
aF1.0
aF1.0
aF1.0
aF0.0
aF0.0
aF0.0
aF1.0
aF1.0
aF1.0
aF1.0
aF1.0
aF1.0
aF1.0
aF0.0
aF1.0
aF0.0
aF0.0
atp1694
a(I0
(lp1695
F1.0
aF0.0
aF1.0
aF0.0
aF1.0
aF1.0
aF0.0
aF1.0
aF1.0
aF1.0
aF1.0
aF0.0
aF1.0
aF1.0
aF1.0
aF0.0
aF0.0
aF0.0
aF1.0
aF0.0
aF0.0
aF1.0
aF1.0
aF1.0
aF1.0
aF1.0
aF0.0
aF1.0
aF0.0
aF1.0
aF1.0
aF1.0
aF1.0
aF1.0
aF1.0
aF0.0
atp1696
a(I0
(lp1697
F1.0
aF1.0
aF0.0
aF1.0
aF1.0
aF0.0
aF1.0
aF1.0
aF1.0
aF1.0
aF1.0
aF0.0
aF1.0
aF1.0
aF1.0
aF1.0
aF1.0
aF1.0
aF1.0
aF1.0
aF0.0
aF0.0
aF0.0
aF0.0
aF1.0
aF1.0
aF0.0
aF1.0
aF1.0
aF0.0
aF1.0
aF1.0
aF0.0
aF1.0
aF1.0
aF0.0
atp1698
a(I0
g1697
tp1699
a(I0
(lp1700
F1.0
aF1.0
aF1.0
aF0.0
aF0.0
aF0.0
aF1.0
aF1.0
aF1.0
aF1.0
aF1.0
aF0.0
aF1.0
aF1.0
aF1.0
aF0.0
aF0.0
aF0.0
aF0.0
aF1.0
aF0.0
aF1.0
aF1.0
aF1.0
aF1.0
aF1.0
aF1.0
aF1.0
aF1.0
aF1.0
aF0.0
aF1.0
aF0.0
aF1.0
aF1.0
aF1.0
atp1701
a(I0
(lp1702
F1.0
aF1.0
aF0.0
aF1.0
aF0.0
aF1.0
aF0.0
aF1.0
aF1.0
aF0.0
aF1.0
aF0.0
aF1.0
aF0.0
aF1.0
aF0.0
aF0.0
aF0.0
aF1.0
aF0.0
aF0.0
aF1.0
aF1.0
aF0.0
aF1.0
aF1.0
aF1.0
aF0.0
aF0.0
aF1.0
aF1.0
aF0.0
aF1.0
aF1.0
aF1.0
aF1.0
atp1703
a(I0
(lp1704
F1.0
aF0.0
aF0.0
aF1.0
aF1.0
aF0.0
aF0.0
aF1.0
aF0.0
aF0.0
aF1.0
aF1.0
aF0.0
aF1.0
aF1.0
aF1.0
aF0.0
aF0.0
aF0.0
aF0.0
aF1.0
aF0.0
aF0.0
aF0.0
aF1.0
aF1.0
aF1.0
aF0.0
aF1.0
aF1.0
aF1.0
aF1.0
aF0.0
aF1.0
aF0.0
aF0.0
atp1705
a(I1
(lp1706
F0.0
aF1.0
aF1.0
aF1.0
aF0.0
aF1.0
aF1.0
aF1.0
aF1.0
aF0.0
aF0.0
aF1.0
aF1.0
aF1.0
aF1.0
aF1.0
aF1.0
aF0.0
aF1.0
aF0.0
aF1.0
aF1.0
aF1.0
aF1.0
aF0.0
aF0.0
aF1.0
aF1.0
aF1.0
aF1.0
aF1.0
aF1.0
aF0.0
aF0.0
aF0.0
aF0.0
atp1707
a(I0
(lp1708
F1.0
aF0.0
aF1.0
aF1.0
aF1.0
aF0.0
aF1.0
aF0.0
aF1.0
aF1.0
aF1.0
aF1.0
aF1.0
aF1.0
aF1.0
aF0.0
aF0.0
aF0.0
aF0.0
aF0.0
aF0.0
aF1.0
aF0.0
aF1.0
aF1.0
aF0.0
aF0.0
aF1.0
aF1.0
aF1.0
aF1.0
aF1.0
aF0.0
aF1.0
aF0.0
aF0.0
atp1709
a(I1
g1708
tp1710
a(I1
(lp1711
F1.0
aF0.0
aF1.0
aF1.0
aF0.0
aF1.0
aF1.0
aF0.0
aF1.0
aF0.0
aF1.0
aF1.0
aF1.0
aF0.0
aF1.0
aF1.0
aF0.0
aF0.0
aF1.0
aF0.0
aF0.0
aF1.0
aF0.0
aF0.0
aF1.0
aF1.0
aF1.0
aF1.0
aF1.0
aF0.0
aF0.0
aF0.0
aF0.0
aF1.0
aF0.0
aF0.0
atp1712
a(I0
(lp1713
F1.0
aF1.0
aF1.0
aF1.0
aF1.0
aF0.0
aF1.0
aF1.0
aF1.0
aF1.0
aF1.0
aF0.0
aF0.0
aF1.0
aF1.0
aF0.0
aF0.0
aF1.0
aF1.0
aF0.0
aF1.0
aF0.0
aF1.0
aF1.0
aF0.0
aF0.0
aF1.0
aF0.0
aF1.0
aF1.0
aF1.0
aF1.0
aF0.0
aF0.0
aF0.0
aF0.0
atp1714
a(I0
(lp1715
F1.0
aF1.0
aF0.0
aF1.0
aF1.0
aF1.0
aF1.0
aF1.0
aF1.0
aF0.0
aF1.0
aF1.0
aF1.0
aF1.0
aF0.0
aF1.0
aF1.0
aF0.0
aF1.0
aF0.0
aF0.0
aF1.0
aF0.0
aF0.0
aF1.0
aF1.0
aF0.0
aF1.0
aF1.0
aF1.0
aF0.0
aF0.0
aF0.0
aF1.0
aF0.0
aF0.0
atp1716
a(I0
(lp1717
F1.0
aF0.0
aF1.0
aF1.0
aF0.0
aF0.0
aF0.0
aF1.0
aF1.0
aF1.0
aF1.0
aF1.0
aF0.0
aF1.0
aF1.0
aF0.0
aF0.0
aF0.0
aF0.0
aF0.0
aF0.0
aF1.0
aF0.0
aF1.0
aF0.0
aF1.0
aF1.0
aF1.0
aF0.0
aF1.0
aF1.0
aF0.0
aF0.0
aF0.0
aF0.0
aF0.0
atp1718
a(I0
(lp1719
F1.0
aF0.0
aF0.0
aF1.0
aF0.0
aF1.0
aF1.0
aF1.0
aF1.0
aF1.0
aF1.0
aF1.0
aF1.0
aF1.0
aF0.0
aF0.0
aF0.0
aF0.0
aF1.0
aF0.0
aF0.0
aF1.0
aF0.0
aF0.0
aF1.0
aF1.0
aF1.0
aF0.0
aF0.0
aF1.0
aF1.0
aF0.0
aF0.0
aF0.0
aF0.0
aF0.0
atp1720
a(I1
(lp1721
F1.0
aF1.0
aF1.0
aF0.0
aF0.0
aF1.0
aF0.0
aF1.0
aF1.0
aF0.0
aF0.0
aF1.0
aF0.0
aF1.0
aF1.0
aF1.0
aF0.0
aF0.0
aF1.0
aF0.0
aF0.0
aF1.0
aF0.0
aF1.0
aF0.0
aF1.0
aF1.0
aF1.0
aF1.0
aF0.0
aF1.0
aF1.0
aF0.0
aF0.0
aF0.0
aF0.0
atp1722
a(I0
(lp1723
F1.0
aF1.0
aF0.0
aF1.0
aF1.0
aF1.0
aF1.0
aF1.0
aF1.0
aF1.0
aF1.0
aF0.0
aF0.0
aF1.0
aF1.0
aF0.0
aF0.0
aF0.0
aF1.0
aF0.0
aF0.0
aF1.0
aF1.0
aF0.0
aF1.0
aF1.0
aF1.0
aF0.0
aF1.0
aF0.0
aF0.0
aF0.0
aF0.0
aF1.0
aF0.0
aF0.0
atp1724
a(I0
(lp1725
F1.0
aF1.0
aF1.0
aF1.0
aF0.0
aF0.0
aF1.0
aF0.0
aF1.0
aF1.0
aF1.0
aF1.0
aF1.0
aF1.0
aF1.0
aF0.0
aF1.0
aF0.0
aF0.0
aF0.0
aF1.0
aF1.0
aF1.0
aF1.0
aF1.0
aF1.0
aF1.0
aF1.0
aF0.0
aF1.0
aF1.0
aF0.0
aF0.0
aF1.0
aF0.0
aF0.0
atp1726
a(I0
(lp1727
F1.0
aF1.0
aF0.0
aF1.0
aF0.0
aF0.0
aF1.0
aF1.0
aF0.0
aF1.0
aF1.0
aF0.0
aF1.0
aF1.0
aF1.0
aF1.0
aF0.0
aF0.0
aF0.0
aF0.0
aF0.0
aF1.0
aF1.0
aF0.0
aF0.0
aF1.0
aF1.0
aF0.0
aF1.0
aF0.0
aF1.0
aF0.0
aF0.0
aF1.0
aF1.0
aF0.0
atp1728
a(I0
(lp1729
F1.0
aF1.0
aF0.0
aF0.0
aF1.0
aF1.0
aF1.0
aF1.0
aF1.0
aF0.0
aF1.0
aF0.0
aF0.0
aF1.0
aF1.0
aF1.0
aF1.0
aF0.0
aF1.0
aF0.0
aF0.0
aF1.0
aF1.0
aF0.0
aF1.0
aF1.0
aF0.0
aF1.0
aF1.0
aF0.0
aF0.0
aF1.0
aF0.0
aF1.0
aF1.0
aF0.0
atp1730
a(I0
(lp1731
F1.0
aF1.0
aF1.0
aF1.0
aF0.0
aF1.0
aF1.0
aF1.0
aF0.0
aF0.0
aF1.0
aF1.0
aF0.0
aF1.0
aF0.0
aF1.0
aF0.0
aF0.0
aF1.0
aF0.0
aF1.0
aF0.0
aF0.0
aF1.0
aF0.0
aF1.0
aF1.0
aF0.0
aF1.0
aF1.0
aF1.0
aF0.0
aF0.0
aF0.0
aF1.0
aF0.0
atp1732
a(I0
g1731
tp1733
a(I0
(lp1734
F0.0
aF1.0
aF1.0
aF1.0
aF1.0
aF1.0
aF0.0
aF1.0
aF1.0
aF1.0
aF1.0
aF1.0
aF1.0
aF1.0
aF1.0
aF1.0
aF1.0
aF0.0
aF1.0
aF0.0
aF0.0
aF1.0
aF1.0
aF0.0
aF1.0
aF0.0
aF1.0
aF1.0
aF1.0
aF1.0
aF0.0
aF0.0
aF0.0
aF1.0
aF1.0
aF0.0
atp1735
a(I0
(lp1736
F1.0
aF1.0
aF1.0
aF0.0
aF0.0
aF0.0
aF1.0
aF1.0
aF1.0
aF0.0
aF0.0
aF1.0
aF0.0
aF1.0
aF1.0
aF0.0
aF1.0
aF0.0
aF1.0
aF1.0
aF0.0
aF1.0
aF1.0
aF0.0
aF0.0
aF1.0
aF1.0
aF1.0
aF0.0
aF1.0
aF0.0
aF0.0
aF0.0
aF1.0
aF0.0
aF0.0
atp1737
a(I0
(lp1738
F1.0
aF1.0
aF1.0
aF1.0
aF1.0
aF0.0
aF1.0
aF1.0
aF0.0
aF1.0
aF0.0
aF0.0
aF0.0
aF1.0
aF1.0
aF1.0
aF0.0
aF0.0
aF0.0
aF0.0
aF1.0
aF1.0
aF0.0
aF0.0
aF0.0
aF0.0
aF1.0
aF0.0
aF0.0
aF0.0
aF1.0
aF0.0
aF1.0
aF0.0
aF0.0
aF0.0
atp1739
a(I0
(lp1740
F1.0
aF0.0
aF0.0
aF1.0
aF0.0
aF0.0
aF1.0
aF1.0
aF0.0
aF1.0
aF1.0
aF1.0
aF1.0
aF1.0
aF1.0
aF0.0
aF0.0
aF0.0
aF1.0
aF0.0
aF0.0
aF1.0
aF1.0
aF1.0
aF1.0
aF1.0
aF1.0
aF1.0
aF1.0
aF1.0
aF0.0
aF0.0
aF0.0
aF1.0
aF0.0
aF0.0
atp1741
a(I0
(lp1742
F0.0
aF0.0
aF0.0
aF1.0
aF0.0
aF0.0
aF1.0
aF0.0
aF1.0
aF1.0
aF0.0
aF0.0
aF1.0
aF1.0
aF0.0
aF1.0
aF0.0
aF0.0
aF0.0
aF1.0
aF0.0
aF1.0
aF0.0
aF0.0
aF1.0
aF1.0
aF1.0
aF1.0
aF1.0
aF0.0
aF0.0
aF0.0
aF0.0
aF1.0
aF0.0
aF0.0
atp1743
a(I1
(lp1744
F1.0
aF1.0
aF1.0
aF1.0
aF0.0
aF0.0
aF1.0
aF1.0
aF0.0
aF0.0
aF1.0
aF1.0
aF1.0
aF0.0
aF1.0
aF0.0
aF0.0
aF1.0
aF1.0
aF0.0
aF0.0
aF1.0
aF1.0
aF1.0
aF1.0
aF1.0
aF0.0
aF1.0
aF1.0
aF1.0
aF1.0
aF1.0
aF0.0
aF1.0
aF0.0
aF0.0
atp1745
a(I0
(lp1746
F1.0
aF1.0
aF0.0
aF1.0
aF1.0
aF0.0
aF1.0
aF1.0
aF1.0
aF1.0
aF1.0
aF1.0
aF1.0
aF1.0
aF1.0
aF1.0
aF1.0
aF1.0
aF1.0
aF1.0
aF0.0
aF1.0
aF0.0
aF0.0
aF1.0
aF1.0
aF1.0
aF1.0
aF1.0
aF0.0
aF1.0
aF0.0
aF0.0
aF1.0
aF1.0
aF0.0
atp1747
a(I0
(lp1748
F1.0
aF1.0
aF1.0
aF1.0
aF1.0
aF1.0
aF1.0
aF1.0
aF1.0
aF0.0
aF0.0
aF0.0
aF1.0
aF1.0
aF0.0
aF0.0
aF0.0
aF0.0
aF1.0
aF0.0
aF1.0
aF1.0
aF1.0
aF0.0
aF1.0
aF1.0
aF1.0
aF1.0
aF1.0
aF1.0
aF0.0
aF1.0
aF0.0
aF1.0
aF0.0
aF0.0
atp1749
a(I0
(lp1750
F1.0
aF0.0
aF0.0
aF0.0
aF0.0
aF0.0
aF1.0
aF1.0
aF1.0
aF0.0
aF1.0
aF1.0
aF1.0
aF1.0
aF1.0
aF1.0
aF0.0
aF0.0
aF1.0
aF0.0
aF0.0
aF1.0
aF1.0
aF0.0
aF1.0
aF1.0
aF1.0
aF0.0
aF1.0
aF1.0
aF0.0
aF0.0
aF0.0
aF0.0
aF1.0
aF0.0
atp1751
a(I0
(lp1752
F1.0
aF1.0
aF0.0
aF1.0
aF0.0
aF1.0
aF1.0
aF0.0
aF1.0
aF0.0
aF1.0
aF1.0
aF1.0
aF1.0
aF1.0
aF1.0
aF0.0
aF0.0
aF1.0
aF0.0
aF1.0
aF1.0
aF0.0
aF0.0
aF1.0
aF1.0
aF1.0
aF1.0
aF1.0
aF1.0
aF1.0
aF0.0
aF1.0
aF1.0
aF1.0
aF0.0
atp1753
a(I1
(lp1754
F1.0
aF1.0
aF1.0
aF1.0
aF1.0
aF1.0
aF1.0
aF1.0
aF1.0
aF0.0
aF1.0
aF1.0
aF1.0
aF1.0
aF0.0
aF1.0
aF0.0
aF0.0
aF0.0
aF0.0
aF1.0
aF1.0
aF0.0
aF0.0
aF1.0
aF1.0
aF1.0
aF1.0
aF0.0
aF1.0
aF0.0
aF0.0
aF0.0
aF1.0
aF0.0
aF0.0
atp1755
a(I0
(lp1756
F1.0
aF1.0
aF1.0
aF1.0
aF0.0
aF0.0
aF1.0
aF1.0
aF1.0
aF1.0
aF1.0
aF1.0
aF1.0
aF1.0
aF1.0
aF1.0
aF1.0
aF0.0
aF1.0
aF0.0
aF0.0
aF1.0
aF0.0
aF0.0
aF0.0
aF1.0
aF1.0
aF1.0
aF0.0
aF0.0
aF0.0
aF0.0
aF0.0
aF1.0
aF0.0
aF1.0
atp1757
a(I0
(lp1758
F0.0
aF1.0
aF1.0
aF0.0
aF0.0
aF1.0
aF1.0
aF1.0
aF0.0
aF1.0
aF1.0
aF1.0
aF1.0
aF1.0
aF1.0
aF1.0
aF0.0
aF0.0
aF1.0
aF0.0
aF0.0
aF1.0
aF0.0
aF1.0
aF1.0
aF1.0
aF1.0
aF1.0
aF0.0
aF0.0
aF0.0
aF0.0
aF0.0
aF1.0
aF0.0
aF0.0
atp1759
a(I0
(lp1760
F1.0
aF0.0
aF1.0
aF0.0
aF0.0
aF0.0
aF0.0
aF1.0
aF1.0
aF1.0
aF1.0
aF1.0
aF1.0
aF1.0
aF1.0
aF0.0
aF0.0
aF0.0
aF1.0
aF0.0
aF0.0
aF1.0
aF1.0
aF1.0
aF0.0
aF0.0
aF0.0
aF1.0
aF1.0
aF0.0
aF0.0
aF0.0
aF0.0
aF1.0
aF0.0
aF0.0
atp1761
a(I0
(lp1762
F1.0
aF1.0
aF1.0
aF1.0
aF1.0
aF0.0
aF0.0
aF1.0
aF1.0
aF0.0
aF1.0
aF1.0
aF1.0
aF1.0
aF0.0
aF1.0
aF0.0
aF0.0
aF1.0
aF1.0
aF1.0
aF1.0
aF1.0
aF0.0
aF0.0
aF1.0
aF1.0
aF0.0
aF1.0
aF1.0
aF1.0
aF0.0
aF0.0
aF1.0
aF1.0
aF1.0
atp1763
a(I0
(lp1764
F0.0
aF1.0
aF1.0
aF1.0
aF0.0
aF0.0
aF1.0
aF0.0
aF1.0
aF1.0
aF1.0
aF1.0
aF1.0
aF0.0
aF1.0
aF1.0
aF0.0
aF0.0
aF1.0
aF1.0
aF0.0
aF1.0
aF1.0
aF0.0
aF1.0
aF0.0
aF0.0
aF0.0
aF1.0
aF1.0
aF0.0
aF0.0
aF0.0
aF1.0
aF1.0
aF1.0
atp1765
a(I0
g1764
tp1766
a(I0
(lp1767
F0.0
aF1.0
aF1.0
aF0.0
aF0.0
aF0.0
aF1.0
aF1.0
aF1.0
aF1.0
aF1.0
aF1.0
aF1.0
aF1.0
aF0.0
aF1.0
aF1.0
aF1.0
aF0.0
aF0.0
aF0.0
aF1.0
aF0.0
aF1.0
aF0.0
aF0.0
aF1.0
aF0.0
aF0.0
aF1.0
aF0.0
aF0.0
aF0.0
aF1.0
aF0.0
aF0.0
atp1768
a(I0
(lp1769
F0.0
aF1.0
aF1.0
aF1.0
aF1.0
aF1.0
aF1.0
aF1.0
aF1.0
aF1.0
aF1.0
aF1.0
aF1.0
aF1.0
aF1.0
aF0.0
aF0.0
aF0.0
aF1.0
aF0.0
aF0.0
aF1.0
aF0.0
aF0.0
aF1.0
aF1.0
aF1.0
aF1.0
aF0.0
aF1.0
aF0.0
aF0.0
aF0.0
aF1.0
aF1.0
aF0.0
atp1770
a(I0
(lp1771
F1.0
aF1.0
aF0.0
aF0.0
aF0.0
aF0.0
aF1.0
aF1.0
aF1.0
aF0.0
aF1.0
aF0.0
aF1.0
aF1.0
aF1.0
aF0.0
aF0.0
aF1.0
aF1.0
aF1.0
aF0.0
aF1.0
aF0.0
aF1.0
aF0.0
aF0.0
aF1.0
aF1.0
aF1.0
aF0.0
aF1.0
aF1.0
aF1.0
aF1.0
aF0.0
aF0.0
atp1772
a(I0
(lp1773
F1.0
aF0.0
aF0.0
aF1.0
aF1.0
aF1.0
aF1.0
aF1.0
aF0.0
aF1.0
aF1.0
aF0.0
aF1.0
aF0.0
aF1.0
aF0.0
aF0.0
aF1.0
aF0.0
aF0.0
aF0.0
aF1.0
aF1.0
aF1.0
aF0.0
aF1.0
aF1.0
aF1.0
aF0.0
aF1.0
aF0.0
aF0.0
aF0.0
aF0.0
aF0.0
aF0.0
atp1774
a(I0
(lp1775
F1.0
aF1.0
aF1.0
aF0.0
aF0.0
aF1.0
aF0.0
aF1.0
aF1.0
aF1.0
aF1.0
aF0.0
aF1.0
aF1.0
aF1.0
aF0.0
aF0.0
aF0.0
aF1.0
aF0.0
aF0.0
aF1.0
aF0.0
aF1.0
aF1.0
aF0.0
aF0.0
aF0.0
aF1.0
aF1.0
aF1.0
aF0.0
aF0.0
aF0.0
aF0.0
aF0.0
atp1776
a(I0
g1775
tp1777
a(I0
(lp1778
F1.0
aF1.0
aF1.0
aF0.0
aF0.0
aF1.0
aF0.0
aF1.0
aF1.0
aF0.0
aF1.0
aF1.0
aF1.0
aF1.0
aF1.0
aF1.0
aF0.0
aF0.0
aF1.0
aF0.0
aF0.0
aF1.0
aF0.0
aF0.0
aF1.0
aF1.0
aF1.0
aF1.0
aF1.0
aF0.0
aF0.0
aF0.0
aF0.0
aF0.0
aF0.0
aF0.0
atp1779
a(I0
(lp1780
F1.0
aF1.0
aF0.0
aF1.0
aF0.0
aF1.0
aF1.0
aF0.0
aF1.0
aF0.0
aF1.0
aF1.0
aF1.0
aF1.0
aF1.0
aF0.0
aF0.0
aF0.0
aF1.0
aF0.0
aF0.0
aF1.0
aF0.0
aF0.0
aF0.0
aF1.0
aF0.0
aF1.0
aF0.0
aF1.0
aF0.0
aF0.0
aF0.0
aF0.0
aF0.0
aF1.0
atp1781
a(I0
(lp1782
F1.0
aF1.0
aF1.0
aF1.0
aF1.0
aF0.0
aF0.0
aF1.0
aF1.0
aF1.0
aF0.0
aF1.0
aF1.0
aF0.0
aF1.0
aF1.0
aF0.0
aF0.0
aF1.0
aF0.0
aF0.0
aF1.0
aF0.0
aF1.0
aF1.0
aF1.0
aF1.0
aF1.0
aF0.0
aF1.0
aF1.0
aF0.0
aF0.0
aF0.0
aF0.0
aF0.0
atp1783
a(I0
(lp1784
F0.0
aF1.0
aF1.0
aF1.0
aF1.0
aF0.0
aF1.0
aF1.0
aF1.0
aF0.0
aF0.0
aF0.0
aF1.0
aF1.0
aF0.0
aF0.0
aF1.0
aF0.0
aF0.0
aF0.0
aF0.0
aF1.0
aF0.0
aF0.0
aF1.0
aF0.0
aF0.0
aF1.0
aF1.0
aF0.0
aF1.0
aF1.0
aF1.0
aF1.0
aF1.0
aF0.0
atp1785
a(I0
(lp1786
F1.0
aF1.0
aF0.0
aF0.0
aF0.0
aF0.0
aF1.0
aF1.0
aF1.0
aF1.0
aF1.0
aF1.0
aF1.0
aF1.0
aF1.0
aF1.0
aF0.0
aF1.0
aF1.0
aF1.0
aF1.0
aF1.0
aF0.0
aF0.0
aF1.0
aF1.0
aF1.0
aF0.0
aF0.0
aF0.0
aF1.0
aF0.0
aF0.0
aF0.0
aF1.0
aF0.0
atp1787
a.