(lp0
(F0.10055555555555555
F0.103
F0.094
tp1
a(F0.7863333333333333
F0.775
F0.823
tp2
a(F0.8448888888888889
F0.831
F0.885
tp3
a(F0.8674444444444445
F0.848
F0.901
tp4
a(F0.8793333333333333
F0.863
F0.909
tp5
a(F0.8861111111111111
F0.865
F0.914
tp6
a(F0.8902222222222222
F0.867
F0.916
tp7
a(F0.8933333333333333
F0.87
F0.916
tp8
a(F0.8947777777777778
F0.874
F0.917
tp9
a(F0.8975555555555556
F0.876
F0.921
tp10
a(F0.8998888888888888
F0.878
F0.922
tp11
a(F0.9016666666666666
F0.88
F0.926
tp12
a(F0.9022222222222223
F0.881
F0.926
tp13
a(F0.9033333333333333
F0.882
F0.928
tp14
a(F0.9044444444444445
F0.882
F0.926
tp15
a(F0.9048888888888889
F0.881
F0.927
tp16
a(F0.9055555555555556
F0.884
F0.928
tp17
a(F0.9058888888888889
F0.886
F0.927
tp18
a(F0.9076666666666666
F0.886
F0.925
tp19
a(F0.9093333333333333
F0.888
F0.924
tp20
a(F0.9101111111111111
F0.889
F0.924
tp21
a(F0.9113333333333333
F0.892
F0.925
tp22
a(F0.9122222222222223
F0.891
F0.925
tp23
a(F0.9125555555555556
F0.891
F0.925
tp24
a(F0.9132222222222223
F0.893
F0.925
tp25
a(F0.9151111111111111
F0.895
F0.926
tp26
a(F0.915
F0.897
F0.926
tp27
a(F0.9151111111111111
F0.897
F0.928
tp28
a(F0.9155555555555556
F0.898
F0.927
tp29
a(F0.9152222222222223
F0.898
F0.927
tp30
a(F0.9165555555555556
F0.898
F0.928
tp31
a(F0.9163333333333333
F0.899
F0.931
tp32
a(F0.9162222222222223
F0.898
F0.929
tp33
a(F0.9165555555555556
F0.896
F0.931
tp34
a(F0.9157777777777778
F0.896
F0.933
tp35
a(F0.9157777777777778
F0.895
F0.932
tp36
a(F0.9154444444444444
F0.896
F0.931
tp37
a(F0.9155555555555556
F0.894
F0.931
tp38
a(F0.9158888888888889
F0.896
F0.93
tp39
a(F0.9162222222222223
F0.898
F0.931
tp40
a(F0.9168888888888889
F0.896
F0.931
tp41
a(F0.9173333333333333
F0.898
F0.931
tp42
a(F0.9183333333333333
F0.898
F0.931
tp43
a(F0.9187777777777778
F0.898
F0.932
tp44
a(F0.9186666666666666
F0.898
F0.932
tp45
a(F0.9184444444444444
F0.9
F0.931
tp46
a(F0.9186666666666666
F0.901
F0.932
tp47
a(F0.9188888888888889
F0.9
F0.932
tp48
a(F0.919
F0.901
F0.93
tp49
a(F0.9194444444444444
F0.903
F0.93
tp50
a(F0.9194444444444444
F0.903
F0.931
tp51
a(F0.9191111111111111
F0.903
F0.93
tp52
a(F0.9187777777777778
F0.902
F0.932
tp53
a(F0.9188888888888889
F0.904
F0.933
tp54
a(F0.919
F0.904
F0.933
tp55
a(F0.9196666666666666
F0.904
F0.933
tp56
a(F0.92
F0.903
F0.933
tp57
a(F0.9205555555555556
F0.903
F0.934
tp58
a(F0.9206666666666666
F0.902
F0.935
tp59
a(F0.921
F0.902
F0.936
tp60
a(F0.9212222222222223
F0.903
F0.936
tp61
a(F0.9211111111111111
F0.903
F0.936
tp62
a(F0.9216666666666666
F0.903
F0.934
tp63
a(F0.9215555555555556
F0.903
F0.934
tp64
a(F0.9215555555555556
F0.904
F0.934
tp65
a(F0.9217777777777778
F0.904
F0.935
tp66
a(F0.9225555555555556
F0.906
F0.934
tp67
a(F0.9228888888888889
F0.908
F0.933
tp68
a(F0.924
F0.909
F0.934
tp69
a(F0.9238888888888889
F0.908
F0.932
tp70
a(F0.9243333333333333
F0.908
F0.932
tp71
a(F0.9243333333333333
F0.908
F0.932
tp72
a(F0.9246666666666666
F0.906
F0.932
tp73
a(F0.9247777777777778
F0.905
F0.932
tp74
a(F0.9247777777777778
F0.906
F0.932
tp75
a(F0.9246666666666666
F0.906
F0.931
tp76
a(F0.9246666666666666
F0.909
F0.931
tp77
a(F0.925
F0.908
F0.931
tp78
a(F0.9248888888888889
F0.909
F0.932
tp79
a(F0.9254444444444444
F0.908
F0.933
tp80
a(F0.9254444444444444
F0.91
F0.934
tp81
a(F0.9255555555555556
F0.909
F0.933
tp82
a(F0.9258888888888889
F0.909
F0.933
tp83
a(F0.9263333333333333
F0.909
F0.934
tp84
a(F0.9266666666666666
F0.911
F0.934
tp85
a(F0.9265555555555556
F0.911
F0.934
tp86
a(F0.9262222222222222
F0.911
F0.934
tp87
a(F0.9262222222222222
F0.912
F0.935
tp88
a(F0.9263333333333333
F0.911
F0.936
tp89
a(F0.9264444444444444
F0.911
F0.936
tp90
a(F0.927
F0.911
F0.936
tp91
a(F0.9267777777777778
F0.911
F0.936
tp92
a(F0.927
F0.911
F0.936
tp93
a(F0.9271111111111111
F0.91
F0.936
tp94
a(F0.9274444444444444
F0.908
F0.936
tp95
a(F0.9277777777777778
F0.907
F0.936
tp96
a(F0.9276666666666666
F0.908
F0.936
tp97
a(F0.9278888888888889
F0.908
F0.935
tp98
a(F0.928
F0.908
F0.935
tp99
a(F0.9277777777777778
F0.908
F0.935
tp100
a(F0.9277777777777778
F0.908
F0.936
tp101
a.