(lp0
(F0.088
F0.116
F0.095
tp1
a(F0.8615555555555555
F0.859
F0.891
tp2
a(F0.896
F0.877
F0.91
tp3
a(F0.9051111111111111
F0.894
F0.921
tp4
a(F0.9157777777777778
F0.899
F0.927
tp5
a(F0.9235555555555556
F0.903
F0.931
tp6
a(F0.9274444444444444
F0.901
F0.939
tp7
a(F0.9312222222222222
F0.903
F0.939
tp8
a(F0.9345555555555556
F0.901
F0.94
tp9
a(F0.9368888888888889
F0.905
F0.938
tp10
a(F0.9388888888888889
F0.906
F0.937
tp11
a(F0.9414444444444444
F0.911
F0.937
tp12
a(F0.9433333333333334
F0.913
F0.937
tp13
a(F0.9437777777777778
F0.918
F0.942
tp14
a(F0.9454444444444444
F0.92
F0.942
tp15
a(F0.9471111111111111
F0.92
F0.94
tp16
a(F0.9472222222222222
F0.919
F0.938
tp17
a(F0.9481111111111111
F0.919
F0.939
tp18
a(F0.9494444444444444
F0.918
F0.94
tp19
a(F0.9503333333333334
F0.919
F0.939
tp20
a(F0.9504444444444444
F0.918
F0.941
tp21
a(F0.951
F0.917
F0.939
tp22
a(F0.9521111111111111
F0.914
F0.941
tp23
a(F0.953
F0.914
F0.941
tp24
a(F0.9534444444444444
F0.915
F0.939
tp25
a(F0.9544444444444444
F0.918
F0.94
tp26
a(F0.955
F0.919
F0.94
tp27
a(F0.9557777777777777
F0.919
F0.94
tp28
a(F0.9557777777777777
F0.92
F0.938
tp29
a(F0.956
F0.919
F0.94
tp30
a(F0.9566666666666667
F0.918
F0.937
tp31
a(F0.9576666666666667
F0.918
F0.938
tp32
a(F0.958
F0.919
F0.938
tp33
a(F0.9582222222222222
F0.919
F0.938
tp34
a(F0.9582222222222222
F0.918
F0.939
tp35
a(F0.9585555555555556
F0.916
F0.935
tp36
a(F0.9586666666666667
F0.916
F0.937
tp37
a(F0.9586666666666667
F0.916
F0.941
tp38
a(F0.9591111111111111
F0.915
F0.94
tp39
a(F0.9591111111111111
F0.916
F0.939
tp40
a(F0.9591111111111111
F0.917
F0.939
tp41
a(F0.959
F0.917
F0.939
tp42
a(F0.9595555555555556
F0.917
F0.939
tp43
a(F0.9597777777777777
F0.917
F0.939
tp44
a(F0.9601111111111111
F0.918
F0.939
tp45
a(F0.9603333333333334
F0.92
F0.939
tp46
a(F0.9607777777777777
F0.92
F0.94
tp47
a(F0.9611111111111111
F0.92
F0.942
tp48
a(F0.9613333333333334
F0.92
F0.942
tp49
a(F0.9618888888888889
F0.919
F0.941
tp50
a(F0.9621111111111111
F0.918
F0.94
tp51
a(F0.9623333333333334
F0.918
F0.939
tp52
a(F0.9625555555555556
F0.918
F0.939
tp53
a(F0.9632222222222222
F0.918
F0.939
tp54
a(F0.9636666666666667
F0.918
F0.94
tp55
a(F0.9637777777777777
F0.918
F0.942
tp56
a(F0.9637777777777777
F0.918
F0.943
tp57
a(F0.9636666666666667
F0.918
F0.942
tp58
a(F0.9641111111111111
F0.919
F0.942
tp59
a(F0.9638888888888889
F0.918
F0.941
tp60
a(F0.9641111111111111
F0.92
F0.94
tp61
a(F0.9641111111111111
F0.918
F0.94
tp62
a(F0.964
F0.919
F0.941
tp63
a(F0.964
F0.919
F0.941
tp64
a(F0.9633333333333334
F0.918
F0.941
tp65
a(F0.9634444444444444
F0.916
F0.941
tp66
a(F0.9631111111111111
F0.917
F0.941
tp67
a(F0.9632222222222222
F0.917
F0.94
tp68
a(F0.9631111111111111
F0.917
F0.941
tp69
a(F0.9632222222222222
F0.917
F0.94
tp70
a(F0.9635555555555556
F0.918
F0.94
tp71
a(F0.9641111111111111
F0.918
F0.94
tp72
a(F0.9641111111111111
F0.918
F0.94
tp73
a(F0.9635555555555556
F0.918
F0.941
tp74
a(F0.9635555555555556
F0.918
F0.942
tp75
a(F0.9635555555555556
F0.92
F0.942
tp76
a(F0.964
F0.917
F0.942
tp77
a(F0.9645555555555556
F0.92
F0.942
tp78
a(F0.9645555555555556
F0.92
F0.942
tp79
a(F0.9648888888888889
F0.922
F0.942
tp80
a(F0.9648888888888889
F0.922
F0.942
tp81
a(F0.9648888888888889
F0.923
F0.942
tp82
a(F0.9653333333333334
F0.922
F0.942
tp83
a(F0.9657777777777777
F0.921
F0.942
tp84
a(F0.9663333333333334
F0.922
F0.942
tp85
a(F0.9663333333333334
F0.922
F0.941
tp86
a(F0.9664444444444444
F0.921
F0.94
tp87
a(F0.9665555555555555
F0.921
F0.939
tp88
a(F0.9665555555555555
F0.92
F0.939
tp89
a(F0.9666666666666667
F0.92
F0.939
tp90
a(F0.9666666666666667
F0.921
F0.941
tp91
a(F0.9668888888888889
F0.922
F0.941
tp92
a(F0.967
F0.924
F0.942
tp93
a(F0.9667777777777777
F0.923
F0.942
tp94
a(F0.9666666666666667
F0.922
F0.942
tp95
a(F0.9668888888888889
F0.923
F0.941
tp96
a(F0.967
F0.922
F0.94
tp97
a(F0.9671111111111111
F0.923
F0.939
tp98
a(F0.9672222222222222
F0.921
F0.94
tp99
a(F0.9673333333333334
F0.919
F0.94
tp100
a(F0.9673333333333334
F0.92
F0.939
tp101
a.