(lp0
(F0.13866666666666666
F0.136
F0.138
tp1
a(F0.6967777777777778
F0.67
F0.739
tp2
a(F0.802
F0.781
F0.856
tp3
a(F0.8348888888888889
F0.814
F0.882
tp4
a(F0.8418888888888889
F0.824
F0.89
tp5
a(F0.8471111111111111
F0.831
F0.894
tp6
a(F0.8502222222222222
F0.834
F0.893
tp7
a(F0.8527777777777777
F0.841
F0.894
tp8
a(F0.8557777777777777
F0.84
F0.895
tp9
a(F0.8578888888888889
F0.84
F0.897
tp10
a(F0.8595555555555555
F0.844
F0.897
tp11
a(F0.8618888888888889
F0.846
F0.9
tp12
a(F0.8632222222222222
F0.847
F0.901
tp13
a(F0.8644444444444445
F0.847
F0.904
tp14
a(F0.8662222222222222
F0.849
F0.908
tp15
a(F0.8676666666666667
F0.851
F0.909
tp16
a(F0.8687777777777778
F0.852
F0.911
tp17
a(F0.8687777777777778
F0.853
F0.911
tp18
a(F0.8694444444444445
F0.855
F0.912
tp19
a(F0.8701111111111111
F0.857
F0.912
tp20
a(F0.8707777777777778
F0.857
F0.912
tp21
a(F0.8714444444444445
F0.856
F0.91
tp22
a(F0.8718888888888889
F0.855
F0.91
tp23
a(F0.8728888888888889
F0.856
F0.91
tp24
a(F0.8737777777777778
F0.857
F0.911
tp25
a(F0.8742222222222222
F0.857
F0.911
tp26
a(F0.8743333333333333
F0.858
F0.91
tp27
a(F0.8748888888888889
F0.86
F0.91
tp28
a(F0.875
F0.86
F0.912
tp29
a(F0.8755555555555555
F0.86
F0.912
tp30
a(F0.8758888888888889
F0.859
F0.913
tp31
a(F0.876
F0.859
F0.912
tp32
a(F0.8763333333333333
F0.859
F0.912
tp33
a(F0.8765555555555555
F0.859
F0.912
tp34
a(F0.8767777777777778
F0.859
F0.912
tp35
a(F0.8768888888888889
F0.859
F0.912
tp36
a(F0.8775555555555555
F0.859
F0.912
tp37
a(F0.8776666666666667
F0.859
F0.912
tp38
a(F0.8774444444444445
F0.861
F0.912
tp39
a(F0.8781111111111111
F0.861
F0.913
tp40
a(F0.8784444444444445
F0.862
F0.913
tp41
a(F0.8785555555555555
F0.862
F0.913
tp42
a(F0.8786666666666667
F0.862
F0.914
tp43
a(F0.8791111111111111
F0.862
F0.913
tp44
a(F0.8795555555555555
F0.862
F0.914
tp45
a(F0.8797777777777778
F0.863
F0.914
tp46
a(F0.88
F0.863
F0.913
tp47
a(F0.8801111111111111
F0.863
F0.913
tp48
a(F0.8801111111111111
F0.862
F0.913
tp49
a(F0.8803333333333333
F0.863
F0.913
tp50
a(F0.8806666666666667
F0.863
F0.913
tp51
a(F0.8808888888888889
F0.863
F0.913
tp52
a(F0.8812222222222222
F0.862
F0.913
tp53
a(F0.8813333333333333
F0.862
F0.913
tp54
a(F0.8815555555555555
F0.862
F0.913
tp55
a(F0.8815555555555555
F0.862
F0.913
tp56
a(F0.882
F0.863
F0.913
tp57
a(F0.8823333333333333
F0.864
F0.914
tp58
a(F0.8826666666666667
F0.864
F0.914
tp59
a(F0.8827777777777778
F0.864
F0.914
tp60
a(F0.8833333333333333
F0.864
F0.916
tp61
a(F0.8835555555555555
F0.865
F0.916
tp62
a(F0.884
F0.865
F0.916
tp63
a(F0.8841111111111111
F0.865
F0.916
tp64
a(F0.8841111111111111
F0.865
F0.916
tp65
a(F0.8842222222222222
F0.865
F0.916
tp66
a(F0.8843333333333333
F0.865
F0.916
tp67
a(F0.8846666666666667
F0.865
F0.916
tp68
a(F0.8848888888888888
F0.865
F0.915
tp69
a(F0.885
F0.864
F0.916
tp70
a(F0.8853333333333333
F0.864
F0.916
tp71
a(F0.8857777777777778
F0.864
F0.916
tp72
a(F0.886
F0.865
F0.916
tp73
a(F0.8862222222222222
F0.865
F0.916
tp74
a(F0.8865555555555555
F0.865
F0.915
tp75
a(F0.8865555555555555
F0.864
F0.915
tp76
a(F0.8866666666666667
F0.864
F0.915
tp77
a(F0.8867777777777778
F0.864
F0.916
tp78
a(F0.8867777777777778
F0.864
F0.916
tp79
a(F0.887
F0.864
F0.916
tp80
a(F0.8871111111111111
F0.864
F0.916
tp81
a(F0.8872222222222222
F0.864
F0.916
tp82
a(F0.8874444444444445
F0.864
F0.916
tp83
a(F0.8875555555555555
F0.864
F0.916
tp84
a(F0.8876666666666667
F0.865
F0.916
tp85
a(F0.8876666666666667
F0.865
F0.916
tp86
a(F0.8878888888888888
F0.865
F0.916
tp87
a(F0.8878888888888888
F0.865
F0.916
tp88
a(F0.8878888888888888
F0.865
F0.916
tp89
a(F0.888
F0.865
F0.916
tp90
a(F0.8878888888888888
F0.865
F0.916
tp91
a(F0.8877777777777778
F0.865
F0.916
tp92
a(F0.888
F0.864
F0.916
tp93
a(F0.888
F0.864
F0.916
tp94
a(F0.8883333333333333
F0.864
F0.916
tp95
a(F0.8887777777777778
F0.864
F0.916
tp96
a(F0.8888888888888888
F0.864
F0.916
tp97
a(F0.889
F0.864
F0.916
tp98
a(F0.8891111111111111
F0.865
F0.916
tp99
a(F0.8893333333333333
F0.865
F0.916
tp100
a(F0.8894444444444445
F0.865
F0.916
tp101
a.